gpasm-1.4.0 #1107 (May  9 2015) build/sdcc/pr   12-2-2016  22:31:28         PAGE  1


LOC    OBJECT CODE    LINE  SOURCE TEXT
  VALUE

                      00001 ;--------------------------------------------------------
                      00002 ; File Created by SDCC : free open source ANSI-C Compiler
                      00003 ; Version 3.6.0 #9615 (Linux)
                      00004 ;--------------------------------------------------------
                      00005 ; PIC16 port for the Microchip 16-bit core micros
                      00006 ;--------------------------------------------------------
                      00007         list    p=18f4620
                      00008         radix   dec
                      00009 
                      00010 
                      00011 ;--------------------------------------------------------
                      00012 ; public variables in this module
                      00013 ;--------------------------------------------------------
  0000                00014         global  _RF24_csn_d
  0000                00015         global  _RF24_ce_d
  0000                00016         global  _RF24_beginTransaction
  0000                00017         global  _RF24_endTransaction
  0000                00018         global  _RF24_read_register_m_d
  0000                00019         global  _RF24_read_register_d
  0000                00020         global  _RF24_write_register_c_d
  0000                00021         global  _RF24_write_register_d
  0000                00022         global  _RF24_flush_tx
  0000                00023         global  _RF24_init
  0000                00024         global  _RF24_setChannel
  0000                00025         global  _RF24_getChannel
  0000                00026         global  _RF24_setPayloadSize
  0000                00027         global  _RF24_getPayloadSize
  0000                00028         global  _RF24_begin
  0000                00029         global  _RF24_startListening
  0000                00030         global  _RF24_stopListening
  0000                00031         global  _RF24_powerDown
  0000                00032         global  _RF24_powerUp
  0000                00033         global  _RF24_write_m
  0000                00034         global  _RF24_write
  0000                00035         global  _RF24_writeBlocking
  0000                00036         global  _RF24_reUseTX
  0000                00037         global  _RF24_writeFast_m
  0000                00038         global  _RF24_writeFast
  0000                00039         global  _RF24_startFastWrite
  0000                00040         global  _RF24_startWrite
  0000                00041         global  _RF24_rxFifoFull
  0000                00042         global  _RF24_txStandBy
  0000                00043         global  _RF24_txStandBy_t
  0000                00044         global  _RF24_maskIRQ
  0000                00045         global  _RF24_getDynamicPayloadSize
  0000                00046         global  _RF24_available
  0000                00047         global  _RF24_available_p
  0000                00048         global  _RF24_read
  0000                00049         global  _RF24_whatHappened
  0000                00050         global  _RF24_openWritingPipe_d
  0000                00051         global  _RF24_openWritingPipe
  0000                00052         global  _RF24_openReadingPipe_d
  0000                00053         global  _RF24_setAddressWidth
gpasm-1.4.0 #1107 (May  9 2015) build/sdcc/pr   12-2-2016  22:31:28         PAGE  2


LOC    OBJECT CODE    LINE  SOURCE TEXT
  VALUE

  0000                00054         global  _RF24_openReadingPipe
  0000                00055         global  _RF24_closeReadingPipe
  0000                00056         global  _RF24_toggle_features_d
  0000                00057         global  _RF24_enableDynamicPayloads
  0000                00058         global  _RF24_enableAckPayload
  0000                00059         global  _RF24_enableDynamicAck
  0000                00060         global  _RF24_writeAckPayload
  0000                00061         global  _RF24_isAckPayloadAvailable
  0000                00062         global  _RF24_isPVariant
  0000                00063         global  _RF24_setAutoAck
  0000                00064         global  _RF24_setAutoAck_p
  0000                00065         global  _RF24_testCarrier
  0000                00066         global  _RF24_testRPD
  0000                00067         global  _RF24_isValid
  0000                00068         global  _RF24_setPALevel
  0000                00069         global  _RF24_getPALevel
  0000                00070         global  _RF24_setDataRate
  0000                00071         global  _RF24_getDataRate
  0000                00072         global  _RF24_setCRCLength
  0000                00073         global  _RF24_getCRCLength
  0000                00074         global  _RF24_disableCRC
  0000                00075         global  _RF24_setRetries
  0000                00076         global  _RF24_write_payload
  0000                00077         global  _RF24_read_payload
  0000                00078         global  _RF24_spiTrans
  0000                00079         global  _RF24_flush_rx
  0000                00080         global  _RF24_get_status
                      00081 
                      00082 ;--------------------------------------------------------
                      00083 ; extern variables in this module
                      00084 ;--------------------------------------------------------
  0000                00085         extern  __gptrput1
  0000                00086         extern  __gptrget1
  0000                00087         extern  _PORTAbits
  0000                00088         extern  _PORTBbits
  0000                00089         extern  _PORTCbits
  0000                00090         extern  _PORTDbits
  0000                00091         extern  _PORTEbits
  0000                00092         extern  _LATAbits
  0000                00093         extern  _LATBbits
  0000                00094         extern  _LATCbits
  0000                00095         extern  _LATDbits
  0000                00096         extern  _LATEbits
  0000                00097         extern  _DDRAbits
  0000                00098         extern  _TRISAbits
  0000                00099         extern  _DDRBbits
  0000                00100         extern  _TRISBbits
  0000                00101         extern  _DDRCbits
  0000                00102         extern  _TRISCbits
  0000                00103         extern  _DDRDbits
  0000                00104         extern  _TRISDbits
  0000                00105         extern  _DDREbits
  0000                00106         extern  _TRISEbits
gpasm-1.4.0 #1107 (May  9 2015) build/sdcc/pr   12-2-2016  22:31:28         PAGE  3


LOC    OBJECT CODE    LINE  SOURCE TEXT
  VALUE

  0000                00107         extern  _OSCTUNEbits
  0000                00108         extern  _PIE1bits
  0000                00109         extern  _PIR1bits
  0000                00110         extern  _IPR1bits
  0000                00111         extern  _PIE2bits
  0000                00112         extern  _PIR2bits
  0000                00113         extern  _IPR2bits
  0000                00114         extern  _EECON1bits
  0000                00115         extern  _RCSTAbits
  0000                00116         extern  _TXSTAbits
  0000                00117         extern  _T3CONbits
  0000                00118         extern  _CMCONbits
  0000                00119         extern  _CVRCONbits
  0000                00120         extern  _ECCP1ASbits
  0000                00121         extern  _PWM1CONbits
  0000                00122         extern  _BAUDCONbits
  0000                00123         extern  _BAUDCTLbits
  0000                00124         extern  _CCP2CONbits
  0000                00125         extern  _CCP1CONbits
  0000                00126         extern  _ADCON2bits
  0000                00127         extern  _ADCON1bits
  0000                00128         extern  _ADCON0bits
  0000                00129         extern  _SSPCON2bits
  0000                00130         extern  _SSPCON1bits
  0000                00131         extern  _SSPSTATbits
  0000                00132         extern  _T2CONbits
  0000                00133         extern  _T1CONbits
  0000                00134         extern  _RCONbits
  0000                00135         extern  _WDTCONbits
  0000                00136         extern  _HLVDCONbits
  0000                00137         extern  _LVDCONbits
  0000                00138         extern  _OSCCONbits
  0000                00139         extern  _T0CONbits
  0000                00140         extern  _STATUSbits
  0000                00141         extern  _INTCON3bits
  0000                00142         extern  _INTCON2bits
  0000                00143         extern  _INTCONbits
  0000                00144         extern  _STKPTRbits
  0000                00145         extern  _stdin
  0000                00146         extern  _stdout
  0000                00147         extern  _mtime
  0000                00148         extern  _PORTA
  0000                00149         extern  _PORTB
  0000                00150         extern  _PORTC
  0000                00151         extern  _PORTD
  0000                00152         extern  _PORTE
  0000                00153         extern  _LATA
  0000                00154         extern  _LATB
  0000                00155         extern  _LATC
  0000                00156         extern  _LATD
  0000                00157         extern  _LATE
  0000                00158         extern  _DDRA
  0000                00159         extern  _TRISA
gpasm-1.4.0 #1107 (May  9 2015) build/sdcc/pr   12-2-2016  22:31:28         PAGE  4


LOC    OBJECT CODE    LINE  SOURCE TEXT
  VALUE

  0000                00160         extern  _DDRB
  0000                00161         extern  _TRISB
  0000                00162         extern  _DDRC
  0000                00163         extern  _TRISC
  0000                00164         extern  _DDRD
  0000                00165         extern  _TRISD
  0000                00166         extern  _DDRE
  0000                00167         extern  _TRISE
  0000                00168         extern  _OSCTUNE
  0000                00169         extern  _PIE1
  0000                00170         extern  _PIR1
  0000                00171         extern  _IPR1
  0000                00172         extern  _PIE2
  0000                00173         extern  _PIR2
  0000                00174         extern  _IPR2
  0000                00175         extern  _EECON1
  0000                00176         extern  _EECON2
  0000                00177         extern  _EEDATA
  0000                00178         extern  _EEADR
  0000                00179         extern  _EEADRH
  0000                00180         extern  _RCSTA
  0000                00181         extern  _TXSTA
  0000                00182         extern  _TXREG
  0000                00183         extern  _RCREG
  0000                00184         extern  _SPBRG
  0000                00185         extern  _SPBRGH
  0000                00186         extern  _T3CON
  0000                00187         extern  _TMR3
  0000                00188         extern  _TMR3L
  0000                00189         extern  _TMR3H
  0000                00190         extern  _CMCON
  0000                00191         extern  _CVRCON
  0000                00192         extern  _ECCP1AS
  0000                00193         extern  _PWM1CON
  0000                00194         extern  _BAUDCON
  0000                00195         extern  _BAUDCTL
  0000                00196         extern  _CCP2CON
  0000                00197         extern  _CCPR2
  0000                00198         extern  _CCPR2L
  0000                00199         extern  _CCPR2H
  0000                00200         extern  _CCP1CON
  0000                00201         extern  _CCPR1
  0000                00202         extern  _CCPR1L
  0000                00203         extern  _CCPR1H
  0000                00204         extern  _ADCON2
  0000                00205         extern  _ADCON1
  0000                00206         extern  _ADCON0
  0000                00207         extern  _ADRES
  0000                00208         extern  _ADRESL
  0000                00209         extern  _ADRESH
  0000                00210         extern  _SSPCON2
  0000                00211         extern  _SSPCON1
  0000                00212         extern  _SSPSTAT
gpasm-1.4.0 #1107 (May  9 2015) build/sdcc/pr   12-2-2016  22:31:28         PAGE  5


LOC    OBJECT CODE    LINE  SOURCE TEXT
  VALUE

  0000                00213         extern  _SSPADD
  0000                00214         extern  _SSPBUF
  0000                00215         extern  _T2CON
  0000                00216         extern  _PR2
  0000                00217         extern  _TMR2
  0000                00218         extern  _T1CON
  0000                00219         extern  _TMR1
  0000                00220         extern  _TMR1L
  0000                00221         extern  _TMR1H
  0000                00222         extern  _RCON
  0000                00223         extern  _WDTCON
  0000                00224         extern  _HLVDCON
  0000                00225         extern  _LVDCON
  0000                00226         extern  _OSCCON
  0000                00227         extern  _T0CON
  0000                00228         extern  _TMR0
  0000                00229         extern  _TMR0L
  0000                00230         extern  _TMR0H
  0000                00231         extern  _STATUS
  0000                00232         extern  _FSR2L
  0000                00233         extern  _FSR2H
  0000                00234         extern  _PLUSW2
  0000                00235         extern  _PREINC2
  0000                00236         extern  _POSTDEC2
  0000                00237         extern  _POSTINC2
  0000                00238         extern  _INDF2
  0000                00239         extern  _BSR
  0000                00240         extern  _FSR1L
  0000                00241         extern  _FSR1H
  0000                00242         extern  _PLUSW1
  0000                00243         extern  _PREINC1
  0000                00244         extern  _POSTDEC1
  0000                00245         extern  _POSTINC1
  0000                00246         extern  _INDF1
  0000                00247         extern  _WREG
  0000                00248         extern  _FSR0L
  0000                00249         extern  _FSR0H
  0000                00250         extern  _PLUSW0
  0000                00251         extern  _PREINC0
  0000                00252         extern  _POSTDEC0
  0000                00253         extern  _POSTINC0
  0000                00254         extern  _INDF0
  0000                00255         extern  _INTCON3
  0000                00256         extern  _INTCON2
  0000                00257         extern  _INTCON
  0000                00258         extern  _PROD
  0000                00259         extern  _PRODL
  0000                00260         extern  _PRODH
  0000                00261         extern  _TABLAT
  0000                00262         extern  _TBLPTR
  0000                00263         extern  _TBLPTRL
  0000                00264         extern  _TBLPTRH
  0000                00265         extern  _TBLPTRU
gpasm-1.4.0 #1107 (May  9 2015) build/sdcc/pr   12-2-2016  22:31:28         PAGE  6


LOC    OBJECT CODE    LINE  SOURCE TEXT
  VALUE

  0000                00266         extern  _PC
  0000                00267         extern  _PCL
  0000                00268         extern  _PCLATH
  0000                00269         extern  _PCLATU
  0000                00270         extern  _STKPTR
  0000                00271         extern  _TOS
  0000                00272         extern  _TOSL
  0000                00273         extern  _TOSH
  0000                00274         extern  _TOSU
  0000                00275         extern  _memcpy
  0000                00276         extern  _digitalWrite
  0000                00277         extern  _pinMode
  0000                00278         extern  _millis
  0000                00279         extern  _delay
  0000                00280         extern  _delayMicroseconds
  0000                00281         extern  _SPI_begin
  0000                00282         extern  _SPI_transfer
                      00283 
                      00284 ;--------------------------------------------------------
                      00285 ;       Equates to used internal registers
                      00286 ;--------------------------------------------------------
  00000FD8            00287 STATUS  equ     0xfd8
  00000FE8            00288 WREG    equ     0xfe8
  00000FF6            00289 TBLPTRL equ     0xff6
  00000FF7            00290 TBLPTRH equ     0xff7
  00000FF8            00291 TBLPTRU equ     0xff8
  00000FF5            00292 TABLAT  equ     0xff5
  00000FE9            00293 FSR0L   equ     0xfe9
  00000FEA            00294 FSR0H   equ     0xfea
  00000FE1            00295 FSR1L   equ     0xfe1
  00000FE2            00296 FSR1H   equ     0xfe2
  00000FD9            00297 FSR2L   equ     0xfd9
  00000FDA            00298 FSR2H   equ     0xfda
  00000FEF            00299 INDF0   equ     0xfef
  00000FE6            00300 POSTINC1        equ     0xfe6
  00000FE5            00301 POSTDEC1        equ     0xfe5
  00000FE4            00302 PREINC1 equ     0xfe4
  00000FDB            00303 PLUSW2  equ     0xfdb
  00000FF3            00304 PRODL   equ     0xff3
  00000FF4            00305 PRODH   equ     0xff4
                      00306 
                      00307 
                      00308 ; Internal registers
                      00309 .registers      udata_ovr       0x0000
000000                00310 r0x00   res     1
000001                00311 r0x01   res     1
000002                00312 r0x02   res     1
000003                00313 r0x03   res     1
000004                00314 r0x04   res     1
000005                00315 r0x05   res     1
000006                00316 r0x06   res     1
000007                00317 r0x07   res     1
000008                00318 r0x08   res     1
gpasm-1.4.0 #1107 (May  9 2015) build/sdcc/pr   12-2-2016  22:31:28         PAGE  7


LOC    OBJECT CODE    LINE  SOURCE TEXT
  VALUE

000009                00319 r0x09   res     1
00000A                00320 r0x0a   res     1
00000B                00321 r0x0b   res     1
00000C                00322 r0x0c   res     1
00000D                00323 r0x0d   res     1
00000E                00324 r0x0e   res     1
00000F                00325 r0x0f   res     1
                      00326 
                      00327 udata_RF24_cg_0 udata
000000                00328 _rf     res     22
                      00329 
                      00330 udata_RF24_cg_1 udata
000000                00331 _RF24_openWritingPipe_d_value_1_249     res     5
                      00332 
                      00333 udata_RF24_cg_2 udata
000000                00334 _RF24_openReadingPipe_d_address_1_254   res     5
                      00335 
                      00336 ;--------------------------------------------------------
                      00337 ; global & static initialisations
                      00338 ;--------------------------------------------------------
                      00339 ; I code from now on!
                      00340 ; ; Starting pCode block
                      00341 S_RF24_cg__RF24_setRetries      code
000000                00342 _RF24_setRetries:
                      00343 ;       .line   1580; ../../../RF24_c/RF24_cg.c void RF24_setRetries( uint8_t delay, uint8_t count)
000000 CFDA FFE5      00344         MOVFF   FSR2H, POSTDEC1
000004 CFD9 FFE5      00345         MOVFF   FSR2L, POSTDEC1
000008 CFE2 FFDA      00346         MOVFF   FSR1H, FSR2H
00000C CFE1 FFD9      00347         MOVFF   FSR1L, FSR2L
000010 C??? F???      00348         MOVFF   r0x00, POSTDEC1
000014 C??? F???      00349         MOVFF   r0x01, POSTDEC1
000018 C??? F???      00350         MOVFF   r0x02, POSTDEC1
00001C 0E03           00351         MOVLW   0x03
00001E CFDB F000      00352         MOVFF   PLUSW2, r0x00
000022 0E04           00353         MOVLW   0x04
000024 CFDB F000      00354         MOVFF   PLUSW2, r0x01
                      00355 ;       .line   1582; ../../../RF24_c/RF24_cg.c RF24_write_register_d(SETUP_RETR,(delay&0xf)<<ARD | (cou
                            nt&0xf)<<ARC);
000028 0E0F           00356         MOVLW   0x0f
00002A 16??           00357         ANDWF   r0x00, F
00002C 38??           00358         SWAPF   r0x00, W
00002E 0BF0           00359         ANDLW   0xf0
Message[1301]: Using default destination of 0 (Access Bank).
000030 6E??           00360         MOVWF   r0x02
000032 0E0F           00361         MOVLW   0x0f
000034 16??           00362         ANDWF   r0x01, F
000036 50??           00363         MOVF    r0x01, W
Message[1301]: Using default destination of 0 (Access Bank).
000038 6E??           00364         MOVWF   r0x00
00003A 50??           00365         MOVF    r0x00, W
00003C 12??           00366         IORWF   r0x02, F
00003E 50??           00367         MOVF    r0x02, W
Message[1301]: Using default destination of 0 (Access Bank).
gpasm-1.4.0 #1107 (May  9 2015) build/sdcc/pr   12-2-2016  22:31:28         PAGE  8


LOC    OBJECT CODE    LINE  SOURCE TEXT
  VALUE

000040 6EE5           00368         MOVWF   POSTDEC1
000042 0E04           00369         MOVLW   0x04
Message[1301]: Using default destination of 0 (Access Bank).
000044 6EE5           00370         MOVWF   POSTDEC1
000046 EC?? F0??      00371         CALL    _RF24_write_register_d
00004A 52E6           00372         MOVF    POSTINC1, F
00004C 52E6           00373         MOVF    POSTINC1, F
00004E CFE4 F000      00374         MOVFF   PREINC1, r0x02
000052 CFE4 F000      00375         MOVFF   PREINC1, r0x01
000056 CFE4 F000      00376         MOVFF   PREINC1, r0x00
00005A CFE4 FFD9      00377         MOVFF   PREINC1, FSR2L
00005E CFE4 FFDA      00378         MOVFF   PREINC1, FSR2H
000062 0012           00379         RETURN  
                      00380 
                      00381 ; ; Starting pCode block
                      00382 S_RF24_cg__RF24_disableCRC      code
000000                00383 _RF24_disableCRC:
                      00384 ;       .line   1573; ../../../RF24_c/RF24_cg.c void RF24_disableCRC(void)
000000 CFDA FFE5      00385         MOVFF   FSR2H, POSTDEC1
000004 CFD9 FFE5      00386         MOVFF   FSR2L, POSTDEC1
000008 CFE2 FFDA      00387         MOVFF   FSR1H, FSR2H
00000C CFE1 FFD9      00388         MOVFF   FSR1L, FSR2L
000010 C??? F???      00389         MOVFF   r0x00, POSTDEC1
                      00390 ;       .line   1575; ../../../RF24_c/RF24_cg.c uint8_t disable = RF24_read_register_d(NRF_CONFIG) & ~_B
                            V(EN_CRC) ;
000014 0E00           00391         MOVLW   0x00
Message[1301]: Using default destination of 0 (Access Bank).
000016 6EE5           00392         MOVWF   POSTDEC1
000018 EC?? F0??      00393         CALL    _RF24_read_register_d
Message[1301]: Using default destination of 0 (Access Bank).
00001C 6E??           00394         MOVWF   r0x00
00001E 52E6           00395         MOVF    POSTINC1, F
000020 96??           00396         BCF     r0x00, 3
                      00397 ;       .line   1576; ../../../RF24_c/RF24_cg.c RF24_write_register_d( NRF_CONFIG, disable ) ;
000022 50??           00398         MOVF    r0x00, W
Message[1301]: Using default destination of 0 (Access Bank).
000024 6EE5           00399         MOVWF   POSTDEC1
000026 0E00           00400         MOVLW   0x00
Message[1301]: Using default destination of 0 (Access Bank).
000028 6EE5           00401         MOVWF   POSTDEC1
00002A EC?? F0??      00402         CALL    _RF24_write_register_d
00002E 52E6           00403         MOVF    POSTINC1, F
000030 52E6           00404         MOVF    POSTINC1, F
000032 CFE4 F000      00405         MOVFF   PREINC1, r0x00
000036 CFE4 FFD9      00406         MOVFF   PREINC1, FSR2L
00003A CFE4 FFDA      00407         MOVFF   PREINC1, FSR2H
00003E 0012           00408         RETURN  
                      00409 
                      00410 ; ; Starting pCode block
                      00411 S_RF24_cg__RF24_getCRCLength    code
000000                00412 _RF24_getCRCLength:
                      00413 ;       .line   1553; ../../../RF24_c/RF24_cg.c rf24_crclength_e RF24_getCRCLength(void)
000000 CFDA FFE5      00414         MOVFF   FSR2H, POSTDEC1
gpasm-1.4.0 #1107 (May  9 2015) build/sdcc/pr   12-2-2016  22:31:28         PAGE  9


LOC    OBJECT CODE    LINE  SOURCE TEXT
  VALUE

000004 CFD9 FFE5      00415         MOVFF   FSR2L, POSTDEC1
000008 CFE2 FFDA      00416         MOVFF   FSR1H, FSR2H
00000C CFE1 FFD9      00417         MOVFF   FSR1L, FSR2L
000010 C??? F???      00418         MOVFF   r0x00, POSTDEC1
000014 C??? F???      00419         MOVFF   r0x01, POSTDEC1
000018 C??? F???      00420         MOVFF   r0x02, POSTDEC1
                      00421 ;       .line   1555; ../../../RF24_c/RF24_cg.c rf24_crclength_e result = RF24_CRC_DISABLED;
Message[1301]: Using default destination of 0 (Access Bank).
00001C 6A??           00422         CLRF    r0x00
                      00423 ;       .line   1557; ../../../RF24_c/RF24_cg.c uint8_t config = RF24_read_register_d(NRF_CONFIG) & ( _B
                            V(CRCO) | _BV(EN_CRC)) ;
00001E 0E00           00424         MOVLW   0x00
Message[1301]: Using default destination of 0 (Access Bank).
000020 6EE5           00425         MOVWF   POSTDEC1
000022 EC?? F0??      00426         CALL    _RF24_read_register_d
Message[1301]: Using default destination of 0 (Access Bank).
000026 6E??           00427         MOVWF   r0x01
000028 52E6           00428         MOVF    POSTINC1, F
00002A 0E0C           00429         MOVLW   0x0c
00002C 16??           00430         ANDWF   r0x01, F
                      00431 ;       .line   1558; ../../../RF24_c/RF24_cg.c uint8_t AA = RF24_read_register_d(EN_AA);
00002E 0E01           00432         MOVLW   0x01
Message[1301]: Using default destination of 0 (Access Bank).
000030 6EE5           00433         MOVWF   POSTDEC1
000032 EC?? F0??      00434         CALL    _RF24_read_register_d
Message[1301]: Using default destination of 0 (Access Bank).
000036 6E??           00435         MOVWF   r0x02
000038 52E6           00436         MOVF    POSTINC1, F
                      00437 ;       .line   1560; ../../../RF24_c/RF24_cg.c if ( config & _BV(EN_CRC ) || AA)
00003A B6??           00438         BTFSC   r0x01, 3
00003C D???           00439         BRA     _00923_DS_
00003E 50??           00440         MOVF    r0x02, W
000040 E0??           00441         BZ      _00924_DS_
000042                00442 _00923_DS_:
                      00443 ;       .line   1562; ../../../RF24_c/RF24_cg.c if ( config & _BV(CRCO) )
000042 A4??           00444         BTFSS   r0x01, 2
000044 D???           00445         BRA     _00921_DS_
                      00446 ;       .line   1563; ../../../RF24_c/RF24_cg.c result = RF24_CRC_16;
000046 0E02           00447         MOVLW   0x02
Message[1301]: Using default destination of 0 (Access Bank).
000048 6E??           00448         MOVWF   r0x00
00004A D???           00449         BRA     _00924_DS_
00004C                00450 _00921_DS_:
                      00451 ;       .line   1565; ../../../RF24_c/RF24_cg.c result = RF24_CRC_8;
00004C 0E01           00452         MOVLW   0x01
Message[1301]: Using default destination of 0 (Access Bank).
00004E 6E??           00453         MOVWF   r0x00
000050                00454 _00924_DS_:
                      00455 ;       .line   1568; ../../../RF24_c/RF24_cg.c return result;
000050 50??           00456         MOVF    r0x00, W
000052 CFE4 F000      00457         MOVFF   PREINC1, r0x02
000056 CFE4 F000      00458         MOVFF   PREINC1, r0x01
00005A CFE4 F000      00459         MOVFF   PREINC1, r0x00
gpasm-1.4.0 #1107 (May  9 2015) build/sdcc/pr   12-2-2016  22:31:28         PAGE 10


LOC    OBJECT CODE    LINE  SOURCE TEXT
  VALUE

00005E CFE4 FFD9      00460         MOVFF   PREINC1, FSR2L
000062 CFE4 FFDA      00461         MOVFF   PREINC1, FSR2H
000066 0012           00462         RETURN  
                      00463 
                      00464 ; ; Starting pCode block
                      00465 S_RF24_cg__RF24_setCRCLength    code
000000                00466 _RF24_setCRCLength:
                      00467 ;       .line   1530; ../../../RF24_c/RF24_cg.c void RF24_setCRCLength(rf24_crclength_e length)
000000 CFDA FFE5      00468         MOVFF   FSR2H, POSTDEC1
000004 CFD9 FFE5      00469         MOVFF   FSR2L, POSTDEC1
000008 CFE2 FFDA      00470         MOVFF   FSR1H, FSR2H
00000C CFE1 FFD9      00471         MOVFF   FSR1L, FSR2L
000010 C??? F???      00472         MOVFF   r0x00, POSTDEC1
000014 C??? F???      00473         MOVFF   r0x01, POSTDEC1
000018 0E03           00474         MOVLW   0x03
00001A CFDB F000      00475         MOVFF   PLUSW2, r0x00
                      00476 ;       .line   1532; ../../../RF24_c/RF24_cg.c uint8_t config = RF24_read_register_d(NRF_CONFIG) & ~( _
                            BV(CRCO) | _BV(EN_CRC)) ;
00001E 0E00           00477         MOVLW   0x00
Message[1301]: Using default destination of 0 (Access Bank).
000020 6EE5           00478         MOVWF   POSTDEC1
000022 EC?? F0??      00479         CALL    _RF24_read_register_d
Message[1301]: Using default destination of 0 (Access Bank).
000026 6E??           00480         MOVWF   r0x01
000028 52E6           00481         MOVF    POSTINC1, F
00002A 0EF3           00482         MOVLW   0xf3
00002C 16??           00483         ANDWF   r0x01, F
                      00484 ;       .line   1535; ../../../RF24_c/RF24_cg.c if ( length == RF24_CRC_DISABLED )
00002E 50??           00485         MOVF    r0x00, W
000030 E0??           00486         BZ      _00904_DS_
                      00487 ;       .line   1539; ../../../RF24_c/RF24_cg.c else if ( length == RF24_CRC_8 )
000032 50??           00488         MOVF    r0x00, W
000034 0A01           00489         XORLW   0x01
000036 E1??           00490         BNZ     _00900_DS_
                      00491 ;       .line   1541; ../../../RF24_c/RF24_cg.c config |= _BV(EN_CRC);
000038 86??           00492         BSF     r0x01, 3
00003A D???           00493         BRA     _00904_DS_
00003C                00494 _00900_DS_:
                      00495 ;       .line   1545; ../../../RF24_c/RF24_cg.c config |= _BV(EN_CRC);
00003C 86??           00496         BSF     r0x01, 3
                      00497 ;       .line   1546; ../../../RF24_c/RF24_cg.c config |= _BV( CRCO );
00003E 84??           00498         BSF     r0x01, 2
000040                00499 _00904_DS_:
                      00500 ;       .line   1548; ../../../RF24_c/RF24_cg.c RF24_write_register_d( NRF_CONFIG, config ) ;
000040 50??           00501         MOVF    r0x01, W
Message[1301]: Using default destination of 0 (Access Bank).
000042 6EE5           00502         MOVWF   POSTDEC1
000044 0E00           00503         MOVLW   0x00
Message[1301]: Using default destination of 0 (Access Bank).
000046 6EE5           00504         MOVWF   POSTDEC1
000048 EC?? F0??      00505         CALL    _RF24_write_register_d
00004C 52E6           00506         MOVF    POSTINC1, F
00004E 52E6           00507         MOVF    POSTINC1, F
gpasm-1.4.0 #1107 (May  9 2015) build/sdcc/pr   12-2-2016  22:31:28         PAGE 11


LOC    OBJECT CODE    LINE  SOURCE TEXT
  VALUE

000050 CFE4 F000      00508         MOVFF   PREINC1, r0x01
000054 CFE4 F000      00509         MOVFF   PREINC1, r0x00
000058 CFE4 FFD9      00510         MOVFF   PREINC1, FSR2L
00005C CFE4 FFDA      00511         MOVFF   PREINC1, FSR2H
000060 0012           00512         RETURN  
                      00513 
                      00514 ; ; Starting pCode block
                      00515 S_RF24_cg__RF24_getDataRate     code
000000                00516 _RF24_getDataRate:
                      00517 ;       .line   1503; ../../../RF24_c/RF24_cg.c rf24_datarate_e RF24_getDataRate(void )
000000 CFDA FFE5      00518         MOVFF   FSR2H, POSTDEC1
000004 CFD9 FFE5      00519         MOVFF   FSR2L, POSTDEC1
000008 CFE2 FFDA      00520         MOVFF   FSR1H, FSR2H
00000C CFE1 FFD9      00521         MOVFF   FSR1L, FSR2L
000010 C??? F???      00522         MOVFF   r0x00, POSTDEC1
000014 C??? F???      00523         MOVFF   r0x01, POSTDEC1
                      00524 ;       .line   1506; ../../../RF24_c/RF24_cg.c uint8_t dr = RF24_read_register_d(RF_SETUP) & (_BV(RF_DR
                            _LOW) | _BV(RF_DR_HIGH));
000018 0E06           00525         MOVLW   0x06
Message[1301]: Using default destination of 0 (Access Bank).
00001A 6EE5           00526         MOVWF   POSTDEC1
00001C EC?? F0??      00527         CALL    _RF24_read_register_d
Message[1301]: Using default destination of 0 (Access Bank).
000020 6E??           00528         MOVWF   r0x00
000022 52E6           00529         MOVF    POSTINC1, F
000024 0E28           00530         MOVLW   0x28
000026 16??           00531         ANDWF   r0x00, F
                      00532 ;       .line   1510; ../../../RF24_c/RF24_cg.c if ( dr == _BV(RF_DR_LOW) )
000028 50??           00533         MOVF    r0x00, W
00002A 0A20           00534         XORLW   0x20
00002C E1??           00535         BNZ     _00880_DS_
                      00536 ;       .line   1513; ../../../RF24_c/RF24_cg.c result = RF24_250KBPS ;
00002E 0E02           00537         MOVLW   0x02
Message[1301]: Using default destination of 0 (Access Bank).
000030 6E??           00538         MOVWF   r0x01
000032 D???           00539         BRA     _00881_DS_
000034                00540 _00880_DS_:
                      00541 ;       .line   1515; ../../../RF24_c/RF24_cg.c else if ( dr == _BV(RF_DR_HIGH) )
000034 50??           00542         MOVF    r0x00, W
000036 0A08           00543         XORLW   0x08
000038 E1??           00544         BNZ     _00877_DS_
                      00545 ;       .line   1518; ../../../RF24_c/RF24_cg.c result = RF24_2MBPS ;
00003A 0E01           00546         MOVLW   0x01
Message[1301]: Using default destination of 0 (Access Bank).
00003C 6E??           00547         MOVWF   r0x01
00003E D???           00548         BRA     _00881_DS_
000040                00549 _00877_DS_:
                      00550 ;       .line   1523; ../../../RF24_c/RF24_cg.c result = RF24_1MBPS ;
Message[1301]: Using default destination of 0 (Access Bank).
000040 6A??           00551         CLRF    r0x01
000042                00552 _00881_DS_:
                      00553 ;       .line   1525; ../../../RF24_c/RF24_cg.c return result ;
000042 50??           00554         MOVF    r0x01, W
gpasm-1.4.0 #1107 (May  9 2015) build/sdcc/pr   12-2-2016  22:31:28         PAGE 12


LOC    OBJECT CODE    LINE  SOURCE TEXT
  VALUE

000044 CFE4 F000      00555         MOVFF   PREINC1, r0x01
000048 CFE4 F000      00556         MOVFF   PREINC1, r0x00
00004C CFE4 FFD9      00557         MOVFF   PREINC1, FSR2L
000050 CFE4 FFDA      00558         MOVFF   PREINC1, FSR2H
000054 0012           00559         RETURN  
                      00560 
                      00561 ; ; Starting pCode block
                      00562 S_RF24_cg__RF24_setDataRate     code
000000                00563 _RF24_setDataRate:
                      00564 ;       .line   1453; ../../../RF24_c/RF24_cg.c uint8_t RF24_setDataRate(rf24_datarate_e speed)
000000 CFDA FFE5      00565         MOVFF   FSR2H, POSTDEC1
000004 CFD9 FFE5      00566         MOVFF   FSR2L, POSTDEC1
000008 CFE2 FFDA      00567         MOVFF   FSR1H, FSR2H
00000C CFE1 FFD9      00568         MOVFF   FSR1L, FSR2L
000010 C??? F???      00569         MOVFF   r0x00, POSTDEC1
000014 C??? F???      00570         MOVFF   r0x01, POSTDEC1
000018 C??? F???      00571         MOVFF   r0x02, POSTDEC1
00001C 0E03           00572         MOVLW   0x03
00001E CFDB F000      00573         MOVFF   PLUSW2, r0x00
                      00574 ;       .line   1455; ../../../RF24_c/RF24_cg.c uint8_t result = 0;
Message[1301]: Using default destination of 0 (Access Bank).
000022 6A??           00575         CLRF    r0x01
                      00576 ;       .line   1456; ../../../RF24_c/RF24_cg.c uint8_t setup = RF24_read_register_d(RF_SETUP) ;
000024 0E06           00577         MOVLW   0x06
Message[1301]: Using default destination of 0 (Access Bank).
000026 6EE5           00578         MOVWF   POSTDEC1
000028 EC?? F0??      00579         CALL    _RF24_read_register_d
Message[1301]: Using default destination of 0 (Access Bank).
00002C 6E??           00580         MOVWF   r0x02
00002E 52E6           00581         MOVF    POSTINC1, F
                      00582 ;       .line   1459; ../../../RF24_c/RF24_cg.c setup &= ~(_BV(RF_DR_LOW) | _BV(RF_DR_HIGH)) ;
000030 0ED7           00583         MOVLW   0xd7
000032 16??           00584         ANDWF   r0x02, F
                      00585 ;       .line   1464; ../../../RF24_c/RF24_cg.c rf.txDelay=85;
000034 0E55           00586         MOVLW   0x55
000036 ????           00587         BANKSEL (_rf + 13)
000038 6F??           00588         MOVWF   (_rf + 13), B
00003A ????           00589         BANKSEL (_rf + 14)
00003C 6B??           00590         CLRF    (_rf + 14), B
00003E ????           00591         BANKSEL (_rf + 15)
000040 6B??           00592         CLRF    (_rf + 15), B
000042 ????           00593         BANKSEL (_rf + 16)
000044 6B??           00594         CLRF    (_rf + 16), B
                      00595 ;       .line   1466; ../../../RF24_c/RF24_cg.c if( speed == RF24_250KBPS )
000046 50??           00596         MOVF    r0x00, W
000048 0A02           00597         XORLW   0x02
00004A E1??           00598         BNZ     _00848_DS_
                      00599 ;       .line   1470; ../../../RF24_c/RF24_cg.c setup |= _BV( RF_DR_LOW ) ;
00004C 8A??           00600         BSF     r0x02, 5
                      00601 ;       .line   1474; ../../../RF24_c/RF24_cg.c rf.txDelay=155;
00004E 0E9B           00602         MOVLW   0x9b
000050 ????           00603         BANKSEL (_rf + 13)
000052 6F??           00604         MOVWF   (_rf + 13), B
gpasm-1.4.0 #1107 (May  9 2015) build/sdcc/pr   12-2-2016  22:31:28         PAGE 13


LOC    OBJECT CODE    LINE  SOURCE TEXT
  VALUE

000054 ????           00605         BANKSEL (_rf + 14)
000056 6B??           00606         CLRF    (_rf + 14), B
000058 ????           00607         BANKSEL (_rf + 15)
00005A 6B??           00608         CLRF    (_rf + 15), B
00005C ????           00609         BANKSEL (_rf + 16)
00005E 6B??           00610         CLRF    (_rf + 16), B
000060 D???           00611         BRA     _00849_DS_
000062                00612 _00848_DS_:
                      00613 ;       .line   1481; ../../../RF24_c/RF24_cg.c if ( speed == RF24_2MBPS )
000062 50??           00614         MOVF    r0x00, W
000064 0A01           00615         XORLW   0x01
000066 E1??           00616         BNZ     _00849_DS_
                      00617 ;       .line   1483; ../../../RF24_c/RF24_cg.c setup |= _BV(RF_DR_HIGH);
000068 86??           00618         BSF     r0x02, 3
                      00619 ;       .line   1487; ../../../RF24_c/RF24_cg.c rf.txDelay=65;
00006A 0E41           00620         MOVLW   0x41
00006C ????           00621         BANKSEL (_rf + 13)
00006E 6F??           00622         MOVWF   (_rf + 13), B
000070 ????           00623         BANKSEL (_rf + 14)
000072 6B??           00624         CLRF    (_rf + 14), B
000074 ????           00625         BANKSEL (_rf + 15)
000076 6B??           00626         CLRF    (_rf + 15), B
000078 ????           00627         BANKSEL (_rf + 16)
00007A 6B??           00628         CLRF    (_rf + 16), B
00007C                00629 _00849_DS_:
                      00630 ;       .line   1491; ../../../RF24_c/RF24_cg.c RF24_write_register_d(RF_SETUP,setup);
00007C 50??           00631         MOVF    r0x02, W
Message[1301]: Using default destination of 0 (Access Bank).
00007E 6EE5           00632         MOVWF   POSTDEC1
000080 0E06           00633         MOVLW   0x06
Message[1301]: Using default destination of 0 (Access Bank).
000082 6EE5           00634         MOVWF   POSTDEC1
000084 EC?? F0??      00635         CALL    _RF24_write_register_d
000088 52E6           00636         MOVF    POSTINC1, F
00008A 52E6           00637         MOVF    POSTINC1, F
                      00638 ;       .line   1494; ../../../RF24_c/RF24_cg.c if ( RF24_read_register_d(RF_SETUP) == setup )
00008C 0E06           00639         MOVLW   0x06
Message[1301]: Using default destination of 0 (Access Bank).
00008E 6EE5           00640         MOVWF   POSTDEC1
000090 EC?? F0??      00641         CALL    _RF24_read_register_d
Message[1301]: Using default destination of 0 (Access Bank).
000094 6E??           00642         MOVWF   r0x00
000096 52E6           00643         MOVF    POSTINC1, F
000098 50??           00644         MOVF    r0x00, W
00009A 18??           00645         XORWF   r0x02, W
00009C E1??           00646         BNZ     _00851_DS_
                      00647 ;       .line   1496; ../../../RF24_c/RF24_cg.c result = 1;
00009E 0E01           00648         MOVLW   0x01
Message[1301]: Using default destination of 0 (Access Bank).
0000A0 6E??           00649         MOVWF   r0x01
0000A2                00650 _00851_DS_:
                      00651 ;       .line   1498; ../../../RF24_c/RF24_cg.c return result;
0000A2 50??           00652         MOVF    r0x01, W
gpasm-1.4.0 #1107 (May  9 2015) build/sdcc/pr   12-2-2016  22:31:28         PAGE 14


LOC    OBJECT CODE    LINE  SOURCE TEXT
  VALUE

0000A4 CFE4 F000      00653         MOVFF   PREINC1, r0x02
0000A8 CFE4 F000      00654         MOVFF   PREINC1, r0x01
0000AC CFE4 F000      00655         MOVFF   PREINC1, r0x00
0000B0 CFE4 FFD9      00656         MOVFF   PREINC1, FSR2L
0000B4 CFE4 FFDA      00657         MOVFF   PREINC1, FSR2H
0000B8 0012           00658         RETURN  
                      00659 
                      00660 ; ; Starting pCode block
                      00661 S_RF24_cg__RF24_getPALevel      code
000000                00662 _RF24_getPALevel:
                      00663 ;       .line   1445; ../../../RF24_c/RF24_cg.c uint8_t RF24_getPALevel(void)
000000 CFDA FFE5      00664         MOVFF   FSR2H, POSTDEC1
000004 CFD9 FFE5      00665         MOVFF   FSR2L, POSTDEC1
000008 CFE2 FFDA      00666         MOVFF   FSR1H, FSR2H
00000C CFE1 FFD9      00667         MOVFF   FSR1L, FSR2L
000010 C??? F???      00668         MOVFF   r0x00, POSTDEC1
                      00669 ;       .line   1448; ../../../RF24_c/RF24_cg.c return (RF24_read_register_d(RF_SETUP) & (_BV(RF_PWR_LOW
                            ) | _BV(RF_PWR_HIGH))) >> 1 ;
000014 0E06           00670         MOVLW   0x06
Message[1301]: Using default destination of 0 (Access Bank).
000016 6EE5           00671         MOVWF   POSTDEC1
000018 EC?? F0??      00672         CALL    _RF24_read_register_d
Message[1301]: Using default destination of 0 (Access Bank).
00001C 6E??           00673         MOVWF   r0x00
00001E 52E6           00674         MOVF    POSTINC1, F
000020 0E06           00675         MOVLW   0x06
000022 16??           00676         ANDWF   r0x00, F
000024 40??           00677         RRNCF   r0x00, W
000026 0B7F           00678         ANDLW   0x7f
Message[1301]: Using default destination of 0 (Access Bank).
000028 6E??           00679         MOVWF   r0x00
00002A 50??           00680         MOVF    r0x00, W
00002C CFE4 F000      00681         MOVFF   PREINC1, r0x00
000030 CFE4 FFD9      00682         MOVFF   PREINC1, FSR2L
000034 CFE4 FFDA      00683         MOVFF   PREINC1, FSR2H
000038 0012           00684         RETURN  
                      00685 
                      00686 ; ; Starting pCode block
                      00687 S_RF24_cg__RF24_setPALevel      code
000000                00688 _RF24_setPALevel:
                      00689 ;       .line   1428; ../../../RF24_c/RF24_cg.c void RF24_setPALevel(uint8_t level)
000000 CFDA FFE5      00690         MOVFF   FSR2H, POSTDEC1
000004 CFD9 FFE5      00691         MOVFF   FSR2L, POSTDEC1
000008 CFE2 FFDA      00692         MOVFF   FSR1H, FSR2H
00000C CFE1 FFD9      00693         MOVFF   FSR1L, FSR2L
000010 C??? F???      00694         MOVFF   r0x00, POSTDEC1
000014 C??? F???      00695         MOVFF   r0x01, POSTDEC1
000018 C??? F???      00696         MOVFF   r0x02, POSTDEC1
00001C 0E03           00697         MOVLW   0x03
00001E CFDB F000      00698         MOVFF   PLUSW2, r0x00
                      00699 ;       .line   1431; ../../../RF24_c/RF24_cg.c uint8_t setup = RF24_read_register_d(RF_SETUP) & 0b11111
                            000;
000022 0E06           00700         MOVLW   0x06
gpasm-1.4.0 #1107 (May  9 2015) build/sdcc/pr   12-2-2016  22:31:28         PAGE 15


LOC    OBJECT CODE    LINE  SOURCE TEXT
  VALUE

Message[1301]: Using default destination of 0 (Access Bank).
000024 6EE5           00701         MOVWF   POSTDEC1
000026 EC?? F0??      00702         CALL    _RF24_read_register_d
Message[1301]: Using default destination of 0 (Access Bank).
00002A 6E??           00703         MOVWF   r0x01
00002C 52E6           00704         MOVF    POSTINC1, F
00002E 0EF8           00705         MOVLW   0xf8
000030 16??           00706         ANDWF   r0x01, F
                      00707 ;       .line   1433; ../../../RF24_c/RF24_cg.c if(level > 3){                                          
                                    // If invalid level, go to max PA
000032 0E04           00708         MOVLW   0x04
000034 5C??           00709         SUBWF   r0x00, W
000036 E3??           00710         BNC     _00827_DS_
                      00711 ;       .line   1434; ../../../RF24_c/RF24_cg.c level = (RF24_PA_MAX << 1) + 1;         // +1 to support
                             the SI24R1 chip extra bit
000038 0E07           00712         MOVLW   0x07
Message[1301]: Using default destination of 0 (Access Bank).
00003A 6E??           00713         MOVWF   r0x00
00003C D???           00714         BRA     _00828_DS_
00003E                00715 _00827_DS_:
                      00716 ;       .line   1436; ../../../RF24_c/RF24_cg.c level = (level << 1) + 1;                       // Else 
                            set level as requested
00003E 44??           00717         RLNCF   r0x00, W
000040 0BFE           00718         ANDLW   0xfe
Message[1301]: Using default destination of 0 (Access Bank).
000042 6E??           00719         MOVWF   r0x02
000044 28??           00720         INCF    r0x02, W
Message[1301]: Using default destination of 0 (Access Bank).
000046 6E??           00721         MOVWF   r0x00
000048                00722 _00828_DS_:
                      00723 ;       .line   1440; ../../../RF24_c/RF24_cg.c RF24_write_register_d( RF_SETUP, setup |= level ) ;     
                            // Write it to the chip
000048 50??           00724         MOVF    r0x01, W
00004A 12??           00725         IORWF   r0x00, F
00004C 50??           00726         MOVF    r0x00, W
Message[1301]: Using default destination of 0 (Access Bank).
00004E 6EE5           00727         MOVWF   POSTDEC1
000050 0E06           00728         MOVLW   0x06
Message[1301]: Using default destination of 0 (Access Bank).
000052 6EE5           00729         MOVWF   POSTDEC1
000054 EC?? F0??      00730         CALL    _RF24_write_register_d
000058 52E6           00731         MOVF    POSTINC1, F
00005A 52E6           00732         MOVF    POSTINC1, F
00005C CFE4 F000      00733         MOVFF   PREINC1, r0x02
000060 CFE4 F000      00734         MOVFF   PREINC1, r0x01
000064 CFE4 F000      00735         MOVFF   PREINC1, r0x00
000068 CFE4 FFD9      00736         MOVFF   PREINC1, FSR2L
00006C CFE4 FFDA      00737         MOVFF   PREINC1, FSR2H
000070 0012           00738         RETURN  
                      00739 
                      00740 ; ; Starting pCode block
                      00741 S_RF24_cg__RF24_isValid code
000000                00742 _RF24_isValid:
gpasm-1.4.0 #1107 (May  9 2015) build/sdcc/pr   12-2-2016  22:31:28         PAGE 16


LOC    OBJECT CODE    LINE  SOURCE TEXT
  VALUE

                      00743 ;       .line   1420; ../../../RF24_c/RF24_cg.c uint8_t RF24_isValid(void) 
000000 CFDA FFE5      00744         MOVFF   FSR2H, POSTDEC1
000004 CFD9 FFE5      00745         MOVFF   FSR2L, POSTDEC1
000008 CFE2 FFDA      00746         MOVFF   FSR1H, FSR2H
00000C CFE1 FFD9      00747         MOVFF   FSR1L, FSR2L
000010 C??? F???      00748         MOVFF   r0x00, POSTDEC1
000014 ????           00749         BANKSEL _rf
                      00750 ;       .line   1422; ../../../RF24_c/RF24_cg.c return rf.ce_pin != 0xff && rf.csn_pin != 0xff; 
000016 51??           00751         MOVF    _rf, W, B
000018 0AFF           00752         XORLW   0xff
00001A E0??           00753         BZ      _00812_DS_
00001C                00754 _00819_DS_:
00001C ????           00755         BANKSEL (_rf + 1)
00001E 51??           00756         MOVF    (_rf + 1), W, B
000020 0AFF           00757         XORLW   0xff
000022 E1??           00758         BNZ     _00813_DS_
000024                00759 _00812_DS_:
Message[1301]: Using default destination of 0 (Access Bank).
000024 6A??           00760         CLRF    r0x00
000026 D???           00761         BRA     _00814_DS_
000028                00762 _00813_DS_:
000028 0E01           00763         MOVLW   0x01
Message[1301]: Using default destination of 0 (Access Bank).
00002A 6E??           00764         MOVWF   r0x00
00002C                00765 _00814_DS_:
00002C 50??           00766         MOVF    r0x00, W
00002E CFE4 F000      00767         MOVFF   PREINC1, r0x00
000032 CFE4 FFD9      00768         MOVFF   PREINC1, FSR2L
000036 CFE4 FFDA      00769         MOVFF   PREINC1, FSR2H
00003A 0012           00770         RETURN  
                      00771 
                      00772 ; ; Starting pCode block
                      00773 S_RF24_cg__RF24_testRPD code
000000                00774 _RF24_testRPD:
                      00775 ;       .line   1413; ../../../RF24_c/RF24_cg.c uint8_t RF24_testRPD(void)
000000 CFDA FFE5      00776         MOVFF   FSR2H, POSTDEC1
000004 CFD9 FFE5      00777         MOVFF   FSR2L, POSTDEC1
000008 CFE2 FFDA      00778         MOVFF   FSR1H, FSR2H
00000C CFE1 FFD9      00779         MOVFF   FSR1L, FSR2L
000010 C??? F???      00780         MOVFF   r0x00, POSTDEC1
                      00781 ;       .line   1415; ../../../RF24_c/RF24_cg.c return ( RF24_read_register_d(RPD) & 1 ) ;
000014 0E09           00782         MOVLW   0x09
Message[1301]: Using default destination of 0 (Access Bank).
000016 6EE5           00783         MOVWF   POSTDEC1
000018 EC?? F0??      00784         CALL    _RF24_read_register_d
Message[1301]: Using default destination of 0 (Access Bank).
00001C 6E??           00785         MOVWF   r0x00
00001E 52E6           00786         MOVF    POSTINC1, F
000020 0E01           00787         MOVLW   0x01
000022 16??           00788         ANDWF   r0x00, F
000024 50??           00789         MOVF    r0x00, W
000026 CFE4 F000      00790         MOVFF   PREINC1, r0x00
00002A CFE4 FFD9      00791         MOVFF   PREINC1, FSR2L
gpasm-1.4.0 #1107 (May  9 2015) build/sdcc/pr   12-2-2016  22:31:28         PAGE 17


LOC    OBJECT CODE    LINE  SOURCE TEXT
  VALUE

00002E CFE4 FFDA      00792         MOVFF   PREINC1, FSR2H
000032 0012           00793         RETURN  
                      00794 
                      00795 ; ; Starting pCode block
                      00796 S_RF24_cg__RF24_testCarrier     code
000000                00797 _RF24_testCarrier:
                      00798 ;       .line   1406; ../../../RF24_c/RF24_cg.c uint8_t RF24_testCarrier(void)
000000 CFDA FFE5      00799         MOVFF   FSR2H, POSTDEC1
000004 CFD9 FFE5      00800         MOVFF   FSR2L, POSTDEC1
000008 CFE2 FFDA      00801         MOVFF   FSR1H, FSR2H
00000C CFE1 FFD9      00802         MOVFF   FSR1L, FSR2L
000010 C??? F???      00803         MOVFF   r0x00, POSTDEC1
                      00804 ;       .line   1408; ../../../RF24_c/RF24_cg.c return ( RF24_read_register_d(CD) & 1 );
000014 0E09           00805         MOVLW   0x09
Message[1301]: Using default destination of 0 (Access Bank).
000016 6EE5           00806         MOVWF   POSTDEC1
000018 EC?? F0??      00807         CALL    _RF24_read_register_d
Message[1301]: Using default destination of 0 (Access Bank).
00001C 6E??           00808         MOVWF   r0x00
00001E 52E6           00809         MOVF    POSTINC1, F
000020 0E01           00810         MOVLW   0x01
000022 16??           00811         ANDWF   r0x00, F
000024 50??           00812         MOVF    r0x00, W
000026 CFE4 F000      00813         MOVFF   PREINC1, r0x00
00002A CFE4 FFD9      00814         MOVFF   PREINC1, FSR2L
00002E CFE4 FFDA      00815         MOVFF   PREINC1, FSR2H
000032 0012           00816         RETURN  
                      00817 
                      00818 ; ; Starting pCode block
                      00819 S_RF24_cg__RF24_setAutoAck_p    code
000000                00820 _RF24_setAutoAck_p:
                      00821 ;       .line   1387; ../../../RF24_c/RF24_cg.c void RF24_setAutoAck_p( uint8_t pipe, uint8_t enable )
000000 CFDA FFE5      00822         MOVFF   FSR2H, POSTDEC1
000004 CFD9 FFE5      00823         MOVFF   FSR2L, POSTDEC1
000008 CFE2 FFDA      00824         MOVFF   FSR1H, FSR2H
00000C CFE1 FFD9      00825         MOVFF   FSR1L, FSR2L
000010 C??? F???      00826         MOVFF   r0x00, POSTDEC1
000014 C??? F???      00827         MOVFF   r0x01, POSTDEC1
000018 C??? F???      00828         MOVFF   r0x02, POSTDEC1
00001C 0E03           00829         MOVLW   0x03
00001E CFDB F000      00830         MOVFF   PLUSW2, r0x00
000022 0E04           00831         MOVLW   0x04
000024 CFDB F000      00832         MOVFF   PLUSW2, r0x01
                      00833 ;       .line   1389; ../../../RF24_c/RF24_cg.c if ( pipe <= 6 )
000028 0E07           00834         MOVLW   0x07
00002A 5C??           00835         SUBWF   r0x00, W
00002C E2??           00836         BC      _00782_DS_
                      00837 ;       .line   1391; ../../../RF24_c/RF24_cg.c uint8_t en_aa = RF24_read_register_d( EN_AA ) ;
00002E 0E01           00838         MOVLW   0x01
Message[1301]: Using default destination of 0 (Access Bank).
000030 6EE5           00839         MOVWF   POSTDEC1
000032 EC?? F0??      00840         CALL    _RF24_read_register_d
Message[1301]: Using default destination of 0 (Access Bank).
gpasm-1.4.0 #1107 (May  9 2015) build/sdcc/pr   12-2-2016  22:31:28         PAGE 18


LOC    OBJECT CODE    LINE  SOURCE TEXT
  VALUE

000036 6E??           00841         MOVWF   r0x02
000038 52E6           00842         MOVF    POSTINC1, F
                      00843 ;       .line   1392; ../../../RF24_c/RF24_cg.c if( enable )
00003A 50??           00844         MOVF    r0x01, W
00003C E0??           00845         BZ      _00778_DS_
                      00846 ;       .line   1394; ../../../RF24_c/RF24_cg.c en_aa |= _BV(pipe) ;
00003E 0E01           00847         MOVLW   0x01
Message[1301]: Using default destination of 0 (Access Bank).
000040 6E??           00848         MOVWF   r0x01
000042 50??           00849         MOVF    r0x00, W
000044 E0??           00850         BZ      _00791_DS_
Message[1301]: Using default destination of 0 (Access Bank).
000046 6CE8           00851         NEGF    WREG
000048 90D8           00852         BCF     STATUS, 0
00004A                00853 _00792_DS_:
00004A 36??           00854         RLCF    r0x01, F
00004C 0F01           00855         ADDLW   0x01
00004E E3??           00856         BNC     _00792_DS_
000050                00857 _00791_DS_:
000050 50??           00858         MOVF    r0x01, W
000052 12??           00859         IORWF   r0x02, F
000054 D???           00860         BRA     _00779_DS_
000056                00861 _00778_DS_:
                      00862 ;       .line   1398; ../../../RF24_c/RF24_cg.c en_aa &= ~_BV(pipe) ;
000056 0E01           00863         MOVLW   0x01
Message[1301]: Using default destination of 0 (Access Bank).
000058 6E??           00864         MOVWF   r0x01
00005A 50??           00865         MOVF    r0x00, W
00005C E0??           00866         BZ      _00794_DS_
Message[1301]: Using default destination of 0 (Access Bank).
00005E 6CE8           00867         NEGF    WREG
000060 90D8           00868         BCF     STATUS, 0
000062                00869 _00795_DS_:
000062 36??           00870         RLCF    r0x01, F
000064 0F01           00871         ADDLW   0x01
000066 E3??           00872         BNC     _00795_DS_
000068                00873 _00794_DS_:
000068 1C??           00874         COMF    r0x01, W
Message[1301]: Using default destination of 0 (Access Bank).
00006A 6E??           00875         MOVWF   r0x00
00006C 50??           00876         MOVF    r0x00, W
00006E 16??           00877         ANDWF   r0x02, F
000070                00878 _00779_DS_:
                      00879 ;       .line   1400; ../../../RF24_c/RF24_cg.c RF24_write_register_d( EN_AA, en_aa ) ;
000070 50??           00880         MOVF    r0x02, W
Message[1301]: Using default destination of 0 (Access Bank).
000072 6EE5           00881         MOVWF   POSTDEC1
000074 0E01           00882         MOVLW   0x01
Message[1301]: Using default destination of 0 (Access Bank).
000076 6EE5           00883         MOVWF   POSTDEC1
000078 EC?? F0??      00884         CALL    _RF24_write_register_d
00007C 52E6           00885         MOVF    POSTINC1, F
00007E 52E6           00886         MOVF    POSTINC1, F
gpasm-1.4.0 #1107 (May  9 2015) build/sdcc/pr   12-2-2016  22:31:28         PAGE 19


LOC    OBJECT CODE    LINE  SOURCE TEXT
  VALUE

000080                00887 _00782_DS_:
000080 CFE4 F000      00888         MOVFF   PREINC1, r0x02
000084 CFE4 F000      00889         MOVFF   PREINC1, r0x01
000088 CFE4 F000      00890         MOVFF   PREINC1, r0x00
00008C CFE4 FFD9      00891         MOVFF   PREINC1, FSR2L
000090 CFE4 FFDA      00892         MOVFF   PREINC1, FSR2H
000094 0012           00893         RETURN  
                      00894 
                      00895 ; ; Starting pCode block
                      00896 S_RF24_cg__RF24_setAutoAck      code
000000                00897 _RF24_setAutoAck:
                      00898 ;       .line   1377; ../../../RF24_c/RF24_cg.c void RF24_setAutoAck( uint8_t enable)
000000 CFDA FFE5      00899         MOVFF   FSR2H, POSTDEC1
000004 CFD9 FFE5      00900         MOVFF   FSR2L, POSTDEC1
000008 CFE2 FFDA      00901         MOVFF   FSR1H, FSR2H
00000C CFE1 FFD9      00902         MOVFF   FSR1L, FSR2L
000010 C??? F???      00903         MOVFF   r0x00, POSTDEC1
000014 0E03           00904         MOVLW   0x03
000016 CFDB F000      00905         MOVFF   PLUSW2, r0x00
                      00906 ;       .line   1379; ../../../RF24_c/RF24_cg.c if ( enable )
00001A 50??           00907         MOVF    r0x00, W
00001C E0??           00908         BZ      _00770_DS_
                      00909 ;       .line   1380; ../../../RF24_c/RF24_cg.c RF24_write_register_d(EN_AA, 0b111111);
00001E 0E3F           00910         MOVLW   0x3f
Message[1301]: Using default destination of 0 (Access Bank).
000020 6EE5           00911         MOVWF   POSTDEC1
000022 0E01           00912         MOVLW   0x01
Message[1301]: Using default destination of 0 (Access Bank).
000024 6EE5           00913         MOVWF   POSTDEC1
000026 EC?? F0??      00914         CALL    _RF24_write_register_d
00002A 52E6           00915         MOVF    POSTINC1, F
00002C 52E6           00916         MOVF    POSTINC1, F
00002E D???           00917         BRA     _00772_DS_
000030                00918 _00770_DS_:
                      00919 ;       .line   1382; ../../../RF24_c/RF24_cg.c RF24_write_register_d(EN_AA, 0);
000030 0E00           00920         MOVLW   0x00
Message[1301]: Using default destination of 0 (Access Bank).
000032 6EE5           00921         MOVWF   POSTDEC1
000034 0E01           00922         MOVLW   0x01
Message[1301]: Using default destination of 0 (Access Bank).
000036 6EE5           00923         MOVWF   POSTDEC1
000038 EC?? F0??      00924         CALL    _RF24_write_register_d
00003C 52E6           00925         MOVF    POSTINC1, F
00003E 52E6           00926         MOVF    POSTINC1, F
000040                00927 _00772_DS_:
000040 CFE4 F000      00928         MOVFF   PREINC1, r0x00
000044 CFE4 FFD9      00929         MOVFF   PREINC1, FSR2L
000048 CFE4 FFDA      00930         MOVFF   PREINC1, FSR2H
00004C 0012           00931         RETURN  
                      00932 
                      00933 ; ; Starting pCode block
                      00934 S_RF24_cg__RF24_isPVariant      code
000000                00935 _RF24_isPVariant:
gpasm-1.4.0 #1107 (May  9 2015) build/sdcc/pr   12-2-2016  22:31:28         PAGE 20


LOC    OBJECT CODE    LINE  SOURCE TEXT
  VALUE

                      00936 ;       .line   1370; ../../../RF24_c/RF24_cg.c uint8_t RF24_isPVariant(void)
000000 CFDA FFE5      00937         MOVFF   FSR2H, POSTDEC1
000004 CFD9 FFE5      00938         MOVFF   FSR2L, POSTDEC1
000008 CFE2 FFDA      00939         MOVFF   FSR1H, FSR2H
00000C CFE1 FFD9      00940         MOVFF   FSR1L, FSR2L
000010 ????           00941         BANKSEL (_rf + 4)
                      00942 ;       .line   1372; ../../../RF24_c/RF24_cg.c return rf.p_variant ;
000012 51??           00943         MOVF    (_rf + 4), W, B
000014 CFE4 FFD9      00944         MOVFF   PREINC1, FSR2L
000018 CFE4 FFDA      00945         MOVFF   PREINC1, FSR2H
00001C 0012           00946         RETURN  
                      00947 
                      00948 ; ; Starting pCode block
                      00949 S_RF24_cg__RF24_isAckPayloadAvailable   code
000000                00950 _RF24_isAckPayloadAvailable:
                      00951 ;       .line   1363; ../../../RF24_c/RF24_cg.c uint8_t RF24_isAckPayloadAvailable(void)
000000 CFDA FFE5      00952         MOVFF   FSR2H, POSTDEC1
000004 CFD9 FFE5      00953         MOVFF   FSR2L, POSTDEC1
000008 CFE2 FFDA      00954         MOVFF   FSR1H, FSR2H
00000C CFE1 FFD9      00955         MOVFF   FSR1L, FSR2L
000010 C??? F???      00956         MOVFF   r0x00, POSTDEC1
                      00957 ;       .line   1365; ../../../RF24_c/RF24_cg.c return ! (RF24_read_register_d(FIFO_STATUS) & _BV(RX_EMP
                            TY));
000014 0E17           00958         MOVLW   0x17
Message[1301]: Using default destination of 0 (Access Bank).
000016 6EE5           00959         MOVWF   POSTDEC1
000018 EC?? F0??      00960         CALL    _RF24_read_register_d
Message[1301]: Using default destination of 0 (Access Bank).
00001C 6E??           00961         MOVWF   r0x00
00001E 52E6           00962         MOVF    POSTINC1, F
000020 50??           00963         MOVF    r0x00, W
000022 0B01           00964         ANDLW   0x01
Message[1301]: Using default destination of 0 (Access Bank).
000024 6E??           00965         MOVWF   r0x00
000026 50??           00966         MOVF    r0x00, W
000028 80D8           00967         BSF     STATUS, 0
Message[1301]: Using default destination of 0 (Access Bank).
00002A 66E8           00968         TSTFSZ  WREG
00002C 90D8           00969         BCF     STATUS, 0
Message[1301]: Using default destination of 0 (Access Bank).
00002E 6A??           00970         CLRF    r0x00
000030 36??           00971         RLCF    r0x00, F
000032 50??           00972         MOVF    r0x00, W
000034 CFE4 F000      00973         MOVFF   PREINC1, r0x00
000038 CFE4 FFD9      00974         MOVFF   PREINC1, FSR2L
00003C CFE4 FFDA      00975         MOVFF   PREINC1, FSR2H
000040 0012           00976         RETURN  
                      00977 
                      00978 ; ; Starting pCode block
                      00979 S_RF24_cg__RF24_writeAckPayload code
000000                00980 _RF24_writeAckPayload:
                      00981 ;       .line   1332; ../../../RF24_c/RF24_cg.c void RF24_writeAckPayload(uint8_t pipe, const void* buf,
                             uint8_t len)
gpasm-1.4.0 #1107 (May  9 2015) build/sdcc/pr   12-2-2016  22:31:28         PAGE 21


LOC    OBJECT CODE    LINE  SOURCE TEXT
  VALUE

000000 CFDA FFE5      00982         MOVFF   FSR2H, POSTDEC1
000004 CFD9 FFE5      00983         MOVFF   FSR2L, POSTDEC1
000008 CFE2 FFDA      00984         MOVFF   FSR1H, FSR2H
00000C CFE1 FFD9      00985         MOVFF   FSR1L, FSR2L
000010 C??? F???      00986         MOVFF   r0x00, POSTDEC1
000014 C??? F???      00987         MOVFF   r0x01, POSTDEC1
000018 C??? F???      00988         MOVFF   r0x02, POSTDEC1
00001C C??? F???      00989         MOVFF   r0x03, POSTDEC1
000020 C??? F???      00990         MOVFF   r0x04, POSTDEC1
000024 0E03           00991         MOVLW   0x03
000026 CFDB F000      00992         MOVFF   PLUSW2, r0x00
00002A 0E04           00993         MOVLW   0x04
00002C CFDB F000      00994         MOVFF   PLUSW2, r0x01
000030 0E05           00995         MOVLW   0x05
000032 CFDB F000      00996         MOVFF   PLUSW2, r0x02
000036 0E06           00997         MOVLW   0x06
000038 CFDB F000      00998         MOVFF   PLUSW2, r0x03
00003C 0E07           00999         MOVLW   0x07
00003E CFDB F000      01000         MOVFF   PLUSW2, r0x04
                      01001 ;       .line   1334; ../../../RF24_c/RF24_cg.c const uint8_t* current = (const uint8_t*)(buf);
000042 50??           01002         MOVF    r0x03, W
Message[1301]: Using default destination of 0 (Access Bank).
000044 6E??           01003         MOVWF   r0x03
000046 50??           01004         MOVF    r0x02, W
Message[1301]: Using default destination of 0 (Access Bank).
000048 6E??           01005         MOVWF   r0x02
00004A 50??           01006         MOVF    r0x01, W
Message[1301]: Using default destination of 0 (Access Bank).
00004C 6E??           01007         MOVWF   r0x01
                      01008 ;       .line   1336; ../../../RF24_c/RF24_cg.c uint8_t data_len = rf24_min(len,32);
00004E 0E20           01009         MOVLW   0x20
000050 5C??           01010         SUBWF   r0x04, W
000052 E3??           01011         BNC     _00740_DS_
000054 0E20           01012         MOVLW   0x20
Message[1301]: Using default destination of 0 (Access Bank).
000056 6E??           01013         MOVWF   r0x04
000058                01014 _00740_DS_:
                      01015 ;       .line   1350; ../../../RF24_c/RF24_cg.c RF24_beginTransaction();
000058 EC?? F0??      01016         CALL    _RF24_beginTransaction
                      01017 ;       .line   1351; ../../../RF24_c/RF24_cg.c SPI_transfer(W_ACK_PAYLOAD | ( pipe & 0b111 ) );
00005C 0E07           01018         MOVLW   0x07
00005E 16??           01019         ANDWF   r0x00, F
000060 0EA8           01020         MOVLW   0xa8
000062 12??           01021         IORWF   r0x00, F
000064 50??           01022         MOVF    r0x00, W
Message[1301]: Using default destination of 0 (Access Bank).
000066 6EE5           01023         MOVWF   POSTDEC1
000068 EC?? F0??      01024         CALL    _SPI_transfer
00006C 52E6           01025         MOVF    POSTINC1, F
                      01026 ;       .line   1353; ../../../RF24_c/RF24_cg.c while ( data_len-- )
00006E C??? F???      01027         MOVFF   r0x01, r0x00
000072 C??? F???      01028         MOVFF   r0x02, r0x01
000076 C??? F???      01029         MOVFF   r0x03, r0x02
gpasm-1.4.0 #1107 (May  9 2015) build/sdcc/pr   12-2-2016  22:31:28         PAGE 22


LOC    OBJECT CODE    LINE  SOURCE TEXT
  VALUE

00007A                01030 _00734_DS_:
00007A C??? F???      01031         MOVFF   r0x04, r0x03
00007E 06??           01032         DECF    r0x04, F
000080 50??           01033         MOVF    r0x03, W
000082 E0??           01034         BZ      _00736_DS_
                      01035 ;       .line   1354; ../../../RF24_c/RF24_cg.c SPI_transfer(*current++);
000084 C??? F???      01036         MOVFF   r0x00, FSR0L
000088 C??? F???      01037         MOVFF   r0x01, PRODL
00008C 50??           01038         MOVF    r0x02, W
00008E EC?? F0??      01039         CALL    __gptrget1
Message[1301]: Using default destination of 0 (Access Bank).
000092 6E??           01040         MOVWF   r0x03
000094 2A??           01041         INCF    r0x00, F
000096 E3??           01042         BNC     _00754_DS_
000098 4A??           01043         INFSNZ  r0x01, F
00009A 2A??           01044         INCF    r0x02, F
00009C                01045 _00754_DS_:
00009C 50??           01046         MOVF    r0x03, W
Message[1301]: Using default destination of 0 (Access Bank).
00009E 6EE5           01047         MOVWF   POSTDEC1
0000A0 EC?? F0??      01048         CALL    _SPI_transfer
0000A4 52E6           01049         MOVF    POSTINC1, F
0000A6 D???           01050         BRA     _00734_DS_
0000A8                01051 _00736_DS_:
                      01052 ;       .line   1355; ../../../RF24_c/RF24_cg.c RF24_endTransaction();
0000A8 EC?? F0??      01053         CALL    _RF24_endTransaction
0000AC CFE4 F000      01054         MOVFF   PREINC1, r0x04
0000B0 CFE4 F000      01055         MOVFF   PREINC1, r0x03
0000B4 CFE4 F000      01056         MOVFF   PREINC1, r0x02
0000B8 CFE4 F000      01057         MOVFF   PREINC1, r0x01
0000BC CFE4 F000      01058         MOVFF   PREINC1, r0x00
0000C0 CFE4 FFD9      01059         MOVFF   PREINC1, FSR2L
0000C4 CFE4 FFDA      01060         MOVFF   PREINC1, FSR2H
0000C8 0012           01061         RETURN  
                      01062 
                      01063 ; ; Starting pCode block
                      01064 S_RF24_cg__RF24_enableDynamicAck        code
000000                01065 _RF24_enableDynamicAck:
                      01066 ;       .line   1318; ../../../RF24_c/RF24_cg.c void RF24_enableDynamicAck(void){
000000 CFDA FFE5      01067         MOVFF   FSR2H, POSTDEC1
000004 CFD9 FFE5      01068         MOVFF   FSR2L, POSTDEC1
000008 CFE2 FFDA      01069         MOVFF   FSR1H, FSR2H
00000C CFE1 FFD9      01070         MOVFF   FSR1L, FSR2L
000010 C??? F???      01071         MOVFF   r0x00, POSTDEC1
                      01072 ;       .line   1323; ../../../RF24_c/RF24_cg.c RF24_write_register_d(FEATURE,RF24_read_register_d(FEATU
                            RE) | _BV(EN_DYN_ACK) );
000014 0E1D           01073         MOVLW   0x1d
Message[1301]: Using default destination of 0 (Access Bank).
000016 6EE5           01074         MOVWF   POSTDEC1
000018 EC?? F0??      01075         CALL    _RF24_read_register_d
Message[1301]: Using default destination of 0 (Access Bank).
00001C 6E??           01076         MOVWF   r0x00
00001E 52E6           01077         MOVF    POSTINC1, F
gpasm-1.4.0 #1107 (May  9 2015) build/sdcc/pr   12-2-2016  22:31:28         PAGE 23


LOC    OBJECT CODE    LINE  SOURCE TEXT
  VALUE

000020 80??           01078         BSF     r0x00, 0
000022 50??           01079         MOVF    r0x00, W
Message[1301]: Using default destination of 0 (Access Bank).
000024 6EE5           01080         MOVWF   POSTDEC1
000026 0E1D           01081         MOVLW   0x1d
Message[1301]: Using default destination of 0 (Access Bank).
000028 6EE5           01082         MOVWF   POSTDEC1
00002A EC?? F0??      01083         CALL    _RF24_write_register_d
00002E 52E6           01084         MOVF    POSTINC1, F
000030 52E6           01085         MOVF    POSTINC1, F
000032 CFE4 F000      01086         MOVFF   PREINC1, r0x00
000036 CFE4 FFD9      01087         MOVFF   PREINC1, FSR2L
00003A CFE4 FFDA      01088         MOVFF   PREINC1, FSR2H
00003E 0012           01089         RETURN  
                      01090 
                      01091 ; ; Starting pCode block
                      01092 S_RF24_cg__RF24_enableAckPayload        code
000000                01093 _RF24_enableAckPayload:
                      01094 ;       .line   1297; ../../../RF24_c/RF24_cg.c void RF24_enableAckPayload(void)
000000 CFDA FFE5      01095         MOVFF   FSR2H, POSTDEC1
000004 CFD9 FFE5      01096         MOVFF   FSR2L, POSTDEC1
000008 CFE2 FFDA      01097         MOVFF   FSR1H, FSR2H
00000C CFE1 FFD9      01098         MOVFF   FSR1L, FSR2L
000010 C??? F???      01099         MOVFF   r0x00, POSTDEC1
                      01100 ;       .line   1304; ../../../RF24_c/RF24_cg.c RF24_write_register_d(FEATURE,RF24_read_register_d(FEATU
                            RE) | _BV(EN_ACK_PAY) | _BV(EN_DPL) );
000014 0E1D           01101         MOVLW   0x1d
Message[1301]: Using default destination of 0 (Access Bank).
000016 6EE5           01102         MOVWF   POSTDEC1
000018 EC?? F0??      01103         CALL    _RF24_read_register_d
Message[1301]: Using default destination of 0 (Access Bank).
00001C 6E??           01104         MOVWF   r0x00
00001E 52E6           01105         MOVF    POSTINC1, F
000020 0E06           01106         MOVLW   0x06
000022 12??           01107         IORWF   r0x00, F
000024 50??           01108         MOVF    r0x00, W
Message[1301]: Using default destination of 0 (Access Bank).
000026 6EE5           01109         MOVWF   POSTDEC1
000028 0E1D           01110         MOVLW   0x1d
Message[1301]: Using default destination of 0 (Access Bank).
00002A 6EE5           01111         MOVWF   POSTDEC1
00002C EC?? F0??      01112         CALL    _RF24_write_register_d
000030 52E6           01113         MOVF    POSTINC1, F
000032 52E6           01114         MOVF    POSTINC1, F
                      01115 ;       .line   1312; ../../../RF24_c/RF24_cg.c RF24_write_register_d(DYNPD,RF24_read_register_d(DYNPD) 
                            | _BV(DPL_P1) | _BV(DPL_P0));
000034 0E1C           01116         MOVLW   0x1c
Message[1301]: Using default destination of 0 (Access Bank).
000036 6EE5           01117         MOVWF   POSTDEC1
000038 EC?? F0??      01118         CALL    _RF24_read_register_d
Message[1301]: Using default destination of 0 (Access Bank).
00003C 6E??           01119         MOVWF   r0x00
00003E 52E6           01120         MOVF    POSTINC1, F
gpasm-1.4.0 #1107 (May  9 2015) build/sdcc/pr   12-2-2016  22:31:28         PAGE 24


LOC    OBJECT CODE    LINE  SOURCE TEXT
  VALUE

000040 0E03           01121         MOVLW   0x03
000042 12??           01122         IORWF   r0x00, F
000044 50??           01123         MOVF    r0x00, W
Message[1301]: Using default destination of 0 (Access Bank).
000046 6EE5           01124         MOVWF   POSTDEC1
000048 0E1C           01125         MOVLW   0x1c
Message[1301]: Using default destination of 0 (Access Bank).
00004A 6EE5           01126         MOVWF   POSTDEC1
00004C EC?? F0??      01127         CALL    _RF24_write_register_d
000050 52E6           01128         MOVF    POSTINC1, F
000052 52E6           01129         MOVF    POSTINC1, F
                      01130 ;       .line   1313; ../../../RF24_c/RF24_cg.c rf.dynamic_payloads_enabled = 1;
000054 0E01           01131         MOVLW   0x01
000056 ????           01132         BANKSEL (_rf + 6)
000058 6F??           01133         MOVWF   (_rf + 6), B
00005A CFE4 F000      01134         MOVFF   PREINC1, r0x00
00005E CFE4 FFD9      01135         MOVFF   PREINC1, FSR2L
000062 CFE4 FFDA      01136         MOVFF   PREINC1, FSR2H
000066 0012           01137         RETURN  
                      01138 
                      01139 ; ; Starting pCode block
                      01140 S_RF24_cg__RF24_enableDynamicPayloads   code
000000                01141 _RF24_enableDynamicPayloads:
                      01142 ;       .line   1276; ../../../RF24_c/RF24_cg.c void RF24_enableDynamicPayloads(void)
000000 CFDA FFE5      01143         MOVFF   FSR2H, POSTDEC1
000004 CFD9 FFE5      01144         MOVFF   FSR2L, POSTDEC1
000008 CFE2 FFDA      01145         MOVFF   FSR1H, FSR2H
00000C CFE1 FFD9      01146         MOVFF   FSR1L, FSR2L
000010 C??? F???      01147         MOVFF   r0x00, POSTDEC1
                      01148 ;       .line   1281; ../../../RF24_c/RF24_cg.c RF24_write_register_d(FEATURE,RF24_read_register_d(FEATU
                            RE) | _BV(EN_DPL) );
000014 0E1D           01149         MOVLW   0x1d
Message[1301]: Using default destination of 0 (Access Bank).
000016 6EE5           01150         MOVWF   POSTDEC1
000018 EC?? F0??      01151         CALL    _RF24_read_register_d
Message[1301]: Using default destination of 0 (Access Bank).
00001C 6E??           01152         MOVWF   r0x00
00001E 52E6           01153         MOVF    POSTINC1, F
000020 84??           01154         BSF     r0x00, 2
000022 50??           01155         MOVF    r0x00, W
Message[1301]: Using default destination of 0 (Access Bank).
000024 6EE5           01156         MOVWF   POSTDEC1
000026 0E1D           01157         MOVLW   0x1d
Message[1301]: Using default destination of 0 (Access Bank).
000028 6EE5           01158         MOVWF   POSTDEC1
00002A EC?? F0??      01159         CALL    _RF24_write_register_d
00002E 52E6           01160         MOVF    POSTINC1, F
000030 52E6           01161         MOVF    POSTINC1, F
                      01162 ;       .line   1290; ../../../RF24_c/RF24_cg.c RF24_write_register_d(DYNPD,RF24_read_register_d(DYNPD) 
                            | _BV(DPL_P5) | _BV(DPL_P4) | _BV(DPL_P3) | _BV(DPL_P2) | _BV(DPL_P1) | _BV(DPL_P0));
000032 0E1C           01163         MOVLW   0x1c
Message[1301]: Using default destination of 0 (Access Bank).
000034 6EE5           01164         MOVWF   POSTDEC1
gpasm-1.4.0 #1107 (May  9 2015) build/sdcc/pr   12-2-2016  22:31:28         PAGE 25


LOC    OBJECT CODE    LINE  SOURCE TEXT
  VALUE

000036 EC?? F0??      01165         CALL    _RF24_read_register_d
Message[1301]: Using default destination of 0 (Access Bank).
00003A 6E??           01166         MOVWF   r0x00
00003C 52E6           01167         MOVF    POSTINC1, F
00003E 0E3F           01168         MOVLW   0x3f
000040 12??           01169         IORWF   r0x00, F
000042 50??           01170         MOVF    r0x00, W
Message[1301]: Using default destination of 0 (Access Bank).
000044 6EE5           01171         MOVWF   POSTDEC1
000046 0E1C           01172         MOVLW   0x1c
Message[1301]: Using default destination of 0 (Access Bank).
000048 6EE5           01173         MOVWF   POSTDEC1
00004A EC?? F0??      01174         CALL    _RF24_write_register_d
00004E 52E6           01175         MOVF    POSTINC1, F
000050 52E6           01176         MOVF    POSTINC1, F
                      01177 ;       .line   1292; ../../../RF24_c/RF24_cg.c rf.dynamic_payloads_enabled = 1;
000052 0E01           01178         MOVLW   0x01
000054 ????           01179         BANKSEL (_rf + 6)
000056 6F??           01180         MOVWF   (_rf + 6), B
000058 CFE4 F000      01181         MOVFF   PREINC1, r0x00
00005C CFE4 FFD9      01182         MOVFF   PREINC1, FSR2L
000060 CFE4 FFDA      01183         MOVFF   PREINC1, FSR2H
000064 0012           01184         RETURN  
                      01185 
                      01186 ; ; Starting pCode block
                      01187 S_RF24_cg__RF24_toggle_features_d       code
000000                01188 _RF24_toggle_features_d:
                      01189 ;       .line   1266; ../../../RF24_c/RF24_cg.c void RF24_toggle_features_d(void)
000000 CFDA FFE5      01190         MOVFF   FSR2H, POSTDEC1
000004 CFD9 FFE5      01191         MOVFF   FSR2L, POSTDEC1
000008 CFE2 FFDA      01192         MOVFF   FSR1H, FSR2H
00000C CFE1 FFD9      01193         MOVFF   FSR1L, FSR2L
                      01194 ;       .line   1268; ../../../RF24_c/RF24_cg.c RF24_beginTransaction();
000010 EC?? F0??      01195         CALL    _RF24_beginTransaction
                      01196 ;       .line   1269; ../../../RF24_c/RF24_cg.c SPI_transfer( ACTIVATE );
000014 0E50           01197         MOVLW   0x50
Message[1301]: Using default destination of 0 (Access Bank).
000016 6EE5           01198         MOVWF   POSTDEC1
000018 EC?? F0??      01199         CALL    _SPI_transfer
00001C 52E6           01200         MOVF    POSTINC1, F
                      01201 ;       .line   1270; ../../../RF24_c/RF24_cg.c SPI_transfer( 0x73 );
00001E 0E73           01202         MOVLW   0x73
Message[1301]: Using default destination of 0 (Access Bank).
000020 6EE5           01203         MOVWF   POSTDEC1
000022 EC?? F0??      01204         CALL    _SPI_transfer
000026 52E6           01205         MOVF    POSTINC1, F
                      01206 ;       .line   1271; ../../../RF24_c/RF24_cg.c RF24_endTransaction();
000028 EC?? F0??      01207         CALL    _RF24_endTransaction
00002C CFE4 FFD9      01208         MOVFF   PREINC1, FSR2L
000030 CFE4 FFDA      01209         MOVFF   PREINC1, FSR2H
000034 0012           01210         RETURN  
                      01211 
                      01212 ; ; Starting pCode block
gpasm-1.4.0 #1107 (May  9 2015) build/sdcc/pr   12-2-2016  22:31:28         PAGE 26


LOC    OBJECT CODE    LINE  SOURCE TEXT
  VALUE

                      01213 S_RF24_cg__RF24_closeReadingPipe        code
000000                01214 _RF24_closeReadingPipe:
                      01215 ;       .line   1259; ../../../RF24_c/RF24_cg.c void RF24_closeReadingPipe(uint8_t pipe )
000000 CFDA FFE5      01216         MOVFF   FSR2H, POSTDEC1
000004 CFD9 FFE5      01217         MOVFF   FSR2L, POSTDEC1
000008 CFE2 FFDA      01218         MOVFF   FSR1H, FSR2H
00000C CFE1 FFD9      01219         MOVFF   FSR1L, FSR2L
000010 C??? F???      01220         MOVFF   r0x00, POSTDEC1
000014 C??? F???      01221         MOVFF   r0x01, POSTDEC1
000018 C??? F???      01222         MOVFF   r0x02, POSTDEC1
00001C C??? F???      01223         MOVFF   r0x03, POSTDEC1
000020 0E03           01224         MOVLW   0x03
000022 CFDB F000      01225         MOVFF   PLUSW2, r0x00
                      01226 ;       .line   1261; ../../../RF24_c/RF24_cg.c RF24_write_register_d(EN_RXADDR,RF24_read_register_d(EN_
                            RXADDR) & ~_BV(pgm_read_byte(&child_pipe_enable[pipe])));
000026 0E02           01227         MOVLW   0x02
Message[1301]: Using default destination of 0 (Access Bank).
000028 6EE5           01228         MOVWF   POSTDEC1
00002A EC?? F0??      01229         CALL    _RF24_read_register_d
Message[1301]: Using default destination of 0 (Access Bank).
00002E 6E??           01230         MOVWF   r0x01
000030 52E6           01231         MOVF    POSTINC1, F
Message[1301]: Using default destination of 0 (Access Bank).
000032 6A??           01232         CLRF    r0x02
Message[1301]: Using default destination of 0 (Access Bank).
000034 6A??           01233         CLRF    r0x03
000036 0E??           01234         MOVLW   LOW(_child_pipe_enable)
000038 26??           01235         ADDWF   r0x00, F
00003A 0E??           01236         MOVLW   HIGH(_child_pipe_enable)
00003C 22??           01237         ADDWFC  r0x02, F
00003E 0E??           01238         MOVLW   UPPER(_child_pipe_enable)
000040 22??           01239         ADDWFC  r0x03, F
000042 C??? F???      01240         MOVFF   r0x00, TBLPTRL
000046 C??? F???      01241         MOVFF   r0x02, TBLPTRH
00004A C??? F???      01242         MOVFF   r0x03, TBLPTRU
00004E 0009           01243         TBLRD*+ 
000050 CFF5 F000      01244         MOVFF   TABLAT, r0x00
000054 0E01           01245         MOVLW   0x01
Message[1301]: Using default destination of 0 (Access Bank).
000056 6E??           01246         MOVWF   r0x02
000058 50??           01247         MOVF    r0x00, W
00005A E0??           01248         BZ      _00708_DS_
Message[1301]: Using default destination of 0 (Access Bank).
00005C 6CE8           01249         NEGF    WREG
00005E 90D8           01250         BCF     STATUS, 0
000060                01251 _00709_DS_:
000060 36??           01252         RLCF    r0x02, F
000062 0F01           01253         ADDLW   0x01
000064 E3??           01254         BNC     _00709_DS_
000066                01255 _00708_DS_:
000066 1C??           01256         COMF    r0x02, W
Message[1301]: Using default destination of 0 (Access Bank).
000068 6E??           01257         MOVWF   r0x00
gpasm-1.4.0 #1107 (May  9 2015) build/sdcc/pr   12-2-2016  22:31:28         PAGE 27


LOC    OBJECT CODE    LINE  SOURCE TEXT
  VALUE

00006A 50??           01258         MOVF    r0x00, W
00006C 16??           01259         ANDWF   r0x01, F
00006E 50??           01260         MOVF    r0x01, W
Message[1301]: Using default destination of 0 (Access Bank).
000070 6EE5           01261         MOVWF   POSTDEC1
000072 0E02           01262         MOVLW   0x02
Message[1301]: Using default destination of 0 (Access Bank).
000074 6EE5           01263         MOVWF   POSTDEC1
000076 EC?? F0??      01264         CALL    _RF24_write_register_d
00007A 52E6           01265         MOVF    POSTINC1, F
00007C 52E6           01266         MOVF    POSTINC1, F
00007E CFE4 F000      01267         MOVFF   PREINC1, r0x03
000082 CFE4 F000      01268         MOVFF   PREINC1, r0x02
000086 CFE4 F000      01269         MOVFF   PREINC1, r0x01
00008A CFE4 F000      01270         MOVFF   PREINC1, r0x00
00008E CFE4 FFD9      01271         MOVFF   PREINC1, FSR2L
000092 CFE4 FFDA      01272         MOVFF   PREINC1, FSR2H
000096 0012           01273         RETURN  
                      01274 
                      01275 ; ; Starting pCode block
                      01276 S_RF24_cg__RF24_openReadingPipe code
000000                01277 _RF24_openReadingPipe:
                      01278 ;       .line   1231; ../../../RF24_c/RF24_cg.c void RF24_openReadingPipe(uint8_t child, const uint8_t *
                            address)
000000 CFDA FFE5      01279         MOVFF   FSR2H, POSTDEC1
000004 CFD9 FFE5      01280         MOVFF   FSR2L, POSTDEC1
000008 CFE2 FFDA      01281         MOVFF   FSR1H, FSR2H
00000C CFE1 FFD9      01282         MOVFF   FSR1L, FSR2L
000010 C??? F???      01283         MOVFF   r0x00, POSTDEC1
000014 C??? F???      01284         MOVFF   r0x01, POSTDEC1
000018 C??? F???      01285         MOVFF   r0x02, POSTDEC1
00001C C??? F???      01286         MOVFF   r0x03, POSTDEC1
000020 C??? F???      01287         MOVFF   r0x04, POSTDEC1
000024 C??? F???      01288         MOVFF   r0x05, POSTDEC1
000028 C??? F???      01289         MOVFF   r0x06, POSTDEC1
00002C C??? F???      01290         MOVFF   r0x07, POSTDEC1
000030 C??? F???      01291         MOVFF   r0x08, POSTDEC1
000034 C??? F???      01292         MOVFF   r0x09, POSTDEC1
000038 C??? F???      01293         MOVFF   r0x0a, POSTDEC1
00003C C??? F???      01294         MOVFF   r0x0b, POSTDEC1
000040 0E03           01295         MOVLW   0x03
000042 CFDB F000      01296         MOVFF   PLUSW2, r0x00
000046 0E04           01297         MOVLW   0x04
000048 CFDB F000      01298         MOVFF   PLUSW2, r0x01
00004C 0E05           01299         MOVLW   0x05
00004E CFDB F000      01300         MOVFF   PLUSW2, r0x02
000052 0E06           01301         MOVLW   0x06
000054 CFDB F000      01302         MOVFF   PLUSW2, r0x03
                      01303 ;       .line   1236; ../../../RF24_c/RF24_cg.c if (child == 0){
000058 50??           01304         MOVF    r0x00, W
00005A E1??           01305         BNZ     _00681_DS_
                      01306 ;       .line   1237; ../../../RF24_c/RF24_cg.c memcpy(rf.pipe0_reading_address,address,rf.addr_width);
00005C 0E??           01307         MOVLW   HIGH(_rf + 7)
gpasm-1.4.0 #1107 (May  9 2015) build/sdcc/pr   12-2-2016  22:31:28         PAGE 28


LOC    OBJECT CODE    LINE  SOURCE TEXT
  VALUE

Message[1301]: Using default destination of 0 (Access Bank).
00005E 6E??           01308         MOVWF   r0x05
000060 0E??           01309         MOVLW   LOW(_rf + 7)
Message[1301]: Using default destination of 0 (Access Bank).
000062 6E??           01310         MOVWF   r0x04
000064 0E80           01311         MOVLW   0x80
Message[1301]: Using default destination of 0 (Access Bank).
000066 6E??           01312         MOVWF   r0x06
000068 50??           01313         MOVF    r0x03, W
Message[1301]: Using default destination of 0 (Access Bank).
00006A 6E??           01314         MOVWF   r0x09
00006C 50??           01315         MOVF    r0x02, W
Message[1301]: Using default destination of 0 (Access Bank).
00006E 6E??           01316         MOVWF   r0x08
000070 50??           01317         MOVF    r0x01, W
Message[1301]: Using default destination of 0 (Access Bank).
000072 6E??           01318         MOVWF   r0x07
000074 C??? F???      01319         MOVFF   (_rf + 12), r0x0a
Message[1301]: Using default destination of 0 (Access Bank).
000078 6A??           01320         CLRF    r0x0b
00007A 50??           01321         MOVF    r0x0b, W
Message[1301]: Using default destination of 0 (Access Bank).
00007C 6EE5           01322         MOVWF   POSTDEC1
00007E 50??           01323         MOVF    r0x0a, W
Message[1301]: Using default destination of 0 (Access Bank).
000080 6EE5           01324         MOVWF   POSTDEC1
000082 50??           01325         MOVF    r0x09, W
Message[1301]: Using default destination of 0 (Access Bank).
000084 6EE5           01326         MOVWF   POSTDEC1
000086 50??           01327         MOVF    r0x08, W
Message[1301]: Using default destination of 0 (Access Bank).
000088 6EE5           01328         MOVWF   POSTDEC1
00008A 50??           01329         MOVF    r0x07, W
Message[1301]: Using default destination of 0 (Access Bank).
00008C 6EE5           01330         MOVWF   POSTDEC1
00008E 50??           01331         MOVF    r0x06, W
Message[1301]: Using default destination of 0 (Access Bank).
000090 6EE5           01332         MOVWF   POSTDEC1
000092 50??           01333         MOVF    r0x05, W
Message[1301]: Using default destination of 0 (Access Bank).
000094 6EE5           01334         MOVWF   POSTDEC1
000096 50??           01335         MOVF    r0x04, W
Message[1301]: Using default destination of 0 (Access Bank).
000098 6EE5           01336         MOVWF   POSTDEC1
00009A EC?? F0??      01337         CALL    _memcpy
00009E 0E08           01338         MOVLW   0x08
0000A0 26E1           01339         ADDWF   FSR1L, F
0000A2 B0D8           01340         BTFSC   STATUS, 0
0000A4 2AE2           01341         INCF    FSR1H, F
0000A6                01342 _00681_DS_:
                      01343 ;       .line   1239; ../../../RF24_c/RF24_cg.c if (child <= 6)
0000A6 0E07           01344         MOVLW   0x07
0000A8 5C??           01345         SUBWF   r0x00, W
gpasm-1.4.0 #1107 (May  9 2015) build/sdcc/pr   12-2-2016  22:31:28         PAGE 29


LOC    OBJECT CODE    LINE  SOURCE TEXT
  VALUE

0000AA B0D8           01346         BTFSC   STATUS, 0
0000AC D???           01347         BRA     _00687_DS_
                      01348 ;       .line   1242; ../../../RF24_c/RF24_cg.c if ( child < 2 ){
0000AE 0E02           01349         MOVLW   0x02
0000B0 5C??           01350         SUBWF   r0x00, W
0000B2 E2??           01351         BC      _00683_DS_
                      01352 ;       .line   1243; ../../../RF24_c/RF24_cg.c RF24_write_register_c_d(pgm_read_byte(&child_pipe[child]
                            ), address, rf.addr_width);
0000B4 0E??           01353         MOVLW   LOW(_child_pipe)
0000B6 24??           01354         ADDWF   r0x00, W
Message[1301]: Using default destination of 0 (Access Bank).
0000B8 6E??           01355         MOVWF   r0x04
Message[1301]: Using default destination of 0 (Access Bank).
0000BA 6A??           01356         CLRF    r0x05
0000BC 0E??           01357         MOVLW   HIGH(_child_pipe)
0000BE 22??           01358         ADDWFC  r0x05, F
Message[1301]: Using default destination of 0 (Access Bank).
0000C0 6A??           01359         CLRF    r0x06
0000C2 0E??           01360         MOVLW   UPPER(_child_pipe)
0000C4 22??           01361         ADDWFC  r0x06, F
0000C6 C??? F???      01362         MOVFF   r0x04, TBLPTRL
0000CA C??? F???      01363         MOVFF   r0x05, TBLPTRH
0000CE C??? F???      01364         MOVFF   r0x06, TBLPTRU
0000D2 0009           01365         TBLRD*+ 
0000D4 CFF5 F000      01366         MOVFF   TABLAT, r0x04
0000D8 ????           01367         BANKSEL (_rf + 12)
0000DA 51??           01368         MOVF    (_rf + 12), W, B
Message[1301]: Using default destination of 0 (Access Bank).
0000DC 6EE5           01369         MOVWF   POSTDEC1
0000DE 50??           01370         MOVF    r0x03, W
Message[1301]: Using default destination of 0 (Access Bank).
0000E0 6EE5           01371         MOVWF   POSTDEC1
0000E2 50??           01372         MOVF    r0x02, W
Message[1301]: Using default destination of 0 (Access Bank).
0000E4 6EE5           01373         MOVWF   POSTDEC1
0000E6 50??           01374         MOVF    r0x01, W
Message[1301]: Using default destination of 0 (Access Bank).
0000E8 6EE5           01375         MOVWF   POSTDEC1
0000EA 50??           01376         MOVF    r0x04, W
Message[1301]: Using default destination of 0 (Access Bank).
0000EC 6EE5           01377         MOVWF   POSTDEC1
0000EE EC?? F0??      01378         CALL    _RF24_write_register_c_d
0000F2 0E05           01379         MOVLW   0x05
0000F4 26E1           01380         ADDWF   FSR1L, F
0000F6 B0D8           01381         BTFSC   STATUS, 0
0000F8 2AE2           01382         INCF    FSR1H, F
0000FA D???           01383         BRA     _00684_DS_
0000FC                01384 _00683_DS_:
                      01385 ;       .line   1245; ../../../RF24_c/RF24_cg.c RF24_write_register_c_d(pgm_read_byte(&child_pipe[child]
                            ), address, 1);
0000FC 0E??           01386         MOVLW   LOW(_child_pipe)
0000FE 24??           01387         ADDWF   r0x00, W
Message[1301]: Using default destination of 0 (Access Bank).
gpasm-1.4.0 #1107 (May  9 2015) build/sdcc/pr   12-2-2016  22:31:28         PAGE 30


LOC    OBJECT CODE    LINE  SOURCE TEXT
  VALUE

000100 6E??           01388         MOVWF   r0x04
Message[1301]: Using default destination of 0 (Access Bank).
000102 6A??           01389         CLRF    r0x05
000104 0E??           01390         MOVLW   HIGH(_child_pipe)
000106 22??           01391         ADDWFC  r0x05, F
Message[1301]: Using default destination of 0 (Access Bank).
000108 6A??           01392         CLRF    r0x06
00010A 0E??           01393         MOVLW   UPPER(_child_pipe)
00010C 22??           01394         ADDWFC  r0x06, F
00010E C??? F???      01395         MOVFF   r0x04, TBLPTRL
000112 C??? F???      01396         MOVFF   r0x05, TBLPTRH
000116 C??? F???      01397         MOVFF   r0x06, TBLPTRU
00011A 0009           01398         TBLRD*+ 
00011C CFF5 F000      01399         MOVFF   TABLAT, r0x04
000120 0E01           01400         MOVLW   0x01
Message[1301]: Using default destination of 0 (Access Bank).
000122 6EE5           01401         MOVWF   POSTDEC1
000124 50??           01402         MOVF    r0x03, W
Message[1301]: Using default destination of 0 (Access Bank).
000126 6EE5           01403         MOVWF   POSTDEC1
000128 50??           01404         MOVF    r0x02, W
Message[1301]: Using default destination of 0 (Access Bank).
00012A 6EE5           01405         MOVWF   POSTDEC1
00012C 50??           01406         MOVF    r0x01, W
Message[1301]: Using default destination of 0 (Access Bank).
00012E 6EE5           01407         MOVWF   POSTDEC1
000130 50??           01408         MOVF    r0x04, W
Message[1301]: Using default destination of 0 (Access Bank).
000132 6EE5           01409         MOVWF   POSTDEC1
000134 EC?? F0??      01410         CALL    _RF24_write_register_c_d
000138 0E05           01411         MOVLW   0x05
00013A 26E1           01412         ADDWF   FSR1L, F
00013C B0D8           01413         BTFSC   STATUS, 0
00013E 2AE2           01414         INCF    FSR1H, F
000140                01415 _00684_DS_:
                      01416 ;       .line   1247; ../../../RF24_c/RF24_cg.c RF24_write_register_d(pgm_read_byte(&child_payload_size[
                            child]),rf.payload_size);
000140 0E??           01417         MOVLW   LOW(_child_payload_size)
000142 24??           01418         ADDWF   r0x00, W
Message[1301]: Using default destination of 0 (Access Bank).
000144 6E??           01419         MOVWF   r0x01
Message[1301]: Using default destination of 0 (Access Bank).
000146 6A??           01420         CLRF    r0x02
000148 0E??           01421         MOVLW   HIGH(_child_payload_size)
00014A 22??           01422         ADDWFC  r0x02, F
Message[1301]: Using default destination of 0 (Access Bank).
00014C 6A??           01423         CLRF    r0x03
00014E 0E??           01424         MOVLW   UPPER(_child_payload_size)
000150 22??           01425         ADDWFC  r0x03, F
000152 C??? F???      01426         MOVFF   r0x01, TBLPTRL
000156 C??? F???      01427         MOVFF   r0x02, TBLPTRH
00015A C??? F???      01428         MOVFF   r0x03, TBLPTRU
00015E 0009           01429         TBLRD*+ 
gpasm-1.4.0 #1107 (May  9 2015) build/sdcc/pr   12-2-2016  22:31:28         PAGE 31


LOC    OBJECT CODE    LINE  SOURCE TEXT
  VALUE

000160 CFF5 F000      01430         MOVFF   TABLAT, r0x01
000164 ????           01431         BANKSEL (_rf + 5)
000166 51??           01432         MOVF    (_rf + 5), W, B
Message[1301]: Using default destination of 0 (Access Bank).
000168 6EE5           01433         MOVWF   POSTDEC1
00016A 50??           01434         MOVF    r0x01, W
Message[1301]: Using default destination of 0 (Access Bank).
00016C 6EE5           01435         MOVWF   POSTDEC1
00016E EC?? F0??      01436         CALL    _RF24_write_register_d
000172 52E6           01437         MOVF    POSTINC1, F
000174 52E6           01438         MOVF    POSTINC1, F
                      01439 ;       .line   1252; ../../../RF24_c/RF24_cg.c RF24_write_register_d(EN_RXADDR,RF24_read_register_d(EN_
                            RXADDR) | _BV(pgm_read_byte(&child_pipe_enable[child])));
000176 0E02           01440         MOVLW   0x02
Message[1301]: Using default destination of 0 (Access Bank).
000178 6EE5           01441         MOVWF   POSTDEC1
00017A EC?? F0??      01442         CALL    _RF24_read_register_d
Message[1301]: Using default destination of 0 (Access Bank).
00017E 6E??           01443         MOVWF   r0x01
000180 52E6           01444         MOVF    POSTINC1, F
Message[1301]: Using default destination of 0 (Access Bank).
000182 6A??           01445         CLRF    r0x02
Message[1301]: Using default destination of 0 (Access Bank).
000184 6A??           01446         CLRF    r0x03
000186 0E??           01447         MOVLW   LOW(_child_pipe_enable)
000188 26??           01448         ADDWF   r0x00, F
00018A 0E??           01449         MOVLW   HIGH(_child_pipe_enable)
00018C 22??           01450         ADDWFC  r0x02, F
00018E 0E??           01451         MOVLW   UPPER(_child_pipe_enable)
000190 22??           01452         ADDWFC  r0x03, F
000192 C??? F???      01453         MOVFF   r0x00, TBLPTRL
000196 C??? F???      01454         MOVFF   r0x02, TBLPTRH
00019A C??? F???      01455         MOVFF   r0x03, TBLPTRU
00019E 0009           01456         TBLRD*+ 
0001A0 CFF5 F000      01457         MOVFF   TABLAT, r0x00
0001A4 0E01           01458         MOVLW   0x01
Message[1301]: Using default destination of 0 (Access Bank).
0001A6 6E??           01459         MOVWF   r0x02
0001A8 50??           01460         MOVF    r0x00, W
0001AA E0??           01461         BZ      _00700_DS_
Message[1301]: Using default destination of 0 (Access Bank).
0001AC 6CE8           01462         NEGF    WREG
0001AE 90D8           01463         BCF     STATUS, 0
0001B0                01464 _00701_DS_:
0001B0 36??           01465         RLCF    r0x02, F
0001B2 0F01           01466         ADDLW   0x01
0001B4 E3??           01467         BNC     _00701_DS_
0001B6                01468 _00700_DS_:
0001B6 50??           01469         MOVF    r0x02, W
0001B8 12??           01470         IORWF   r0x01, F
0001BA 50??           01471         MOVF    r0x01, W
Message[1301]: Using default destination of 0 (Access Bank).
0001BC 6EE5           01472         MOVWF   POSTDEC1
gpasm-1.4.0 #1107 (May  9 2015) build/sdcc/pr   12-2-2016  22:31:28         PAGE 32


LOC    OBJECT CODE    LINE  SOURCE TEXT
  VALUE

0001BE 0E02           01473         MOVLW   0x02
Message[1301]: Using default destination of 0 (Access Bank).
0001C0 6EE5           01474         MOVWF   POSTDEC1
0001C2 EC?? F0??      01475         CALL    _RF24_write_register_d
0001C6 52E6           01476         MOVF    POSTINC1, F
0001C8 52E6           01477         MOVF    POSTINC1, F
0001CA                01478 _00687_DS_:
0001CA CFE4 F000      01479         MOVFF   PREINC1, r0x0b
0001CE CFE4 F000      01480         MOVFF   PREINC1, r0x0a
0001D2 CFE4 F000      01481         MOVFF   PREINC1, r0x09
0001D6 CFE4 F000      01482         MOVFF   PREINC1, r0x08
0001DA CFE4 F000      01483         MOVFF   PREINC1, r0x07
0001DE CFE4 F000      01484         MOVFF   PREINC1, r0x06
0001E2 CFE4 F000      01485         MOVFF   PREINC1, r0x05
0001E6 CFE4 F000      01486         MOVFF   PREINC1, r0x04
0001EA CFE4 F000      01487         MOVFF   PREINC1, r0x03
0001EE CFE4 F000      01488         MOVFF   PREINC1, r0x02
0001F2 CFE4 F000      01489         MOVFF   PREINC1, r0x01
0001F6 CFE4 F000      01490         MOVFF   PREINC1, r0x00
0001FA CFE4 FFD9      01491         MOVFF   PREINC1, FSR2L
0001FE CFE4 FFDA      01492         MOVFF   PREINC1, FSR2H
000202 0012           01493         RETURN  
                      01494 
                      01495 ; ; Starting pCode block
                      01496 S_RF24_cg__RF24_setAddressWidth code
000000                01497 _RF24_setAddressWidth:
                      01498 ;       .line   1220; ../../../RF24_c/RF24_cg.c void RF24_setAddressWidth(uint8_t a_width){
000000 CFDA FFE5      01499         MOVFF   FSR2H, POSTDEC1
000004 CFD9 FFE5      01500         MOVFF   FSR2L, POSTDEC1
000008 CFE2 FFDA      01501         MOVFF   FSR1H, FSR2H
00000C CFE1 FFD9      01502         MOVFF   FSR1L, FSR2L
000010 C??? F???      01503         MOVFF   r0x00, POSTDEC1
000014 C??? F???      01504         MOVFF   r0x01, POSTDEC1
000018 0E03           01505         MOVLW   0x03
00001A CFDB F000      01506         MOVFF   PLUSW2, r0x00
                      01507 ;       .line   1222; ../../../RF24_c/RF24_cg.c if(a_width -= 2){
00001E 0EFE           01508         MOVLW   0xfe
000020 24??           01509         ADDWF   r0x00, W
Message[1301]: Using default destination of 0 (Access Bank).
000022 6E??           01510         MOVWF   r0x01
000024 C??? F???      01511         MOVFF   r0x01, r0x00
000028 50??           01512         MOVF    r0x01, W
00002A E0??           01513         BZ      _00675_DS_
                      01514 ;       .line   1223; ../../../RF24_c/RF24_cg.c RF24_write_register_d(SETUP_AW,a_width%4);
00002C 0E03           01515         MOVLW   0x03
00002E 16??           01516         ANDWF   r0x00, F
000030 50??           01517         MOVF    r0x00, W
Message[1301]: Using default destination of 0 (Access Bank).
000032 6EE5           01518         MOVWF   POSTDEC1
000034 0E03           01519         MOVLW   0x03
Message[1301]: Using default destination of 0 (Access Bank).
000036 6EE5           01520         MOVWF   POSTDEC1
000038 EC?? F0??      01521         CALL    _RF24_write_register_d
gpasm-1.4.0 #1107 (May  9 2015) build/sdcc/pr   12-2-2016  22:31:28         PAGE 33


LOC    OBJECT CODE    LINE  SOURCE TEXT
  VALUE

00003C 52E6           01522         MOVF    POSTINC1, F
00003E 52E6           01523         MOVF    POSTINC1, F
                      01524 ;       .line   1224; ../../../RF24_c/RF24_cg.c rf.addr_width = (a_width%4) + 2;
000040 2A??           01525         INCF    r0x00, F
000042 2A??           01526         INCF    r0x00, F
000044 50??           01527         MOVF    r0x00, W
000046 ????           01528         BANKSEL (_rf + 12)
000048 6F??           01529         MOVWF   (_rf + 12), B
00004A                01530 _00675_DS_:
00004A CFE4 F000      01531         MOVFF   PREINC1, r0x01
00004E CFE4 F000      01532         MOVFF   PREINC1, r0x00
000052 CFE4 FFD9      01533         MOVFF   PREINC1, FSR2L
000056 CFE4 FFDA      01534         MOVFF   PREINC1, FSR2H
00005A 0012           01535         RETURN  
                      01536 
                      01537 ; ; Starting pCode block
                      01538 S_RF24_cg__RF24_openReadingPipe_d       code
000000                01539 _RF24_openReadingPipe_d:
                      01540 ;       .line   1187; ../../../RF24_c/RF24_cg.c void RF24_openReadingPipe_d(uint8_t child, const raddr_t
                            * address_)
000000 CFDA FFE5      01541         MOVFF   FSR2H, POSTDEC1
000004 CFD9 FFE5      01542         MOVFF   FSR2L, POSTDEC1
000008 CFE2 FFDA      01543         MOVFF   FSR1H, FSR2H
00000C CFE1 FFD9      01544         MOVFF   FSR1L, FSR2L
000010 C??? F???      01545         MOVFF   r0x00, POSTDEC1
000014 C??? F???      01546         MOVFF   r0x01, POSTDEC1
000018 C??? F???      01547         MOVFF   r0x02, POSTDEC1
00001C C??? F???      01548         MOVFF   r0x03, POSTDEC1
000020 C??? F???      01549         MOVFF   r0x04, POSTDEC1
000024 C??? F???      01550         MOVFF   r0x05, POSTDEC1
000028 C??? F???      01551         MOVFF   r0x06, POSTDEC1
00002C C??? F???      01552         MOVFF   r0x07, POSTDEC1
000030 C??? F???      01553         MOVFF   r0x08, POSTDEC1
000034 C??? F???      01554         MOVFF   r0x09, POSTDEC1
000038 0E03           01555         MOVLW   0x03
00003A CFDB F000      01556         MOVFF   PLUSW2, r0x00
00003E 0E04           01557         MOVLW   0x04
000040 CFDB F000      01558         MOVFF   PLUSW2, r0x01
000044 0E05           01559         MOVLW   0x05
000046 CFDB F000      01560         MOVFF   PLUSW2, r0x02
00004A 0E06           01561         MOVLW   0x06
00004C CFDB F000      01562         MOVFF   PLUSW2, r0x03
                      01563 ;       .line   1191; ../../../RF24_c/RF24_cg.c for(i=0;i<5;i++)
Message[1301]: Using default destination of 0 (Access Bank).
000050 6A??           01564         CLRF    r0x04
000052                01565 _00644_DS_:
                      01566 ;       .line   1193; ../../../RF24_c/RF24_cg.c address[i]=address_[4-i];
000052 0E??           01567         MOVLW   LOW(_RF24_openReadingPipe_d_address_1_254)
000054 24??           01568         ADDWF   r0x04, W
Message[1301]: Using default destination of 0 (Access Bank).
000056 6E??           01569         MOVWF   r0x05
Message[1301]: Using default destination of 0 (Access Bank).
000058 6A??           01570         CLRF    r0x06
gpasm-1.4.0 #1107 (May  9 2015) build/sdcc/pr   12-2-2016  22:31:28         PAGE 34


LOC    OBJECT CODE    LINE  SOURCE TEXT
  VALUE

00005A 0E??           01571         MOVLW   HIGH(_RF24_openReadingPipe_d_address_1_254)
00005C 22??           01572         ADDWFC  r0x06, F
00005E C??? F???      01573         MOVFF   r0x04, r0x07
Message[1301]: Using default destination of 0 (Access Bank).
000062 6A??           01574         CLRF    r0x08
000064 50??           01575         MOVF    r0x07, W
000066 0804           01576         SUBLW   0x04
Message[1301]: Using default destination of 0 (Access Bank).
000068 6E??           01577         MOVWF   r0x07
00006A 0E00           01578         MOVLW   0x00
00006C 56??           01579         SUBFWB  r0x08, F
Message[1301]: Using default destination of 0 (Access Bank).
00006E 6A??           01580         CLRF    r0x09
000070 BE??           01581         BTFSC   r0x08, 7
Message[1301]: Using default destination of 0 (Access Bank).
000072 68??           01582         SETF    r0x09
000074 50??           01583         MOVF    r0x01, W
000076 26??           01584         ADDWF   r0x07, F
000078 50??           01585         MOVF    r0x02, W
00007A 22??           01586         ADDWFC  r0x08, F
00007C 50??           01587         MOVF    r0x03, W
00007E 22??           01588         ADDWFC  r0x09, F
000080 C??? F???      01589         MOVFF   r0x07, FSR0L
000084 C??? F???      01590         MOVFF   r0x08, PRODL
000088 50??           01591         MOVF    r0x09, W
00008A EC?? F0??      01592         CALL    __gptrget1
Message[1301]: Using default destination of 0 (Access Bank).
00008E 6E??           01593         MOVWF   r0x07
000090 C??? F???      01594         MOVFF   r0x05, FSR0L
000094 C??? F???      01595         MOVFF   r0x06, FSR0H
000098 C??? F???      01596         MOVFF   r0x07, INDF0
                      01597 ;       .line   1191; ../../../RF24_c/RF24_cg.c for(i=0;i<5;i++)
00009C 2A??           01598         INCF    r0x04, F
00009E 0E05           01599         MOVLW   0x05
0000A0 5C??           01600         SUBWF   r0x04, W
0000A2 E3??           01601         BNC     _00644_DS_
                      01602 ;       .line   1198; ../../../RF24_c/RF24_cg.c if (child == 0){
0000A4 50??           01603         MOVF    r0x00, W
0000A6 E1??           01604         BNZ     _00638_DS_
                      01605 ;       .line   1199; ../../../RF24_c/RF24_cg.c memcpy(rf.pipe0_reading_address,address,rf.addr_width);
0000A8 0E??           01606         MOVLW   HIGH(_rf + 7)
Message[1301]: Using default destination of 0 (Access Bank).
0000AA 6E??           01607         MOVWF   r0x02
0000AC 0E??           01608         MOVLW   LOW(_rf + 7)
Message[1301]: Using default destination of 0 (Access Bank).
0000AE 6E??           01609         MOVWF   r0x01
0000B0 0E80           01610         MOVLW   0x80
Message[1301]: Using default destination of 0 (Access Bank).
0000B2 6E??           01611         MOVWF   r0x03
0000B4 0E??           01612         MOVLW   HIGH(_RF24_openReadingPipe_d_address_1_254)
Message[1301]: Using default destination of 0 (Access Bank).
0000B6 6E??           01613         MOVWF   r0x05
0000B8 0E??           01614         MOVLW   LOW(_RF24_openReadingPipe_d_address_1_254)
gpasm-1.4.0 #1107 (May  9 2015) build/sdcc/pr   12-2-2016  22:31:28         PAGE 35


LOC    OBJECT CODE    LINE  SOURCE TEXT
  VALUE

Message[1301]: Using default destination of 0 (Access Bank).
0000BA 6E??           01615         MOVWF   r0x04
0000BC 0E80           01616         MOVLW   0x80
Message[1301]: Using default destination of 0 (Access Bank).
0000BE 6E??           01617         MOVWF   r0x06
0000C0 C??? F???      01618         MOVFF   (_rf + 12), r0x07
Message[1301]: Using default destination of 0 (Access Bank).
0000C4 6A??           01619         CLRF    r0x08
0000C6 50??           01620         MOVF    r0x08, W
Message[1301]: Using default destination of 0 (Access Bank).
0000C8 6EE5           01621         MOVWF   POSTDEC1
0000CA 50??           01622         MOVF    r0x07, W
Message[1301]: Using default destination of 0 (Access Bank).
0000CC 6EE5           01623         MOVWF   POSTDEC1
0000CE 50??           01624         MOVF    r0x06, W
Message[1301]: Using default destination of 0 (Access Bank).
0000D0 6EE5           01625         MOVWF   POSTDEC1
0000D2 50??           01626         MOVF    r0x05, W
Message[1301]: Using default destination of 0 (Access Bank).
0000D4 6EE5           01627         MOVWF   POSTDEC1
0000D6 50??           01628         MOVF    r0x04, W
Message[1301]: Using default destination of 0 (Access Bank).
0000D8 6EE5           01629         MOVWF   POSTDEC1
0000DA 50??           01630         MOVF    r0x03, W
Message[1301]: Using default destination of 0 (Access Bank).
0000DC 6EE5           01631         MOVWF   POSTDEC1
0000DE 50??           01632         MOVF    r0x02, W
Message[1301]: Using default destination of 0 (Access Bank).
0000E0 6EE5           01633         MOVWF   POSTDEC1
0000E2 50??           01634         MOVF    r0x01, W
Message[1301]: Using default destination of 0 (Access Bank).
0000E4 6EE5           01635         MOVWF   POSTDEC1
0000E6 EC?? F0??      01636         CALL    _memcpy
0000EA 0E08           01637         MOVLW   0x08
0000EC 26E1           01638         ADDWF   FSR1L, F
0000EE B0D8           01639         BTFSC   STATUS, 0
0000F0 2AE2           01640         INCF    FSR1H, F
0000F2                01641 _00638_DS_:
                      01642 ;       .line   1202; ../../../RF24_c/RF24_cg.c if (child <= 6)
0000F2 0E07           01643         MOVLW   0x07
0000F4 5C??           01644         SUBWF   r0x00, W
0000F6 B0D8           01645         BTFSC   STATUS, 0
0000F8 D???           01646         BRA     _00646_DS_
                      01647 ;       .line   1205; ../../../RF24_c/RF24_cg.c if ( child < 2 )
0000FA 0E02           01648         MOVLW   0x02
0000FC 5C??           01649         SUBWF   r0x00, W
0000FE E2??           01650         BC      _00640_DS_
                      01651 ;       .line   1206; ../../../RF24_c/RF24_cg.c RF24_write_register_c_d(pgm_read_byte(&child_pipe[child]
                            ), (const uint8_t*)(address), rf.addr_width);
000100 0E??           01652         MOVLW   LOW(_child_pipe)
000102 24??           01653         ADDWF   r0x00, W
Message[1301]: Using default destination of 0 (Access Bank).
000104 6E??           01654         MOVWF   r0x01
gpasm-1.4.0 #1107 (May  9 2015) build/sdcc/pr   12-2-2016  22:31:28         PAGE 36


LOC    OBJECT CODE    LINE  SOURCE TEXT
  VALUE

Message[1301]: Using default destination of 0 (Access Bank).
000106 6A??           01655         CLRF    r0x02
000108 0E??           01656         MOVLW   HIGH(_child_pipe)
00010A 22??           01657         ADDWFC  r0x02, F
Message[1301]: Using default destination of 0 (Access Bank).
00010C 6A??           01658         CLRF    r0x03
00010E 0E??           01659         MOVLW   UPPER(_child_pipe)
000110 22??           01660         ADDWFC  r0x03, F
000112 C??? F???      01661         MOVFF   r0x01, TBLPTRL
000116 C??? F???      01662         MOVFF   r0x02, TBLPTRH
00011A C??? F???      01663         MOVFF   r0x03, TBLPTRU
00011E 0009           01664         TBLRD*+ 
000120 CFF5 F000      01665         MOVFF   TABLAT, r0x01
000124 0E??           01666         MOVLW   HIGH(_RF24_openReadingPipe_d_address_1_254)
Message[1301]: Using default destination of 0 (Access Bank).
000126 6E??           01667         MOVWF   r0x03
000128 0E??           01668         MOVLW   LOW(_RF24_openReadingPipe_d_address_1_254)
Message[1301]: Using default destination of 0 (Access Bank).
00012A 6E??           01669         MOVWF   r0x02
00012C 0E80           01670         MOVLW   0x80
Message[1301]: Using default destination of 0 (Access Bank).
00012E 6E??           01671         MOVWF   r0x04
000130 ????           01672         BANKSEL (_rf + 12)
000132 51??           01673         MOVF    (_rf + 12), W, B
Message[1301]: Using default destination of 0 (Access Bank).
000134 6EE5           01674         MOVWF   POSTDEC1
000136 50??           01675         MOVF    r0x04, W
Message[1301]: Using default destination of 0 (Access Bank).
000138 6EE5           01676         MOVWF   POSTDEC1
00013A 50??           01677         MOVF    r0x03, W
Message[1301]: Using default destination of 0 (Access Bank).
00013C 6EE5           01678         MOVWF   POSTDEC1
00013E 50??           01679         MOVF    r0x02, W
Message[1301]: Using default destination of 0 (Access Bank).
000140 6EE5           01680         MOVWF   POSTDEC1
000142 50??           01681         MOVF    r0x01, W
Message[1301]: Using default destination of 0 (Access Bank).
000144 6EE5           01682         MOVWF   POSTDEC1
000146 EC?? F0??      01683         CALL    _RF24_write_register_c_d
00014A 0E05           01684         MOVLW   0x05
00014C 26E1           01685         ADDWF   FSR1L, F
00014E B0D8           01686         BTFSC   STATUS, 0
000150 2AE2           01687         INCF    FSR1H, F
000152 D???           01688         BRA     _00641_DS_
000154                01689 _00640_DS_:
                      01690 ;       .line   1208; ../../../RF24_c/RF24_cg.c RF24_write_register_c_d(pgm_read_byte(&child_pipe[child]
                            ), (const uint8_t*)(address), 1);
000154 0E??           01691         MOVLW   LOW(_child_pipe)
000156 24??           01692         ADDWF   r0x00, W
Message[1301]: Using default destination of 0 (Access Bank).
000158 6E??           01693         MOVWF   r0x01
Message[1301]: Using default destination of 0 (Access Bank).
00015A 6A??           01694         CLRF    r0x02
gpasm-1.4.0 #1107 (May  9 2015) build/sdcc/pr   12-2-2016  22:31:28         PAGE 37


LOC    OBJECT CODE    LINE  SOURCE TEXT
  VALUE

00015C 0E??           01695         MOVLW   HIGH(_child_pipe)
00015E 22??           01696         ADDWFC  r0x02, F
Message[1301]: Using default destination of 0 (Access Bank).
000160 6A??           01697         CLRF    r0x03
000162 0E??           01698         MOVLW   UPPER(_child_pipe)
000164 22??           01699         ADDWFC  r0x03, F
000166 C??? F???      01700         MOVFF   r0x01, TBLPTRL
00016A C??? F???      01701         MOVFF   r0x02, TBLPTRH
00016E C??? F???      01702         MOVFF   r0x03, TBLPTRU
000172 0009           01703         TBLRD*+ 
000174 CFF5 F000      01704         MOVFF   TABLAT, r0x01
000178 0E??           01705         MOVLW   HIGH(_RF24_openReadingPipe_d_address_1_254)
Message[1301]: Using default destination of 0 (Access Bank).
00017A 6E??           01706         MOVWF   r0x03
00017C 0E??           01707         MOVLW   LOW(_RF24_openReadingPipe_d_address_1_254)
Message[1301]: Using default destination of 0 (Access Bank).
00017E 6E??           01708         MOVWF   r0x02
000180 0E80           01709         MOVLW   0x80
Message[1301]: Using default destination of 0 (Access Bank).
000182 6E??           01710         MOVWF   r0x04
000184 0E01           01711         MOVLW   0x01
Message[1301]: Using default destination of 0 (Access Bank).
000186 6EE5           01712         MOVWF   POSTDEC1
000188 50??           01713         MOVF    r0x04, W
Message[1301]: Using default destination of 0 (Access Bank).
00018A 6EE5           01714         MOVWF   POSTDEC1
00018C 50??           01715         MOVF    r0x03, W
Message[1301]: Using default destination of 0 (Access Bank).
00018E 6EE5           01716         MOVWF   POSTDEC1
000190 50??           01717         MOVF    r0x02, W
Message[1301]: Using default destination of 0 (Access Bank).
000192 6EE5           01718         MOVWF   POSTDEC1
000194 50??           01719         MOVF    r0x01, W
Message[1301]: Using default destination of 0 (Access Bank).
000196 6EE5           01720         MOVWF   POSTDEC1
000198 EC?? F0??      01721         CALL    _RF24_write_register_c_d
00019C 0E05           01722         MOVLW   0x05
00019E 26E1           01723         ADDWF   FSR1L, F
0001A0 B0D8           01724         BTFSC   STATUS, 0
0001A2 2AE2           01725         INCF    FSR1H, F
0001A4                01726 _00641_DS_:
                      01727 ;       .line   1210; ../../../RF24_c/RF24_cg.c RF24_write_register_d(pgm_read_byte(&child_payload_size[
                            child]),rf.payload_size);
0001A4 0E??           01728         MOVLW   LOW(_child_payload_size)
0001A6 24??           01729         ADDWF   r0x00, W
Message[1301]: Using default destination of 0 (Access Bank).
0001A8 6E??           01730         MOVWF   r0x01
Message[1301]: Using default destination of 0 (Access Bank).
0001AA 6A??           01731         CLRF    r0x02
0001AC 0E??           01732         MOVLW   HIGH(_child_payload_size)
0001AE 22??           01733         ADDWFC  r0x02, F
Message[1301]: Using default destination of 0 (Access Bank).
0001B0 6A??           01734         CLRF    r0x03
gpasm-1.4.0 #1107 (May  9 2015) build/sdcc/pr   12-2-2016  22:31:28         PAGE 38


LOC    OBJECT CODE    LINE  SOURCE TEXT
  VALUE

0001B2 0E??           01735         MOVLW   UPPER(_child_payload_size)
0001B4 22??           01736         ADDWFC  r0x03, F
0001B6 C??? F???      01737         MOVFF   r0x01, TBLPTRL
0001BA C??? F???      01738         MOVFF   r0x02, TBLPTRH
0001BE C??? F???      01739         MOVFF   r0x03, TBLPTRU
0001C2 0009           01740         TBLRD*+ 
0001C4 CFF5 F000      01741         MOVFF   TABLAT, r0x01
0001C8 ????           01742         BANKSEL (_rf + 5)
0001CA 51??           01743         MOVF    (_rf + 5), W, B
Message[1301]: Using default destination of 0 (Access Bank).
0001CC 6EE5           01744         MOVWF   POSTDEC1
0001CE 50??           01745         MOVF    r0x01, W
Message[1301]: Using default destination of 0 (Access Bank).
0001D0 6EE5           01746         MOVWF   POSTDEC1
0001D2 EC?? F0??      01747         CALL    _RF24_write_register_d
0001D6 52E6           01748         MOVF    POSTINC1, F
0001D8 52E6           01749         MOVF    POSTINC1, F
                      01750 ;       .line   1215; ../../../RF24_c/RF24_cg.c RF24_write_register_d(EN_RXADDR,RF24_read_register_d(EN_
                            RXADDR) | _BV(pgm_read_byte(&child_pipe_enable[child])));
0001DA 0E02           01751         MOVLW   0x02
Message[1301]: Using default destination of 0 (Access Bank).
0001DC 6EE5           01752         MOVWF   POSTDEC1
0001DE EC?? F0??      01753         CALL    _RF24_read_register_d
Message[1301]: Using default destination of 0 (Access Bank).
0001E2 6E??           01754         MOVWF   r0x01
0001E4 52E6           01755         MOVF    POSTINC1, F
Message[1301]: Using default destination of 0 (Access Bank).
0001E6 6A??           01756         CLRF    r0x02
Message[1301]: Using default destination of 0 (Access Bank).
0001E8 6A??           01757         CLRF    r0x03
0001EA 0E??           01758         MOVLW   LOW(_child_pipe_enable)
0001EC 26??           01759         ADDWF   r0x00, F
0001EE 0E??           01760         MOVLW   HIGH(_child_pipe_enable)
0001F0 22??           01761         ADDWFC  r0x02, F
0001F2 0E??           01762         MOVLW   UPPER(_child_pipe_enable)
0001F4 22??           01763         ADDWFC  r0x03, F
0001F6 C??? F???      01764         MOVFF   r0x00, TBLPTRL
0001FA C??? F???      01765         MOVFF   r0x02, TBLPTRH
0001FE C??? F???      01766         MOVFF   r0x03, TBLPTRU
000202 0009           01767         TBLRD*+ 
000204 CFF5 F000      01768         MOVFF   TABLAT, r0x00
000208 0E01           01769         MOVLW   0x01
Message[1301]: Using default destination of 0 (Access Bank).
00020A 6E??           01770         MOVWF   r0x02
00020C 50??           01771         MOVF    r0x00, W
00020E E0??           01772         BZ      _00667_DS_
Message[1301]: Using default destination of 0 (Access Bank).
000210 6CE8           01773         NEGF    WREG
000212 90D8           01774         BCF     STATUS, 0
000214                01775 _00668_DS_:
000214 36??           01776         RLCF    r0x02, F
000216 0F01           01777         ADDLW   0x01
000218 E3??           01778         BNC     _00668_DS_
gpasm-1.4.0 #1107 (May  9 2015) build/sdcc/pr   12-2-2016  22:31:28         PAGE 39


LOC    OBJECT CODE    LINE  SOURCE TEXT
  VALUE

00021A                01779 _00667_DS_:
00021A 50??           01780         MOVF    r0x02, W
00021C 12??           01781         IORWF   r0x01, F
00021E 50??           01782         MOVF    r0x01, W
Message[1301]: Using default destination of 0 (Access Bank).
000220 6EE5           01783         MOVWF   POSTDEC1
000222 0E02           01784         MOVLW   0x02
Message[1301]: Using default destination of 0 (Access Bank).
000224 6EE5           01785         MOVWF   POSTDEC1
000226 EC?? F0??      01786         CALL    _RF24_write_register_d
00022A 52E6           01787         MOVF    POSTINC1, F
00022C 52E6           01788         MOVF    POSTINC1, F
00022E                01789 _00646_DS_:
00022E CFE4 F000      01790         MOVFF   PREINC1, r0x09
000232 CFE4 F000      01791         MOVFF   PREINC1, r0x08
000236 CFE4 F000      01792         MOVFF   PREINC1, r0x07
00023A CFE4 F000      01793         MOVFF   PREINC1, r0x06
00023E CFE4 F000      01794         MOVFF   PREINC1, r0x05
000242 CFE4 F000      01795         MOVFF   PREINC1, r0x04
000246 CFE4 F000      01796         MOVFF   PREINC1, r0x03
00024A CFE4 F000      01797         MOVFF   PREINC1, r0x02
00024E CFE4 F000      01798         MOVFF   PREINC1, r0x01
000252 CFE4 F000      01799         MOVFF   PREINC1, r0x00
000256 CFE4 FFD9      01800         MOVFF   PREINC1, FSR2L
00025A CFE4 FFDA      01801         MOVFF   PREINC1, FSR2H
00025E 0012           01802         RETURN  
                      01803 
                      01804 ; ; Starting pCode block
                      01805 S_RF24_cg__RF24_openWritingPipe code
000000                01806 _RF24_openWritingPipe:
                      01807 ;       .line   1163; ../../../RF24_c/RF24_cg.c void RF24_openWritingPipe(const uint8_t *address)
000000 CFDA FFE5      01808         MOVFF   FSR2H, POSTDEC1
000004 CFD9 FFE5      01809         MOVFF   FSR2L, POSTDEC1
000008 CFE2 FFDA      01810         MOVFF   FSR1H, FSR2H
00000C CFE1 FFD9      01811         MOVFF   FSR1L, FSR2L
000010 C??? F???      01812         MOVFF   r0x00, POSTDEC1
000014 C??? F???      01813         MOVFF   r0x01, POSTDEC1
000018 C??? F???      01814         MOVFF   r0x02, POSTDEC1
00001C 0E03           01815         MOVLW   0x03
00001E CFDB F000      01816         MOVFF   PLUSW2, r0x00
000022 0E04           01817         MOVLW   0x04
000024 CFDB F000      01818         MOVFF   PLUSW2, r0x01
000028 0E05           01819         MOVLW   0x05
00002A CFDB F000      01820         MOVFF   PLUSW2, r0x02
00002E ????           01821         BANKSEL (_rf + 12)
                      01822 ;       .line   1168; ../../../RF24_c/RF24_cg.c RF24_write_register_c_d(RX_ADDR_P0,address, rf.addr_widt
                            h);
000030 51??           01823         MOVF    (_rf + 12), W, B
Message[1301]: Using default destination of 0 (Access Bank).
000032 6EE5           01824         MOVWF   POSTDEC1
000034 50??           01825         MOVF    r0x02, W
Message[1301]: Using default destination of 0 (Access Bank).
000036 6EE5           01826         MOVWF   POSTDEC1
gpasm-1.4.0 #1107 (May  9 2015) build/sdcc/pr   12-2-2016  22:31:28         PAGE 40


LOC    OBJECT CODE    LINE  SOURCE TEXT
  VALUE

000038 50??           01827         MOVF    r0x01, W
Message[1301]: Using default destination of 0 (Access Bank).
00003A 6EE5           01828         MOVWF   POSTDEC1
00003C 50??           01829         MOVF    r0x00, W
Message[1301]: Using default destination of 0 (Access Bank).
00003E 6EE5           01830         MOVWF   POSTDEC1
000040 0E0A           01831         MOVLW   0x0a
Message[1301]: Using default destination of 0 (Access Bank).
000042 6EE5           01832         MOVWF   POSTDEC1
000044 EC?? F0??      01833         CALL    _RF24_write_register_c_d
000048 0E05           01834         MOVLW   0x05
00004A 26E1           01835         ADDWF   FSR1L, F
00004C B0D8           01836         BTFSC   STATUS, 0
00004E 2AE2           01837         INCF    FSR1H, F
000050 ????           01838         BANKSEL (_rf + 12)
                      01839 ;       .line   1169; ../../../RF24_c/RF24_cg.c RF24_write_register_c_d(TX_ADDR, address, rf.addr_width)
                            ;
000052 51??           01840         MOVF    (_rf + 12), W, B
Message[1301]: Using default destination of 0 (Access Bank).
000054 6EE5           01841         MOVWF   POSTDEC1
000056 50??           01842         MOVF    r0x02, W
Message[1301]: Using default destination of 0 (Access Bank).
000058 6EE5           01843         MOVWF   POSTDEC1
00005A 50??           01844         MOVF    r0x01, W
Message[1301]: Using default destination of 0 (Access Bank).
00005C 6EE5           01845         MOVWF   POSTDEC1
00005E 50??           01846         MOVF    r0x00, W
Message[1301]: Using default destination of 0 (Access Bank).
000060 6EE5           01847         MOVWF   POSTDEC1
000062 0E10           01848         MOVLW   0x10
Message[1301]: Using default destination of 0 (Access Bank).
000064 6EE5           01849         MOVWF   POSTDEC1
000066 EC?? F0??      01850         CALL    _RF24_write_register_c_d
00006A 0E05           01851         MOVLW   0x05
00006C 26E1           01852         ADDWF   FSR1L, F
00006E B0D8           01853         BTFSC   STATUS, 0
000070 2AE2           01854         INCF    FSR1H, F
000072 ????           01855         BANKSEL (_rf + 5)
                      01856 ;       .line   1173; ../../../RF24_c/RF24_cg.c RF24_write_register_d(RX_PW_P0,rf.payload_size);
000074 51??           01857         MOVF    (_rf + 5), W, B
Message[1301]: Using default destination of 0 (Access Bank).
000076 6EE5           01858         MOVWF   POSTDEC1
000078 0E11           01859         MOVLW   0x11
Message[1301]: Using default destination of 0 (Access Bank).
00007A 6EE5           01860         MOVWF   POSTDEC1
00007C EC?? F0??      01861         CALL    _RF24_write_register_d
000080 52E6           01862         MOVF    POSTINC1, F
000082 52E6           01863         MOVF    POSTINC1, F
000084 CFE4 F000      01864         MOVFF   PREINC1, r0x02
000088 CFE4 F000      01865         MOVFF   PREINC1, r0x01
00008C CFE4 F000      01866         MOVFF   PREINC1, r0x00
000090 CFE4 FFD9      01867         MOVFF   PREINC1, FSR2L
000094 CFE4 FFDA      01868         MOVFF   PREINC1, FSR2H
gpasm-1.4.0 #1107 (May  9 2015) build/sdcc/pr   12-2-2016  22:31:28         PAGE 41


LOC    OBJECT CODE    LINE  SOURCE TEXT
  VALUE

000098 0012           01869         RETURN  
                      01870 
                      01871 ; ; Starting pCode block
                      01872 S_RF24_cg__RF24_openWritingPipe_d       code
000000                01873 _RF24_openWritingPipe_d:
                      01874 ;       .line   1144; ../../../RF24_c/RF24_cg.c void RF24_openWritingPipe_d(const raddr_t*  value_)
000000 CFDA FFE5      01875         MOVFF   FSR2H, POSTDEC1
000004 CFD9 FFE5      01876         MOVFF   FSR2L, POSTDEC1
000008 CFE2 FFDA      01877         MOVFF   FSR1H, FSR2H
00000C CFE1 FFD9      01878         MOVFF   FSR1L, FSR2L
000010 C??? F???      01879         MOVFF   r0x00, POSTDEC1
000014 C??? F???      01880         MOVFF   r0x01, POSTDEC1
000018 C??? F???      01881         MOVFF   r0x02, POSTDEC1
00001C C??? F???      01882         MOVFF   r0x03, POSTDEC1
000020 C??? F???      01883         MOVFF   r0x04, POSTDEC1
000024 C??? F???      01884         MOVFF   r0x05, POSTDEC1
000028 C??? F???      01885         MOVFF   r0x06, POSTDEC1
00002C C??? F???      01886         MOVFF   r0x07, POSTDEC1
000030 C??? F???      01887         MOVFF   r0x08, POSTDEC1
000034 0E03           01888         MOVLW   0x03
000036 CFDB F000      01889         MOVFF   PLUSW2, r0x00
00003A 0E04           01890         MOVLW   0x04
00003C CFDB F000      01891         MOVFF   PLUSW2, r0x01
000040 0E05           01892         MOVLW   0x05
000042 CFDB F000      01893         MOVFF   PLUSW2, r0x02
                      01894 ;       .line   1148; ../../../RF24_c/RF24_cg.c for(i=0;i<5;i++)
Message[1301]: Using default destination of 0 (Access Bank).
000046 6A??           01895         CLRF    r0x03
000048                01896 _00615_DS_:
                      01897 ;       .line   1150; ../../../RF24_c/RF24_cg.c value[i]=value_[4-i];
000048 0E??           01898         MOVLW   LOW(_RF24_openWritingPipe_d_value_1_249)
00004A 24??           01899         ADDWF   r0x03, W
Message[1301]: Using default destination of 0 (Access Bank).
00004C 6E??           01900         MOVWF   r0x04
Message[1301]: Using default destination of 0 (Access Bank).
00004E 6A??           01901         CLRF    r0x05
000050 0E??           01902         MOVLW   HIGH(_RF24_openWritingPipe_d_value_1_249)
000052 22??           01903         ADDWFC  r0x05, F
000054 C??? F???      01904         MOVFF   r0x03, r0x06
Message[1301]: Using default destination of 0 (Access Bank).
000058 6A??           01905         CLRF    r0x07
00005A 50??           01906         MOVF    r0x06, W
00005C 0804           01907         SUBLW   0x04
Message[1301]: Using default destination of 0 (Access Bank).
00005E 6E??           01908         MOVWF   r0x06
000060 0E00           01909         MOVLW   0x00
000062 56??           01910         SUBFWB  r0x07, F
Message[1301]: Using default destination of 0 (Access Bank).
000064 6A??           01911         CLRF    r0x08
000066 BE??           01912         BTFSC   r0x07, 7
Message[1301]: Using default destination of 0 (Access Bank).
000068 68??           01913         SETF    r0x08
00006A 50??           01914         MOVF    r0x00, W
gpasm-1.4.0 #1107 (May  9 2015) build/sdcc/pr   12-2-2016  22:31:28         PAGE 42


LOC    OBJECT CODE    LINE  SOURCE TEXT
  VALUE

00006C 26??           01915         ADDWF   r0x06, F
00006E 50??           01916         MOVF    r0x01, W
000070 22??           01917         ADDWFC  r0x07, F
000072 50??           01918         MOVF    r0x02, W
000074 22??           01919         ADDWFC  r0x08, F
000076 C??? F???      01920         MOVFF   r0x06, FSR0L
00007A C??? F???      01921         MOVFF   r0x07, PRODL
00007E 50??           01922         MOVF    r0x08, W
000080 EC?? F0??      01923         CALL    __gptrget1
Message[1301]: Using default destination of 0 (Access Bank).
000084 6E??           01924         MOVWF   r0x06
000086 C??? F???      01925         MOVFF   r0x04, FSR0L
00008A C??? F???      01926         MOVFF   r0x05, FSR0H
00008E C??? F???      01927         MOVFF   r0x06, INDF0
                      01928 ;       .line   1148; ../../../RF24_c/RF24_cg.c for(i=0;i<5;i++)
000092 2A??           01929         INCF    r0x03, F
000094 0E05           01930         MOVLW   0x05
000096 5C??           01931         SUBWF   r0x03, W
000098 E3??           01932         BNC     _00615_DS_
                      01933 ;       .line   1153; ../../../RF24_c/RF24_cg.c RF24_write_register_c_d(RX_ADDR_P0, ((uint8_t*)(value)),
                             rf.addr_width);
00009A 0E??           01934         MOVLW   HIGH(_RF24_openWritingPipe_d_value_1_249)
Message[1301]: Using default destination of 0 (Access Bank).
00009C 6E??           01935         MOVWF   r0x01
00009E 0E??           01936         MOVLW   LOW(_RF24_openWritingPipe_d_value_1_249)
Message[1301]: Using default destination of 0 (Access Bank).
0000A0 6E??           01937         MOVWF   r0x00
0000A2 0E80           01938         MOVLW   0x80
Message[1301]: Using default destination of 0 (Access Bank).
0000A4 6E??           01939         MOVWF   r0x02
0000A6 ????           01940         BANKSEL (_rf + 12)
0000A8 51??           01941         MOVF    (_rf + 12), W, B
Message[1301]: Using default destination of 0 (Access Bank).
0000AA 6EE5           01942         MOVWF   POSTDEC1
0000AC 50??           01943         MOVF    r0x02, W
Message[1301]: Using default destination of 0 (Access Bank).
0000AE 6EE5           01944         MOVWF   POSTDEC1
0000B0 50??           01945         MOVF    r0x01, W
Message[1301]: Using default destination of 0 (Access Bank).
0000B2 6EE5           01946         MOVWF   POSTDEC1
0000B4 50??           01947         MOVF    r0x00, W
Message[1301]: Using default destination of 0 (Access Bank).
0000B6 6EE5           01948         MOVWF   POSTDEC1
0000B8 0E0A           01949         MOVLW   0x0a
Message[1301]: Using default destination of 0 (Access Bank).
0000BA 6EE5           01950         MOVWF   POSTDEC1
0000BC EC?? F0??      01951         CALL    _RF24_write_register_c_d
0000C0 0E05           01952         MOVLW   0x05
0000C2 26E1           01953         ADDWF   FSR1L, F
0000C4 B0D8           01954         BTFSC   STATUS, 0
0000C6 2AE2           01955         INCF    FSR1H, F
                      01956 ;       .line   1154; ../../../RF24_c/RF24_cg.c RF24_write_register_c_d(TX_ADDR, ((uint8_t*)(value)), rf
                            .addr_width);
gpasm-1.4.0 #1107 (May  9 2015) build/sdcc/pr   12-2-2016  22:31:28         PAGE 43


LOC    OBJECT CODE    LINE  SOURCE TEXT
  VALUE

0000C8 0E??           01957         MOVLW   HIGH(_RF24_openWritingPipe_d_value_1_249)
Message[1301]: Using default destination of 0 (Access Bank).
0000CA 6E??           01958         MOVWF   r0x01
0000CC 0E??           01959         MOVLW   LOW(_RF24_openWritingPipe_d_value_1_249)
Message[1301]: Using default destination of 0 (Access Bank).
0000CE 6E??           01960         MOVWF   r0x00
0000D0 0E80           01961         MOVLW   0x80
Message[1301]: Using default destination of 0 (Access Bank).
0000D2 6E??           01962         MOVWF   r0x02
0000D4 ????           01963         BANKSEL (_rf + 12)
0000D6 51??           01964         MOVF    (_rf + 12), W, B
Message[1301]: Using default destination of 0 (Access Bank).
0000D8 6EE5           01965         MOVWF   POSTDEC1
0000DA 50??           01966         MOVF    r0x02, W
Message[1301]: Using default destination of 0 (Access Bank).
0000DC 6EE5           01967         MOVWF   POSTDEC1
0000DE 50??           01968         MOVF    r0x01, W
Message[1301]: Using default destination of 0 (Access Bank).
0000E0 6EE5           01969         MOVWF   POSTDEC1
0000E2 50??           01970         MOVF    r0x00, W
Message[1301]: Using default destination of 0 (Access Bank).
0000E4 6EE5           01971         MOVWF   POSTDEC1
0000E6 0E10           01972         MOVLW   0x10
Message[1301]: Using default destination of 0 (Access Bank).
0000E8 6EE5           01973         MOVWF   POSTDEC1
0000EA EC?? F0??      01974         CALL    _RF24_write_register_c_d
0000EE 0E05           01975         MOVLW   0x05
0000F0 26E1           01976         ADDWF   FSR1L, F
0000F2 B0D8           01977         BTFSC   STATUS, 0
0000F4 2AE2           01978         INCF    FSR1H, F
0000F6 ????           01979         BANKSEL (_rf + 5)
                      01980 ;       .line   1159; ../../../RF24_c/RF24_cg.c RF24_write_register_d(RX_PW_P0,rf.payload_size);
0000F8 51??           01981         MOVF    (_rf + 5), W, B
Message[1301]: Using default destination of 0 (Access Bank).
0000FA 6EE5           01982         MOVWF   POSTDEC1
0000FC 0E11           01983         MOVLW   0x11
Message[1301]: Using default destination of 0 (Access Bank).
0000FE 6EE5           01984         MOVWF   POSTDEC1
000100 EC?? F0??      01985         CALL    _RF24_write_register_d
000104 52E6           01986         MOVF    POSTINC1, F
000106 52E6           01987         MOVF    POSTINC1, F
000108 CFE4 F000      01988         MOVFF   PREINC1, r0x08
00010C CFE4 F000      01989         MOVFF   PREINC1, r0x07
000110 CFE4 F000      01990         MOVFF   PREINC1, r0x06
000114 CFE4 F000      01991         MOVFF   PREINC1, r0x05
000118 CFE4 F000      01992         MOVFF   PREINC1, r0x04
00011C CFE4 F000      01993         MOVFF   PREINC1, r0x03
000120 CFE4 F000      01994         MOVFF   PREINC1, r0x02
000124 CFE4 F000      01995         MOVFF   PREINC1, r0x01
000128 CFE4 F000      01996         MOVFF   PREINC1, r0x00
00012C CFE4 FFD9      01997         MOVFF   PREINC1, FSR2L
000130 CFE4 FFDA      01998         MOVFF   PREINC1, FSR2H
000134 0012           01999         RETURN  
gpasm-1.4.0 #1107 (May  9 2015) build/sdcc/pr   12-2-2016  22:31:28         PAGE 44


LOC    OBJECT CODE    LINE  SOURCE TEXT
  VALUE

                      02000 
                      02001 ; ; Starting pCode block
                      02002 S_RF24_cg__RF24_whatHappened    code
000000                02003 _RF24_whatHappened:
                      02004 ;       .line   1130; ../../../RF24_c/RF24_cg.c void RF24_whatHappened( uint8_t * tx_ok,uint8_t * tx_fai
                            l,uint8_t * rx_ready)
000000 CFDA FFE5      02005         MOVFF   FSR2H, POSTDEC1
000004 CFD9 FFE5      02006         MOVFF   FSR2L, POSTDEC1
000008 CFE2 FFDA      02007         MOVFF   FSR1H, FSR2H
00000C CFE1 FFD9      02008         MOVFF   FSR1L, FSR2L
000010 C??? F???      02009         MOVFF   r0x00, POSTDEC1
000014 C??? F???      02010         MOVFF   r0x01, POSTDEC1
000018 C??? F???      02011         MOVFF   r0x02, POSTDEC1
00001C C??? F???      02012         MOVFF   r0x03, POSTDEC1
000020 C??? F???      02013         MOVFF   r0x04, POSTDEC1
000024 C??? F???      02014         MOVFF   r0x05, POSTDEC1
000028 C??? F???      02015         MOVFF   r0x06, POSTDEC1
00002C C??? F???      02016         MOVFF   r0x07, POSTDEC1
000030 C??? F???      02017         MOVFF   r0x08, POSTDEC1
000034 C??? F???      02018         MOVFF   r0x09, POSTDEC1
000038 C??? F???      02019         MOVFF   r0x0a, POSTDEC1
00003C 0E03           02020         MOVLW   0x03
00003E CFDB F000      02021         MOVFF   PLUSW2, r0x00
000042 0E04           02022         MOVLW   0x04
000044 CFDB F000      02023         MOVFF   PLUSW2, r0x01
000048 0E05           02024         MOVLW   0x05
00004A CFDB F000      02025         MOVFF   PLUSW2, r0x02
00004E 0E06           02026         MOVLW   0x06
000050 CFDB F000      02027         MOVFF   PLUSW2, r0x03
000054 0E07           02028         MOVLW   0x07
000056 CFDB F000      02029         MOVFF   PLUSW2, r0x04
00005A 0E08           02030         MOVLW   0x08
00005C CFDB F000      02031         MOVFF   PLUSW2, r0x05
000060 0E09           02032         MOVLW   0x09
000062 CFDB F000      02033         MOVFF   PLUSW2, r0x06
000066 0E0A           02034         MOVLW   0x0a
000068 CFDB F000      02035         MOVFF   PLUSW2, r0x07
00006C 0E0B           02036         MOVLW   0x0b
00006E CFDB F000      02037         MOVFF   PLUSW2, r0x08
                      02038 ;       .line   1134; ../../../RF24_c/RF24_cg.c uint8_t status = RF24_write_register_d(NRF_STATUS,_BV(RX
                            _DR) | _BV(TX_DS) | _BV(MAX_RT) );
000072 0E70           02039         MOVLW   0x70
Message[1301]: Using default destination of 0 (Access Bank).
000074 6EE5           02040         MOVWF   POSTDEC1
000076 0E07           02041         MOVLW   0x07
Message[1301]: Using default destination of 0 (Access Bank).
000078 6EE5           02042         MOVWF   POSTDEC1
00007A EC?? F0??      02043         CALL    _RF24_write_register_d
Message[1301]: Using default destination of 0 (Access Bank).
00007E 6E??           02044         MOVWF   r0x09
000080 52E6           02045         MOVF    POSTINC1, F
000082 52E6           02046         MOVF    POSTINC1, F
                      02047 ;       .line   1137; ../../../RF24_c/RF24_cg.c *tx_ok = status & _BV(TX_DS);
gpasm-1.4.0 #1107 (May  9 2015) build/sdcc/pr   12-2-2016  22:31:28         PAGE 45


LOC    OBJECT CODE    LINE  SOURCE TEXT
  VALUE

000084 0E20           02048         MOVLW   0x20
000086 14??           02049         ANDWF   r0x09, W
Message[1301]: Using default destination of 0 (Access Bank).
000088 6E??           02050         MOVWF   r0x0a
00008A C??? F???      02051         MOVFF   r0x0a, POSTDEC1
00008E C??? F???      02052         MOVFF   r0x00, FSR0L
000092 C??? F???      02053         MOVFF   r0x01, PRODL
000096 50??           02054         MOVF    r0x02, W
000098 EC?? F0??      02055         CALL    __gptrput1
                      02056 ;       .line   1138; ../../../RF24_c/RF24_cg.c *tx_fail = status & _BV(MAX_RT);
00009C 0E10           02057         MOVLW   0x10
00009E 14??           02058         ANDWF   r0x09, W
Message[1301]: Using default destination of 0 (Access Bank).
0000A0 6E??           02059         MOVWF   r0x00
0000A2 C??? F???      02060         MOVFF   r0x00, POSTDEC1
0000A6 C??? F???      02061         MOVFF   r0x03, FSR0L
0000AA C??? F???      02062         MOVFF   r0x04, PRODL
0000AE 50??           02063         MOVF    r0x05, W
0000B0 EC?? F0??      02064         CALL    __gptrput1
                      02065 ;       .line   1139; ../../../RF24_c/RF24_cg.c *rx_ready = status & _BV(RX_DR);
0000B4 0E40           02066         MOVLW   0x40
0000B6 16??           02067         ANDWF   r0x09, F
0000B8 C??? F???      02068         MOVFF   r0x09, POSTDEC1
0000BC C??? F???      02069         MOVFF   r0x06, FSR0L
0000C0 C??? F???      02070         MOVFF   r0x07, PRODL
0000C4 50??           02071         MOVF    r0x08, W
0000C6 EC?? F0??      02072         CALL    __gptrput1
0000CA CFE4 F000      02073         MOVFF   PREINC1, r0x0a
0000CE CFE4 F000      02074         MOVFF   PREINC1, r0x09
0000D2 CFE4 F000      02075         MOVFF   PREINC1, r0x08
0000D6 CFE4 F000      02076         MOVFF   PREINC1, r0x07
0000DA CFE4 F000      02077         MOVFF   PREINC1, r0x06
0000DE CFE4 F000      02078         MOVFF   PREINC1, r0x05
0000E2 CFE4 F000      02079         MOVFF   PREINC1, r0x04
0000E6 CFE4 F000      02080         MOVFF   PREINC1, r0x03
0000EA CFE4 F000      02081         MOVFF   PREINC1, r0x02
0000EE CFE4 F000      02082         MOVFF   PREINC1, r0x01
0000F2 CFE4 F000      02083         MOVFF   PREINC1, r0x00
0000F6 CFE4 FFD9      02084         MOVFF   PREINC1, FSR2L
0000FA CFE4 FFDA      02085         MOVFF   PREINC1, FSR2H
0000FE 0012           02086         RETURN  
                      02087 
                      02088 ; ; Starting pCode block
                      02089 S_RF24_cg__RF24_read    code
000000                02090 _RF24_read:
                      02091 ;       .line   1118; ../../../RF24_c/RF24_cg.c void RF24_read(void* buf, uint8_t len ){
000000 CFDA FFE5      02092         MOVFF   FSR2H, POSTDEC1
000004 CFD9 FFE5      02093         MOVFF   FSR2L, POSTDEC1
000008 CFE2 FFDA      02094         MOVFF   FSR1H, FSR2H
00000C CFE1 FFD9      02095         MOVFF   FSR1L, FSR2L
000010 C??? F???      02096         MOVFF   r0x00, POSTDEC1
000014 C??? F???      02097         MOVFF   r0x01, POSTDEC1
000018 C??? F???      02098         MOVFF   r0x02, POSTDEC1
gpasm-1.4.0 #1107 (May  9 2015) build/sdcc/pr   12-2-2016  22:31:28         PAGE 46


LOC    OBJECT CODE    LINE  SOURCE TEXT
  VALUE

00001C C??? F???      02099         MOVFF   r0x03, POSTDEC1
000020 0E03           02100         MOVLW   0x03
000022 CFDB F000      02101         MOVFF   PLUSW2, r0x00
000026 0E04           02102         MOVLW   0x04
000028 CFDB F000      02103         MOVFF   PLUSW2, r0x01
00002C 0E05           02104         MOVLW   0x05
00002E CFDB F000      02105         MOVFF   PLUSW2, r0x02
000032 0E06           02106         MOVLW   0x06
000034 CFDB F000      02107         MOVFF   PLUSW2, r0x03
                      02108 ;       .line   1121; ../../../RF24_c/RF24_cg.c RF24_read_payload( buf, len );
000038 50??           02109         MOVF    r0x03, W
Message[1301]: Using default destination of 0 (Access Bank).
00003A 6EE5           02110         MOVWF   POSTDEC1
00003C 50??           02111         MOVF    r0x02, W
Message[1301]: Using default destination of 0 (Access Bank).
00003E 6EE5           02112         MOVWF   POSTDEC1
000040 50??           02113         MOVF    r0x01, W
Message[1301]: Using default destination of 0 (Access Bank).
000042 6EE5           02114         MOVWF   POSTDEC1
000044 50??           02115         MOVF    r0x00, W
Message[1301]: Using default destination of 0 (Access Bank).
000046 6EE5           02116         MOVWF   POSTDEC1
000048 EC?? F0??      02117         CALL    _RF24_read_payload
00004C 0E04           02118         MOVLW   0x04
00004E 26E1           02119         ADDWF   FSR1L, F
000050 B0D8           02120         BTFSC   STATUS, 0
000052 2AE2           02121         INCF    FSR1H, F
                      02122 ;       .line   1124; ../../../RF24_c/RF24_cg.c RF24_write_register_d(NRF_STATUS,_BV(RX_DR) | _BV(MAX_RT
                            ) | _BV(TX_DS) );
000054 0E70           02123         MOVLW   0x70
Message[1301]: Using default destination of 0 (Access Bank).
000056 6EE5           02124         MOVWF   POSTDEC1
000058 0E07           02125         MOVLW   0x07
Message[1301]: Using default destination of 0 (Access Bank).
00005A 6EE5           02126         MOVWF   POSTDEC1
00005C EC?? F0??      02127         CALL    _RF24_write_register_d
000060 52E6           02128         MOVF    POSTINC1, F
000062 52E6           02129         MOVF    POSTINC1, F
000064 CFE4 F000      02130         MOVFF   PREINC1, r0x03
000068 CFE4 F000      02131         MOVFF   PREINC1, r0x02
00006C CFE4 F000      02132         MOVFF   PREINC1, r0x01
000070 CFE4 F000      02133         MOVFF   PREINC1, r0x00
000074 CFE4 FFD9      02134         MOVFF   PREINC1, FSR2L
000078 CFE4 FFDA      02135         MOVFF   PREINC1, FSR2H
00007C 0012           02136         RETURN  
                      02137 
                      02138 ; ; Starting pCode block
                      02139 S_RF24_cg__RF24_available_p     code
000000                02140 _RF24_available_p:
                      02141 ;       .line   1098; ../../../RF24_c/RF24_cg.c uint8_t RF24_available_p(uint8_t* pipe_num)
000000 CFDA FFE5      02142         MOVFF   FSR2H, POSTDEC1
000004 CFD9 FFE5      02143         MOVFF   FSR2L, POSTDEC1
000008 CFE2 FFDA      02144         MOVFF   FSR1H, FSR2H
gpasm-1.4.0 #1107 (May  9 2015) build/sdcc/pr   12-2-2016  22:31:28         PAGE 47


LOC    OBJECT CODE    LINE  SOURCE TEXT
  VALUE

00000C CFE1 FFD9      02145         MOVFF   FSR1L, FSR2L
000010 C??? F???      02146         MOVFF   r0x00, POSTDEC1
000014 C??? F???      02147         MOVFF   r0x01, POSTDEC1
000018 C??? F???      02148         MOVFF   r0x02, POSTDEC1
00001C C??? F???      02149         MOVFF   r0x03, POSTDEC1
000020 0E03           02150         MOVLW   0x03
000022 CFDB F000      02151         MOVFF   PLUSW2, r0x00
000026 0E04           02152         MOVLW   0x04
000028 CFDB F000      02153         MOVFF   PLUSW2, r0x01
00002C 0E05           02154         MOVLW   0x05
00002E CFDB F000      02155         MOVFF   PLUSW2, r0x02
                      02156 ;       .line   1100; ../../../RF24_c/RF24_cg.c if (!( RF24_read_register_d(FIFO_STATUS) & _BV(RX_EMPTY)
                             )){
000032 0E17           02157         MOVLW   0x17
Message[1301]: Using default destination of 0 (Access Bank).
000034 6EE5           02158         MOVWF   POSTDEC1
000036 EC?? F0??      02159         CALL    _RF24_read_register_d
Message[1301]: Using default destination of 0 (Access Bank).
00003A 6E??           02160         MOVWF   r0x03
00003C 52E6           02161         MOVF    POSTINC1, F
00003E B0??           02162         BTFSC   r0x03, 0
000040 D???           02163         BRA     _00590_DS_
                      02164 ;       .line   1103; ../../../RF24_c/RF24_cg.c if ( pipe_num ){
000042 50??           02165         MOVF    r0x00, W
000044 10??           02166         IORWF   r0x01, W
000046 10??           02167         IORWF   r0x02, W
000048 E0??           02168         BZ      _00588_DS_
                      02169 ;       .line   1104; ../../../RF24_c/RF24_cg.c uint8_t status = RF24_get_status();
00004A EC?? F0??      02170         CALL    _RF24_get_status
Message[1301]: Using default destination of 0 (Access Bank).
00004E 6E??           02171         MOVWF   r0x03
                      02172 ;       .line   1105; ../../../RF24_c/RF24_cg.c *pipe_num = ( status >> RX_P_NO ) & 0b111;
000050 40??           02173         RRNCF   r0x03, W
000052 0B7F           02174         ANDLW   0x7f
Message[1301]: Using default destination of 0 (Access Bank).
000054 6E??           02175         MOVWF   r0x03
000056 0E07           02176         MOVLW   0x07
000058 16??           02177         ANDWF   r0x03, F
00005A C??? F???      02178         MOVFF   r0x03, POSTDEC1
00005E C??? F???      02179         MOVFF   r0x00, FSR0L
000062 C??? F???      02180         MOVFF   r0x01, PRODL
000066 50??           02181         MOVF    r0x02, W
000068 EC?? F0??      02182         CALL    __gptrput1
00006C                02183 _00588_DS_:
                      02184 ;       .line   1107; ../../../RF24_c/RF24_cg.c return 1;
00006C 0E01           02185         MOVLW   0x01
00006E D???           02186         BRA     _00591_DS_
000070                02187 _00590_DS_:
                      02188 ;       .line   1111; ../../../RF24_c/RF24_cg.c return 0;
Message[1301]: Using default destination of 0 (Access Bank).
000070 6AE8           02189         CLRF    WREG
000072                02190 _00591_DS_:
000072 CFE4 F000      02191         MOVFF   PREINC1, r0x03
gpasm-1.4.0 #1107 (May  9 2015) build/sdcc/pr   12-2-2016  22:31:28         PAGE 48


LOC    OBJECT CODE    LINE  SOURCE TEXT
  VALUE

000076 CFE4 F000      02192         MOVFF   PREINC1, r0x02
00007A CFE4 F000      02193         MOVFF   PREINC1, r0x01
00007E CFE4 F000      02194         MOVFF   PREINC1, r0x00
000082 CFE4 FFD9      02195         MOVFF   PREINC1, FSR2L
000086 CFE4 FFDA      02196         MOVFF   PREINC1, FSR2H
00008A 0012           02197         RETURN  
                      02198 
                      02199 ; ; Starting pCode block
                      02200 S_RF24_cg__RF24_available       code
000000                02201 _RF24_available:
                      02202 ;       .line   1091; ../../../RF24_c/RF24_cg.c uint8_t RF24_available(void)
000000 CFDA FFE5      02203         MOVFF   FSR2H, POSTDEC1
000004 CFD9 FFE5      02204         MOVFF   FSR2L, POSTDEC1
000008 CFE2 FFDA      02205         MOVFF   FSR1H, FSR2H
00000C CFE1 FFD9      02206         MOVFF   FSR1L, FSR2L
000010 C??? F???      02207         MOVFF   r0x00, POSTDEC1
                      02208 ;       .line   1093; ../../../RF24_c/RF24_cg.c return RF24_available_p(NULL);
000014 0E00           02209         MOVLW   0x00
Message[1301]: Using default destination of 0 (Access Bank).
000016 6EE5           02210         MOVWF   POSTDEC1
000018 0E00           02211         MOVLW   0x00
Message[1301]: Using default destination of 0 (Access Bank).
00001A 6EE5           02212         MOVWF   POSTDEC1
00001C 0E00           02213         MOVLW   0x00
Message[1301]: Using default destination of 0 (Access Bank).
00001E 6EE5           02214         MOVWF   POSTDEC1
000020 EC?? F0??      02215         CALL    _RF24_available_p
Message[1301]: Using default destination of 0 (Access Bank).
000024 6E??           02216         MOVWF   r0x00
000026 0E03           02217         MOVLW   0x03
000028 26E1           02218         ADDWF   FSR1L, F
00002A B0D8           02219         BTFSC   STATUS, 0
00002C 2AE2           02220         INCF    FSR1H, F
00002E 50??           02221         MOVF    r0x00, W
000030 CFE4 F000      02222         MOVFF   PREINC1, r0x00
000034 CFE4 FFD9      02223         MOVFF   PREINC1, FSR2L
000038 CFE4 FFDA      02224         MOVFF   PREINC1, FSR2H
00003C 0012           02225         RETURN  
                      02226 
                      02227 ; ; Starting pCode block
                      02228 S_RF24_cg__RF24_getDynamicPayloadSize   code
000000                02229 _RF24_getDynamicPayloadSize:
                      02230 ;       .line   1067; ../../../RF24_c/RF24_cg.c uint8_t RF24_getDynamicPayloadSize(void)
000000 CFDA FFE5      02231         MOVFF   FSR2H, POSTDEC1
000004 CFD9 FFE5      02232         MOVFF   FSR2L, POSTDEC1
000008 CFE2 FFDA      02233         MOVFF   FSR1H, FSR2H
00000C CFE1 FFD9      02234         MOVFF   FSR1L, FSR2L
000010 C??? F???      02235         MOVFF   r0x00, POSTDEC1
                      02236 ;       .line   1079; ../../../RF24_c/RF24_cg.c RF24_beginTransaction();
000014 EC?? F0??      02237         CALL    _RF24_beginTransaction
                      02238 ;       .line   1080; ../../../RF24_c/RF24_cg.c SPI_transfer( R_RX_PL_WID );
000018 0E60           02239         MOVLW   0x60
Message[1301]: Using default destination of 0 (Access Bank).
gpasm-1.4.0 #1107 (May  9 2015) build/sdcc/pr   12-2-2016  22:31:28         PAGE 49


LOC    OBJECT CODE    LINE  SOURCE TEXT
  VALUE

00001A 6EE5           02240         MOVWF   POSTDEC1
00001C EC?? F0??      02241         CALL    _SPI_transfer
000020 52E6           02242         MOVF    POSTINC1, F
                      02243 ;       .line   1081; ../../../RF24_c/RF24_cg.c result = SPI_transfer(0xff);
000022 0EFF           02244         MOVLW   0xff
Message[1301]: Using default destination of 0 (Access Bank).
000024 6EE5           02245         MOVWF   POSTDEC1
000026 EC?? F0??      02246         CALL    _SPI_transfer
Message[1301]: Using default destination of 0 (Access Bank).
00002A 6E??           02247         MOVWF   r0x00
00002C 52E6           02248         MOVF    POSTINC1, F
                      02249 ;       .line   1082; ../../../RF24_c/RF24_cg.c RF24_endTransaction();
00002E EC?? F0??      02250         CALL    _RF24_endTransaction
                      02251 ;       .line   1085; ../../../RF24_c/RF24_cg.c if(result > 32) { RF24_flush_rx();; delay(2); return 0; 
                            }
000032 0E21           02252         MOVLW   0x21
000034 5C??           02253         SUBWF   r0x00, W
000036 E3??           02254         BNC     _00571_DS_
000038 EC?? F0??      02255         CALL    _RF24_flush_rx
00003C 0E00           02256         MOVLW   0x00
Message[1301]: Using default destination of 0 (Access Bank).
00003E 6EE5           02257         MOVWF   POSTDEC1
000040 0E02           02258         MOVLW   0x02
Message[1301]: Using default destination of 0 (Access Bank).
000042 6EE5           02259         MOVWF   POSTDEC1
000044 EC?? F0??      02260         CALL    _delay
000048 52E6           02261         MOVF    POSTINC1, F
00004A 52E6           02262         MOVF    POSTINC1, F
Message[1301]: Using default destination of 0 (Access Bank).
00004C 6AE8           02263         CLRF    WREG
00004E D???           02264         BRA     _00572_DS_
000050                02265 _00571_DS_:
                      02266 ;       .line   1086; ../../../RF24_c/RF24_cg.c return result;
000050 50??           02267         MOVF    r0x00, W
000052                02268 _00572_DS_:
000052 CFE4 F000      02269         MOVFF   PREINC1, r0x00
000056 CFE4 FFD9      02270         MOVFF   PREINC1, FSR2L
00005A CFE4 FFDA      02271         MOVFF   PREINC1, FSR2H
00005E 0012           02272         RETURN  
                      02273 
                      02274 ; ; Starting pCode block
                      02275 S_RF24_cg__RF24_maskIRQ code
000000                02276 _RF24_maskIRQ:
                      02277 ;       .line   1055; ../../../RF24_c/RF24_cg.c void RF24_maskIRQ(uint8_t tx, uint8_t fail, uint8_t rx){
000000 CFDA FFE5      02278         MOVFF   FSR2H, POSTDEC1
000004 CFD9 FFE5      02279         MOVFF   FSR2L, POSTDEC1
000008 CFE2 FFDA      02280         MOVFF   FSR1H, FSR2H
00000C CFE1 FFD9      02281         MOVFF   FSR1L, FSR2L
000010 C??? F???      02282         MOVFF   r0x00, POSTDEC1
000014 C??? F???      02283         MOVFF   r0x01, POSTDEC1
000018 C??? F???      02284         MOVFF   r0x02, POSTDEC1
00001C C??? F???      02285         MOVFF   r0x03, POSTDEC1
000020 C??? F???      02286         MOVFF   r0x04, POSTDEC1
gpasm-1.4.0 #1107 (May  9 2015) build/sdcc/pr   12-2-2016  22:31:28         PAGE 50


LOC    OBJECT CODE    LINE  SOURCE TEXT
  VALUE

000024 C??? F???      02287         MOVFF   r0x05, POSTDEC1
000028 0E03           02288         MOVLW   0x03
00002A CFDB F000      02289         MOVFF   PLUSW2, r0x00
00002E 0E04           02290         MOVLW   0x04
000030 CFDB F000      02291         MOVFF   PLUSW2, r0x01
000034 0E05           02292         MOVLW   0x05
000036 CFDB F000      02293         MOVFF   PLUSW2, r0x02
                      02294 ;       .line   1057; ../../../RF24_c/RF24_cg.c uint8_t config = RF24_read_register_d(NRF_CONFIG);
00003A 0E00           02295         MOVLW   0x00
Message[1301]: Using default destination of 0 (Access Bank).
00003C 6EE5           02296         MOVWF   POSTDEC1
00003E EC?? F0??      02297         CALL    _RF24_read_register_d
Message[1301]: Using default destination of 0 (Access Bank).
000042 6E??           02298         MOVWF   r0x03
000044 52E6           02299         MOVF    POSTINC1, F
                      02300 ;       .line   1059; ../../../RF24_c/RF24_cg.c config &= ~(1 << MASK_MAX_RT | 1 << MASK_TX_DS | 1 << MA
                            SK_RX_DR);
000046 0E8F           02301         MOVLW   0x8f
000048 16??           02302         ANDWF   r0x03, F
                      02303 ;       .line   1061; ../../../RF24_c/RF24_cg.c config |= fail << MASK_MAX_RT | tx << MASK_TX_DS | rx <<
                             MASK_RX_DR;
00004A 38??           02304         SWAPF   r0x01, W
00004C 0BF0           02305         ANDLW   0xf0
Message[1301]: Using default destination of 0 (Access Bank).
00004E 6E??           02306         MOVWF   r0x04
000050 38??           02307         SWAPF   r0x00, W
000052 44E8           02308         RLNCF   WREG, W
000054 0BE0           02309         ANDLW   0xe0
Message[1301]: Using default destination of 0 (Access Bank).
000056 6E??           02310         MOVWF   r0x05
000058 50??           02311         MOVF    r0x05, W
00005A 10??           02312         IORWF   r0x04, W
Message[1301]: Using default destination of 0 (Access Bank).
00005C 6E??           02313         MOVWF   r0x00
00005E 40??           02314         RRNCF   r0x02, W
000060 40E8           02315         RRNCF   WREG, W
000062 0BC0           02316         ANDLW   0xc0
Message[1301]: Using default destination of 0 (Access Bank).
000064 6E??           02317         MOVWF   r0x01
000066 50??           02318         MOVF    r0x01, W
000068 10??           02319         IORWF   r0x00, W
Message[1301]: Using default destination of 0 (Access Bank).
00006A 6E??           02320         MOVWF   r0x02
00006C 50??           02321         MOVF    r0x02, W
00006E 12??           02322         IORWF   r0x03, F
                      02323 ;       .line   1062; ../../../RF24_c/RF24_cg.c RF24_write_register_d(NRF_CONFIG, config);
000070 50??           02324         MOVF    r0x03, W
Message[1301]: Using default destination of 0 (Access Bank).
000072 6EE5           02325         MOVWF   POSTDEC1
000074 0E00           02326         MOVLW   0x00
Message[1301]: Using default destination of 0 (Access Bank).
000076 6EE5           02327         MOVWF   POSTDEC1
000078 EC?? F0??      02328         CALL    _RF24_write_register_d
gpasm-1.4.0 #1107 (May  9 2015) build/sdcc/pr   12-2-2016  22:31:28         PAGE 51


LOC    OBJECT CODE    LINE  SOURCE TEXT
  VALUE

00007C 52E6           02329         MOVF    POSTINC1, F
00007E 52E6           02330         MOVF    POSTINC1, F
000080 CFE4 F000      02331         MOVFF   PREINC1, r0x05
000084 CFE4 F000      02332         MOVFF   PREINC1, r0x04
000088 CFE4 F000      02333         MOVFF   PREINC1, r0x03
00008C CFE4 F000      02334         MOVFF   PREINC1, r0x02
000090 CFE4 F000      02335         MOVFF   PREINC1, r0x01
000094 CFE4 F000      02336         MOVFF   PREINC1, r0x00
000098 CFE4 FFD9      02337         MOVFF   PREINC1, FSR2L
00009C CFE4 FFDA      02338         MOVFF   PREINC1, FSR2H
0000A0 0012           02339         RETURN  
                      02340 
                      02341 ; ; Starting pCode block
                      02342 S_RF24_cg__RF24_txStandBy_t     code
000000                02343 _RF24_txStandBy_t:
                      02344 ;       .line   1018; ../../../RF24_c/RF24_cg.c uint8_t RF24_txStandBy_t(uint32_t timeout, uint8_t start
                            Tx){
000000 CFDA FFE5      02345         MOVFF   FSR2H, POSTDEC1
000004 CFD9 FFE5      02346         MOVFF   FSR2L, POSTDEC1
000008 CFE2 FFDA      02347         MOVFF   FSR1H, FSR2H
00000C CFE1 FFD9      02348         MOVFF   FSR1L, FSR2L
000010 C??? F???      02349         MOVFF   r0x00, POSTDEC1
000014 C??? F???      02350         MOVFF   r0x01, POSTDEC1
000018 C??? F???      02351         MOVFF   r0x02, POSTDEC1
00001C C??? F???      02352         MOVFF   r0x03, POSTDEC1
000020 C??? F???      02353         MOVFF   r0x04, POSTDEC1
000024 C??? F???      02354         MOVFF   r0x05, POSTDEC1
000028 C??? F???      02355         MOVFF   r0x06, POSTDEC1
00002C C??? F???      02356         MOVFF   r0x07, POSTDEC1
000030 C??? F???      02357         MOVFF   r0x08, POSTDEC1
000034 C??? F???      02358         MOVFF   r0x09, POSTDEC1
000038 C??? F???      02359         MOVFF   r0x0a, POSTDEC1
00003C C??? F???      02360         MOVFF   r0x0b, POSTDEC1
000040 0E03           02361         MOVLW   0x03
000042 CFDB F000      02362         MOVFF   PLUSW2, r0x00
000046 0E04           02363         MOVLW   0x04
000048 CFDB F000      02364         MOVFF   PLUSW2, r0x01
00004C 0E05           02365         MOVLW   0x05
00004E CFDB F000      02366         MOVFF   PLUSW2, r0x02
000052 0E06           02367         MOVLW   0x06
000054 CFDB F000      02368         MOVFF   PLUSW2, r0x03
000058 0E07           02369         MOVLW   0x07
00005A CFDB F000      02370         MOVFF   PLUSW2, r0x04
                      02371 ;       .line   1021; ../../../RF24_c/RF24_cg.c if(startTx){
00005E 50??           02372         MOVF    r0x04, W
000060 E0??           02373         BZ      _00533_DS_
                      02374 ;       .line   1022; ../../../RF24_c/RF24_cg.c RF24_stopListening();
000062 EC?? F0??      02375         CALL    _RF24_stopListening
                      02376 ;       .line   1023; ../../../RF24_c/RF24_cg.c RF24_ce_d(HIGH);
000066 0E01           02377         MOVLW   0x01
Message[1301]: Using default destination of 0 (Access Bank).
000068 6EE5           02378         MOVWF   POSTDEC1
00006A EC?? F0??      02379         CALL    _RF24_ce_d
gpasm-1.4.0 #1107 (May  9 2015) build/sdcc/pr   12-2-2016  22:31:28         PAGE 52


LOC    OBJECT CODE    LINE  SOURCE TEXT
  VALUE

00006E 52E6           02380         MOVF    POSTINC1, F
000070                02381 _00533_DS_:
                      02382 ;       .line   1026; ../../../RF24_c/RF24_cg.c start = millis();
000070 EC?? F0??      02383         CALL    _millis
Message[1301]: Using default destination of 0 (Access Bank).
000074 6E??           02384         MOVWF   r0x04
000076 CFF3 F000      02385         MOVFF   PRODL, r0x05
00007A CFF4 F000      02386         MOVFF   PRODH, r0x06
00007E CFE9 F000      02387         MOVFF   FSR0L, r0x07
000082                02388 _00538_DS_:
                      02389 ;       .line   1028; ../../../RF24_c/RF24_cg.c while( ! (RF24_read_register_d(FIFO_STATUS) & _BV(TX_EMP
                            TY)) ){
000082 0E17           02390         MOVLW   0x17
Message[1301]: Using default destination of 0 (Access Bank).
000084 6EE5           02391         MOVWF   POSTDEC1
000086 EC?? F0??      02392         CALL    _RF24_read_register_d
Message[1301]: Using default destination of 0 (Access Bank).
00008A 6E??           02393         MOVWF   r0x08
00008C 52E6           02394         MOVF    POSTINC1, F
00008E B8??           02395         BTFSC   r0x08, 4
000090 D???           02396         BRA     _00540_DS_
                      02397 ;       .line   1029; ../../../RF24_c/RF24_cg.c if( RF24_get_status() & _BV(MAX_RT)){
000092 EC?? F0??      02398         CALL    _RF24_get_status
Message[1301]: Using default destination of 0 (Access Bank).
000096 6E??           02399         MOVWF   r0x08
000098 A8??           02400         BTFSS   r0x08, 4
00009A D???           02401         BRA     _00538_DS_
                      02402 ;       .line   1030; ../../../RF24_c/RF24_cg.c RF24_write_register_d(NRF_STATUS,_BV(MAX_RT) );
00009C 0E10           02403         MOVLW   0x10
Message[1301]: Using default destination of 0 (Access Bank).
00009E 6EE5           02404         MOVWF   POSTDEC1
0000A0 0E07           02405         MOVLW   0x07
Message[1301]: Using default destination of 0 (Access Bank).
0000A2 6EE5           02406         MOVWF   POSTDEC1
0000A4 EC?? F0??      02407         CALL    _RF24_write_register_d
0000A8 52E6           02408         MOVF    POSTINC1, F
0000AA 52E6           02409         MOVF    POSTINC1, F
                      02410 ;       .line   1031; ../../../RF24_c/RF24_cg.c RF24_ce_d(LOW);                                         
                                                              //Set re-transmit
0000AC 0E00           02411         MOVLW   0x00
Message[1301]: Using default destination of 0 (Access Bank).
0000AE 6EE5           02412         MOVWF   POSTDEC1
0000B0 EC?? F0??      02413         CALL    _RF24_ce_d
0000B4 52E6           02414         MOVF    POSTINC1, F
                      02415 ;       .line   1032; ../../../RF24_c/RF24_cg.c RF24_ce_d(HIGH);
0000B6 0E01           02416         MOVLW   0x01
Message[1301]: Using default destination of 0 (Access Bank).
0000B8 6EE5           02417         MOVWF   POSTDEC1
0000BA EC?? F0??      02418         CALL    _RF24_ce_d
0000BE 52E6           02419         MOVF    POSTINC1, F
                      02420 ;       .line   1033; ../../../RF24_c/RF24_cg.c if(millis() - start >= timeout){
0000C0 EC?? F0??      02421         CALL    _millis
Message[1301]: Using default destination of 0 (Access Bank).
gpasm-1.4.0 #1107 (May  9 2015) build/sdcc/pr   12-2-2016  22:31:28         PAGE 53


LOC    OBJECT CODE    LINE  SOURCE TEXT
  VALUE

0000C4 6E??           02422         MOVWF   r0x08
0000C6 CFF3 F000      02423         MOVFF   PRODL, r0x09
0000CA CFF4 F000      02424         MOVFF   PRODH, r0x0a
0000CE CFE9 F000      02425         MOVFF   FSR0L, r0x0b
0000D2 50??           02426         MOVF    r0x04, W
0000D4 5E??           02427         SUBWF   r0x08, F
0000D6 50??           02428         MOVF    r0x05, W
0000D8 5A??           02429         SUBWFB  r0x09, F
0000DA 50??           02430         MOVF    r0x06, W
0000DC 5A??           02431         SUBWFB  r0x0a, F
0000DE 50??           02432         MOVF    r0x07, W
0000E0 5A??           02433         SUBWFB  r0x0b, F
0000E2 50??           02434         MOVF    r0x03, W
0000E4 5C??           02435         SUBWF   r0x0b, W
0000E6 E1??           02436         BNZ     _00560_DS_
0000E8 50??           02437         MOVF    r0x02, W
0000EA 5C??           02438         SUBWF   r0x0a, W
0000EC E1??           02439         BNZ     _00560_DS_
0000EE 50??           02440         MOVF    r0x01, W
0000F0 5C??           02441         SUBWF   r0x09, W
0000F2 E1??           02442         BNZ     _00560_DS_
0000F4 50??           02443         MOVF    r0x00, W
0000F6 5C??           02444         SUBWF   r0x08, W
0000F8                02445 _00560_DS_:
0000F8 A0D8           02446         BTFSS   STATUS, 0
0000FA D???           02447         BRA     _00538_DS_
                      02448 ;       .line   1034; ../../../RF24_c/RF24_cg.c RF24_ce_d(LOW); RF24_flush_tx();; return 0;
0000FC 0E00           02449         MOVLW   0x00
Message[1301]: Using default destination of 0 (Access Bank).
0000FE 6EE5           02450         MOVWF   POSTDEC1
000100 EC?? F0??      02451         CALL    _RF24_ce_d
000104 52E6           02452         MOVF    POSTINC1, F
000106 EC?? F0??      02453         CALL    _RF24_flush_tx
Message[1301]: Using default destination of 0 (Access Bank).
00010A 6AE8           02454         CLRF    WREG
00010C D???           02455         BRA     _00541_DS_
00010E                02456 _00540_DS_:
                      02457 ;       .line   1048; ../../../RF24_c/RF24_cg.c RF24_ce_d(LOW);                            //Set STANDBY
                            -I mode
00010E 0E00           02458         MOVLW   0x00
Message[1301]: Using default destination of 0 (Access Bank).
000110 6EE5           02459         MOVWF   POSTDEC1
000112 EC?? F0??      02460         CALL    _RF24_ce_d
000116 52E6           02461         MOVF    POSTINC1, F
                      02462 ;       .line   1049; ../../../RF24_c/RF24_cg.c return 1;
000118 0E01           02463         MOVLW   0x01
00011A                02464 _00541_DS_:
00011A CFE4 F000      02465         MOVFF   PREINC1, r0x0b
00011E CFE4 F000      02466         MOVFF   PREINC1, r0x0a
000122 CFE4 F000      02467         MOVFF   PREINC1, r0x09
000126 CFE4 F000      02468         MOVFF   PREINC1, r0x08
00012A CFE4 F000      02469         MOVFF   PREINC1, r0x07
00012E CFE4 F000      02470         MOVFF   PREINC1, r0x06
gpasm-1.4.0 #1107 (May  9 2015) build/sdcc/pr   12-2-2016  22:31:28         PAGE 54


LOC    OBJECT CODE    LINE  SOURCE TEXT
  VALUE

000132 CFE4 F000      02471         MOVFF   PREINC1, r0x05
000136 CFE4 F000      02472         MOVFF   PREINC1, r0x04
00013A CFE4 F000      02473         MOVFF   PREINC1, r0x03
00013E CFE4 F000      02474         MOVFF   PREINC1, r0x02
000142 CFE4 F000      02475         MOVFF   PREINC1, r0x01
000146 CFE4 F000      02476         MOVFF   PREINC1, r0x00
00014A CFE4 FFD9      02477         MOVFF   PREINC1, FSR2L
00014E CFE4 FFDA      02478         MOVFF   PREINC1, FSR2H
000152 0012           02479         RETURN  
                      02480 
                      02481 ; ; Starting pCode block
                      02482 S_RF24_cg__RF24_txStandBy       code
000000                02483 _RF24_txStandBy:
                      02484 ;       .line   990; ../../../RF24_c/RF24_cg.c  uint8_t RF24_txStandBy(void){
000000 CFDA FFE5      02485         MOVFF   FSR2H, POSTDEC1
000004 CFD9 FFE5      02486         MOVFF   FSR2L, POSTDEC1
000008 CFE2 FFDA      02487         MOVFF   FSR1H, FSR2H
00000C CFE1 FFD9      02488         MOVFF   FSR1L, FSR2L
000010 C??? F???      02489         MOVFF   r0x00, POSTDEC1
000014                02490 _00512_DS_:
                      02491 ;       .line   995; ../../../RF24_c/RF24_cg.c  while( ! (RF24_read_register_d(FIFO_STATUS) & _BV(TX_EMP
                            TY)) ){
000014 0E17           02492         MOVLW   0x17
Message[1301]: Using default destination of 0 (Access Bank).
000016 6EE5           02493         MOVWF   POSTDEC1
000018 EC?? F0??      02494         CALL    _RF24_read_register_d
Message[1301]: Using default destination of 0 (Access Bank).
00001C 6E??           02495         MOVWF   r0x00
00001E 52E6           02496         MOVF    POSTINC1, F
000020 B8??           02497         BTFSC   r0x00, 4
000022 D???           02498         BRA     _00514_DS_
                      02499 ;       .line   996; ../../../RF24_c/RF24_cg.c  if( RF24_get_status() & _BV(MAX_RT)){
000024 EC?? F0??      02500         CALL    _RF24_get_status
Message[1301]: Using default destination of 0 (Access Bank).
000028 6E??           02501         MOVWF   r0x00
00002A A8??           02502         BTFSS   r0x00, 4
00002C D???           02503         BRA     _00512_DS_
                      02504 ;       .line   997; ../../../RF24_c/RF24_cg.c  RF24_write_register_d(NRF_STATUS,_BV(MAX_RT) );
00002E 0E10           02505         MOVLW   0x10
Message[1301]: Using default destination of 0 (Access Bank).
000030 6EE5           02506         MOVWF   POSTDEC1
000032 0E07           02507         MOVLW   0x07
Message[1301]: Using default destination of 0 (Access Bank).
000034 6EE5           02508         MOVWF   POSTDEC1
000036 EC?? F0??      02509         CALL    _RF24_write_register_d
00003A 52E6           02510         MOVF    POSTINC1, F
00003C 52E6           02511         MOVF    POSTINC1, F
                      02512 ;       .line   998; ../../../RF24_c/RF24_cg.c  RF24_ce_d(LOW);
00003E 0E00           02513         MOVLW   0x00
Message[1301]: Using default destination of 0 (Access Bank).
000040 6EE5           02514         MOVWF   POSTDEC1
000042 EC?? F0??      02515         CALL    _RF24_ce_d
000046 52E6           02516         MOVF    POSTINC1, F
gpasm-1.4.0 #1107 (May  9 2015) build/sdcc/pr   12-2-2016  22:31:28         PAGE 55


LOC    OBJECT CODE    LINE  SOURCE TEXT
  VALUE

                      02517 ;       .line   999; ../../../RF24_c/RF24_cg.c  RF24_flush_tx();;    //Non blocking, flush the data
000048 EC?? F0??      02518         CALL    _RF24_flush_tx
                      02519 ;       .line   1000; ../../../RF24_c/RF24_cg.c return 0;
Message[1301]: Using default destination of 0 (Access Bank).
00004C 6AE8           02520         CLRF    WREG
00004E D???           02521         BRA     _00515_DS_
000050                02522 _00514_DS_:
                      02523 ;       .line   1012; ../../../RF24_c/RF24_cg.c RF24_ce_d(LOW);                    //Set STANDBY-I mode
000050 0E00           02524         MOVLW   0x00
Message[1301]: Using default destination of 0 (Access Bank).
000052 6EE5           02525         MOVWF   POSTDEC1
000054 EC?? F0??      02526         CALL    _RF24_ce_d
000058 52E6           02527         MOVF    POSTINC1, F
                      02528 ;       .line   1013; ../../../RF24_c/RF24_cg.c return 1;
00005A 0E01           02529         MOVLW   0x01
00005C                02530 _00515_DS_:
00005C CFE4 F000      02531         MOVFF   PREINC1, r0x00
000060 CFE4 FFD9      02532         MOVFF   PREINC1, FSR2L
000064 CFE4 FFDA      02533         MOVFF   PREINC1, FSR2H
000068 0012           02534         RETURN  
                      02535 
                      02536 ; ; Starting pCode block
                      02537 S_RF24_cg__RF24_rxFifoFull      code
000000                02538 _RF24_rxFifoFull:
                      02539 ;       .line   985; ../../../RF24_c/RF24_cg.c  uint8_t RF24_rxFifoFull(void){
000000 CFDA FFE5      02540         MOVFF   FSR2H, POSTDEC1
000004 CFD9 FFE5      02541         MOVFF   FSR2L, POSTDEC1
000008 CFE2 FFDA      02542         MOVFF   FSR1H, FSR2H
00000C CFE1 FFD9      02543         MOVFF   FSR1L, FSR2L
000010 C??? F???      02544         MOVFF   r0x00, POSTDEC1
                      02545 ;       .line   986; ../../../RF24_c/RF24_cg.c  return RF24_read_register_d(FIFO_STATUS) & _BV(RX_FULL);
000014 0E17           02546         MOVLW   0x17
Message[1301]: Using default destination of 0 (Access Bank).
000016 6EE5           02547         MOVWF   POSTDEC1
000018 EC?? F0??      02548         CALL    _RF24_read_register_d
Message[1301]: Using default destination of 0 (Access Bank).
00001C 6E??           02549         MOVWF   r0x00
00001E 52E6           02550         MOVF    POSTINC1, F
000020 0E02           02551         MOVLW   0x02
000022 16??           02552         ANDWF   r0x00, F
000024 50??           02553         MOVF    r0x00, W
000026 CFE4 F000      02554         MOVFF   PREINC1, r0x00
00002A CFE4 FFD9      02555         MOVFF   PREINC1, FSR2L
00002E CFE4 FFDA      02556         MOVFF   PREINC1, FSR2H
000032 0012           02557         RETURN  
                      02558 
                      02559 ; ; Starting pCode block
                      02560 S_RF24_cg__RF24_startWrite      code
000000                02561 _RF24_startWrite:
                      02562 ;       .line   968; ../../../RF24_c/RF24_cg.c  void RF24_startWrite(const void* buf, uint8_t len, const
                             uint8_t multicast ){
000000 CFDA FFE5      02563         MOVFF   FSR2H, POSTDEC1
000004 CFD9 FFE5      02564         MOVFF   FSR2L, POSTDEC1
gpasm-1.4.0 #1107 (May  9 2015) build/sdcc/pr   12-2-2016  22:31:28         PAGE 56


LOC    OBJECT CODE    LINE  SOURCE TEXT
  VALUE

000008 CFE2 FFDA      02565         MOVFF   FSR1H, FSR2H
00000C CFE1 FFD9      02566         MOVFF   FSR1L, FSR2L
000010 C??? F???      02567         MOVFF   r0x00, POSTDEC1
000014 C??? F???      02568         MOVFF   r0x01, POSTDEC1
000018 C??? F???      02569         MOVFF   r0x02, POSTDEC1
00001C C??? F???      02570         MOVFF   r0x03, POSTDEC1
000020 C??? F???      02571         MOVFF   r0x04, POSTDEC1
000024 0E03           02572         MOVLW   0x03
000026 CFDB F000      02573         MOVFF   PLUSW2, r0x00
00002A 0E04           02574         MOVLW   0x04
00002C CFDB F000      02575         MOVFF   PLUSW2, r0x01
000030 0E05           02576         MOVLW   0x05
000032 CFDB F000      02577         MOVFF   PLUSW2, r0x02
000036 0E06           02578         MOVLW   0x06
000038 CFDB F000      02579         MOVFF   PLUSW2, r0x03
00003C 0E07           02580         MOVLW   0x07
00003E CFDB F000      02581         MOVFF   PLUSW2, r0x04
                      02582 ;       .line   973; ../../../RF24_c/RF24_cg.c  RF24_write_payload( buf, len,multicast? W_TX_PAYLOAD_NO_
                            ACK : W_TX_PAYLOAD ) ;
000042 50??           02583         MOVF    r0x04, W
000044 E0??           02584         BZ      _00499_DS_
000046 0EB0           02585         MOVLW   0xb0
Message[1301]: Using default destination of 0 (Access Bank).
000048 6E??           02586         MOVWF   r0x04
00004A D???           02587         BRA     _00500_DS_
00004C                02588 _00499_DS_:
00004C 0EA0           02589         MOVLW   0xa0
Message[1301]: Using default destination of 0 (Access Bank).
00004E 6E??           02590         MOVWF   r0x04
000050                02591 _00500_DS_:
000050 50??           02592         MOVF    r0x04, W
Message[1301]: Using default destination of 0 (Access Bank).
000052 6EE5           02593         MOVWF   POSTDEC1
000054 50??           02594         MOVF    r0x03, W
Message[1301]: Using default destination of 0 (Access Bank).
000056 6EE5           02595         MOVWF   POSTDEC1
000058 50??           02596         MOVF    r0x02, W
Message[1301]: Using default destination of 0 (Access Bank).
00005A 6EE5           02597         MOVWF   POSTDEC1
00005C 50??           02598         MOVF    r0x01, W
Message[1301]: Using default destination of 0 (Access Bank).
00005E 6EE5           02599         MOVWF   POSTDEC1
000060 50??           02600         MOVF    r0x00, W
Message[1301]: Using default destination of 0 (Access Bank).
000062 6EE5           02601         MOVWF   POSTDEC1
000064 EC?? F0??      02602         CALL    _RF24_write_payload
000068 0E05           02603         MOVLW   0x05
00006A 26E1           02604         ADDWF   FSR1L, F
00006C B0D8           02605         BTFSC   STATUS, 0
00006E 2AE2           02606         INCF    FSR1H, F
                      02607 ;       .line   974; ../../../RF24_c/RF24_cg.c  RF24_ce_d(HIGH);
000070 0E01           02608         MOVLW   0x01
Message[1301]: Using default destination of 0 (Access Bank).
gpasm-1.4.0 #1107 (May  9 2015) build/sdcc/pr   12-2-2016  22:31:28         PAGE 57


LOC    OBJECT CODE    LINE  SOURCE TEXT
  VALUE

000072 6EE5           02609         MOVWF   POSTDEC1
000074 EC?? F0??      02610         CALL    _RF24_ce_d
000078 52E6           02611         MOVF    POSTINC1, F
                      02612 ;       .line   976; ../../../RF24_c/RF24_cg.c  delayMicroseconds(10);
00007A 0E0A           02613         MOVLW   0x0a
Message[1301]: Using default destination of 0 (Access Bank).
00007C 6EE5           02614         MOVWF   POSTDEC1
00007E EC?? F0??      02615         CALL    _delayMicroseconds
000082 52E6           02616         MOVF    POSTINC1, F
                      02617 ;       .line   978; ../../../RF24_c/RF24_cg.c  RF24_ce_d(LOW);
000084 0E00           02618         MOVLW   0x00
Message[1301]: Using default destination of 0 (Access Bank).
000086 6EE5           02619         MOVWF   POSTDEC1
000088 EC?? F0??      02620         CALL    _RF24_ce_d
00008C 52E6           02621         MOVF    POSTINC1, F
00008E CFE4 F000      02622         MOVFF   PREINC1, r0x04
000092 CFE4 F000      02623         MOVFF   PREINC1, r0x03
000096 CFE4 F000      02624         MOVFF   PREINC1, r0x02
00009A CFE4 F000      02625         MOVFF   PREINC1, r0x01
00009E CFE4 F000      02626         MOVFF   PREINC1, r0x00
0000A2 CFE4 FFD9      02627         MOVFF   PREINC1, FSR2L
0000A6 CFE4 FFDA      02628         MOVFF   PREINC1, FSR2H
0000AA 0012           02629         RETURN  
                      02630 
                      02631 ; ; Starting pCode block
                      02632 S_RF24_cg__RF24_startFastWrite  code
000000                02633 _RF24_startFastWrite:
                      02634 ;       .line   954; ../../../RF24_c/RF24_cg.c  void RF24_startFastWrite(const void* buf, uint8_t len, c
                            onst uint8_t multicast, uint8_t startTx){ //TMRh20
000000 CFDA FFE5      02635         MOVFF   FSR2H, POSTDEC1
000004 CFD9 FFE5      02636         MOVFF   FSR2L, POSTDEC1
000008 CFE2 FFDA      02637         MOVFF   FSR1H, FSR2H
00000C CFE1 FFD9      02638         MOVFF   FSR1L, FSR2L
000010 C??? F???      02639         MOVFF   r0x00, POSTDEC1
000014 C??? F???      02640         MOVFF   r0x01, POSTDEC1
000018 C??? F???      02641         MOVFF   r0x02, POSTDEC1
00001C C??? F???      02642         MOVFF   r0x03, POSTDEC1
000020 C??? F???      02643         MOVFF   r0x04, POSTDEC1
000024 C??? F???      02644         MOVFF   r0x05, POSTDEC1
000028 0E03           02645         MOVLW   0x03
00002A CFDB F000      02646         MOVFF   PLUSW2, r0x00
00002E 0E04           02647         MOVLW   0x04
000030 CFDB F000      02648         MOVFF   PLUSW2, r0x01
000034 0E05           02649         MOVLW   0x05
000036 CFDB F000      02650         MOVFF   PLUSW2, r0x02
00003A 0E06           02651         MOVLW   0x06
00003C CFDB F000      02652         MOVFF   PLUSW2, r0x03
000040 0E07           02653         MOVLW   0x07
000042 CFDB F000      02654         MOVFF   PLUSW2, r0x04
000046 0E08           02655         MOVLW   0x08
000048 CFDB F000      02656         MOVFF   PLUSW2, r0x05
                      02657 ;       .line   957; ../../../RF24_c/RF24_cg.c  RF24_write_payload( buf, len,multicast ? W_TX_PAYLOAD_NO
                            _ACK : W_TX_PAYLOAD ) ;
gpasm-1.4.0 #1107 (May  9 2015) build/sdcc/pr   12-2-2016  22:31:28         PAGE 58


LOC    OBJECT CODE    LINE  SOURCE TEXT
  VALUE

00004C 50??           02658         MOVF    r0x04, W
00004E E0??           02659         BZ      _00491_DS_
000050 0EB0           02660         MOVLW   0xb0
Message[1301]: Using default destination of 0 (Access Bank).
000052 6E??           02661         MOVWF   r0x04
000054 D???           02662         BRA     _00492_DS_
000056                02663 _00491_DS_:
000056 0EA0           02664         MOVLW   0xa0
Message[1301]: Using default destination of 0 (Access Bank).
000058 6E??           02665         MOVWF   r0x04
00005A                02666 _00492_DS_:
00005A 50??           02667         MOVF    r0x04, W
Message[1301]: Using default destination of 0 (Access Bank).
00005C 6EE5           02668         MOVWF   POSTDEC1
00005E 50??           02669         MOVF    r0x03, W
Message[1301]: Using default destination of 0 (Access Bank).
000060 6EE5           02670         MOVWF   POSTDEC1
000062 50??           02671         MOVF    r0x02, W
Message[1301]: Using default destination of 0 (Access Bank).
000064 6EE5           02672         MOVWF   POSTDEC1
000066 50??           02673         MOVF    r0x01, W
Message[1301]: Using default destination of 0 (Access Bank).
000068 6EE5           02674         MOVWF   POSTDEC1
00006A 50??           02675         MOVF    r0x00, W
Message[1301]: Using default destination of 0 (Access Bank).
00006C 6EE5           02676         MOVWF   POSTDEC1
00006E EC?? F0??      02677         CALL    _RF24_write_payload
000072 0E05           02678         MOVLW   0x05
000074 26E1           02679         ADDWF   FSR1L, F
000076 B0D8           02680         BTFSC   STATUS, 0
000078 2AE2           02681         INCF    FSR1H, F
                      02682 ;       .line   958; ../../../RF24_c/RF24_cg.c  if(startTx){
00007A 50??           02683         MOVF    r0x05, W
00007C E0??           02684         BZ      _00489_DS_
                      02685 ;       .line   959; ../../../RF24_c/RF24_cg.c  RF24_ce_d(HIGH);
00007E 0E01           02686         MOVLW   0x01
Message[1301]: Using default destination of 0 (Access Bank).
000080 6EE5           02687         MOVWF   POSTDEC1
000082 EC?? F0??      02688         CALL    _RF24_ce_d
000086 52E6           02689         MOVF    POSTINC1, F
000088                02690 _00489_DS_:
000088 CFE4 F000      02691         MOVFF   PREINC1, r0x05
00008C CFE4 F000      02692         MOVFF   PREINC1, r0x04
000090 CFE4 F000      02693         MOVFF   PREINC1, r0x03
000094 CFE4 F000      02694         MOVFF   PREINC1, r0x02
000098 CFE4 F000      02695         MOVFF   PREINC1, r0x01
00009C CFE4 F000      02696         MOVFF   PREINC1, r0x00
0000A0 CFE4 FFD9      02697         MOVFF   PREINC1, FSR2L
0000A4 CFE4 FFDA      02698         MOVFF   PREINC1, FSR2H
0000A8 0012           02699         RETURN  
                      02700 
                      02701 ; ; Starting pCode block
                      02702 S_RF24_cg__RF24_writeFast       code
gpasm-1.4.0 #1107 (May  9 2015) build/sdcc/pr   12-2-2016  22:31:28         PAGE 59


LOC    OBJECT CODE    LINE  SOURCE TEXT
  VALUE

000000                02703 _RF24_writeFast:
                      02704 ;       .line   943; ../../../RF24_c/RF24_cg.c  uint8_t RF24_writeFast(const void* buf, uint8_t len ){
000000 CFDA FFE5      02705         MOVFF   FSR2H, POSTDEC1
000004 CFD9 FFE5      02706         MOVFF   FSR2L, POSTDEC1
000008 CFE2 FFDA      02707         MOVFF   FSR1H, FSR2H
00000C CFE1 FFD9      02708         MOVFF   FSR1L, FSR2L
000010 C??? F???      02709         MOVFF   r0x00, POSTDEC1
000014 C??? F???      02710         MOVFF   r0x01, POSTDEC1
000018 C??? F???      02711         MOVFF   r0x02, POSTDEC1
00001C C??? F???      02712         MOVFF   r0x03, POSTDEC1
000020 0E03           02713         MOVLW   0x03
000022 CFDB F000      02714         MOVFF   PLUSW2, r0x00
000026 0E04           02715         MOVLW   0x04
000028 CFDB F000      02716         MOVFF   PLUSW2, r0x01
00002C 0E05           02717         MOVLW   0x05
00002E CFDB F000      02718         MOVFF   PLUSW2, r0x02
000032 0E06           02719         MOVLW   0x06
000034 CFDB F000      02720         MOVFF   PLUSW2, r0x03
                      02721 ;       .line   944; ../../../RF24_c/RF24_cg.c  return RF24_writeFast_m(buf,len,0);
000038 0E00           02722         MOVLW   0x00
Message[1301]: Using default destination of 0 (Access Bank).
00003A 6EE5           02723         MOVWF   POSTDEC1
00003C 50??           02724         MOVF    r0x03, W
Message[1301]: Using default destination of 0 (Access Bank).
00003E 6EE5           02725         MOVWF   POSTDEC1
000040 50??           02726         MOVF    r0x02, W
Message[1301]: Using default destination of 0 (Access Bank).
000042 6EE5           02727         MOVWF   POSTDEC1
000044 50??           02728         MOVF    r0x01, W
Message[1301]: Using default destination of 0 (Access Bank).
000046 6EE5           02729         MOVWF   POSTDEC1
000048 50??           02730         MOVF    r0x00, W
Message[1301]: Using default destination of 0 (Access Bank).
00004A 6EE5           02731         MOVWF   POSTDEC1
00004C EC?? F0??      02732         CALL    _RF24_writeFast_m
Message[1301]: Using default destination of 0 (Access Bank).
000050 6E??           02733         MOVWF   r0x00
000052 0E05           02734         MOVLW   0x05
000054 26E1           02735         ADDWF   FSR1L, F
000056 B0D8           02736         BTFSC   STATUS, 0
000058 2AE2           02737         INCF    FSR1H, F
00005A 50??           02738         MOVF    r0x00, W
00005C CFE4 F000      02739         MOVFF   PREINC1, r0x03
000060 CFE4 F000      02740         MOVFF   PREINC1, r0x02
000064 CFE4 F000      02741         MOVFF   PREINC1, r0x01
000068 CFE4 F000      02742         MOVFF   PREINC1, r0x00
00006C CFE4 FFD9      02743         MOVFF   PREINC1, FSR2L
000070 CFE4 FFDA      02744         MOVFF   PREINC1, FSR2H
000074 0012           02745         RETURN  
                      02746 
                      02747 ; ; Starting pCode block
                      02748 S_RF24_cg__RF24_writeFast_m     code
000000                02749 _RF24_writeFast_m:
gpasm-1.4.0 #1107 (May  9 2015) build/sdcc/pr   12-2-2016  22:31:28         PAGE 60


LOC    OBJECT CODE    LINE  SOURCE TEXT
  VALUE

                      02750 ;       .line   909; ../../../RF24_c/RF24_cg.c  uint8_t RF24_writeFast_m( const void* buf, uint8_t len, 
                            const uint8_t multicast )
000000 CFDA FFE5      02751         MOVFF   FSR2H, POSTDEC1
000004 CFD9 FFE5      02752         MOVFF   FSR2L, POSTDEC1
000008 CFE2 FFDA      02753         MOVFF   FSR1H, FSR2H
00000C CFE1 FFD9      02754         MOVFF   FSR1L, FSR2L
000010 C??? F???      02755         MOVFF   r0x00, POSTDEC1
000014 C??? F???      02756         MOVFF   r0x01, POSTDEC1
000018 C??? F???      02757         MOVFF   r0x02, POSTDEC1
00001C C??? F???      02758         MOVFF   r0x03, POSTDEC1
000020 C??? F???      02759         MOVFF   r0x04, POSTDEC1
000024 C??? F???      02760         MOVFF   r0x05, POSTDEC1
000028 0E03           02761         MOVLW   0x03
00002A CFDB F000      02762         MOVFF   PLUSW2, r0x00
00002E 0E04           02763         MOVLW   0x04
000030 CFDB F000      02764         MOVFF   PLUSW2, r0x01
000034 0E05           02765         MOVLW   0x05
000036 CFDB F000      02766         MOVFF   PLUSW2, r0x02
00003A 0E06           02767         MOVLW   0x06
00003C CFDB F000      02768         MOVFF   PLUSW2, r0x03
000040 0E07           02769         MOVLW   0x07
000042 CFDB F000      02770         MOVFF   PLUSW2, r0x04
000046                02771 _00462_DS_:
                      02772 ;       .line   920; ../../../RF24_c/RF24_cg.c  while( ( RF24_get_status()  & ( _BV(TX_FULL) ))) {      
                                              //Blocking only if FIFO is full. This will loop and block until TX is successful or fa
                            il
000046 EC?? F0??      02773         CALL    _RF24_get_status
Message[1301]: Using default destination of 0 (Access Bank).
00004A 6E??           02774         MOVWF   r0x05
00004C A0??           02775         BTFSS   r0x05, 0
00004E D???           02776         BRA     _00464_DS_
                      02777 ;       .line   922; ../../../RF24_c/RF24_cg.c  if( RF24_get_status() & _BV(MAX_RT)){
000050 EC?? F0??      02778         CALL    _RF24_get_status
Message[1301]: Using default destination of 0 (Access Bank).
000054 6E??           02779         MOVWF   r0x05
000056 A8??           02780         BTFSS   r0x05, 4
000058 D???           02781         BRA     _00462_DS_
                      02782 ;       .line   924; ../../../RF24_c/RF24_cg.c  RF24_write_register_d(NRF_STATUS,_BV(MAX_RT) );         
                                      //Clear max retry flag
00005A 0E10           02783         MOVLW   0x10
Message[1301]: Using default destination of 0 (Access Bank).
00005C 6EE5           02784         MOVWF   POSTDEC1
00005E 0E07           02785         MOVLW   0x07
Message[1301]: Using default destination of 0 (Access Bank).
000060 6EE5           02786         MOVWF   POSTDEC1
000062 EC?? F0??      02787         CALL    _RF24_write_register_d
000066 52E6           02788         MOVF    POSTINC1, F
000068 52E6           02789         MOVF    POSTINC1, F
                      02790 ;       .line   925; ../../../RF24_c/RF24_cg.c  return 0;                                               
                                                              //Return 0. The previous payload has been retransmitted
Message[1301]: Using default destination of 0 (Access Bank).
00006A 6AE8           02791         CLRF    WREG
00006C D???           02792         BRA     _00465_DS_
gpasm-1.4.0 #1107 (May  9 2015) build/sdcc/pr   12-2-2016  22:31:28         PAGE 61


LOC    OBJECT CODE    LINE  SOURCE TEXT
  VALUE

00006E                02793 _00464_DS_:
                      02794 ;       .line   938; ../../../RF24_c/RF24_cg.c  RF24_startFastWrite(buf,len,multicast,1);
00006E 0E01           02795         MOVLW   0x01
Message[1301]: Using default destination of 0 (Access Bank).
000070 6EE5           02796         MOVWF   POSTDEC1
000072 50??           02797         MOVF    r0x04, W
Message[1301]: Using default destination of 0 (Access Bank).
000074 6EE5           02798         MOVWF   POSTDEC1
000076 50??           02799         MOVF    r0x03, W
Message[1301]: Using default destination of 0 (Access Bank).
000078 6EE5           02800         MOVWF   POSTDEC1
00007A 50??           02801         MOVF    r0x02, W
Message[1301]: Using default destination of 0 (Access Bank).
00007C 6EE5           02802         MOVWF   POSTDEC1
00007E 50??           02803         MOVF    r0x01, W
Message[1301]: Using default destination of 0 (Access Bank).
000080 6EE5           02804         MOVWF   POSTDEC1
000082 50??           02805         MOVF    r0x00, W
Message[1301]: Using default destination of 0 (Access Bank).
000084 6EE5           02806         MOVWF   POSTDEC1
000086 EC?? F0??      02807         CALL    _RF24_startFastWrite
00008A 0E06           02808         MOVLW   0x06
00008C 26E1           02809         ADDWF   FSR1L, F
00008E B0D8           02810         BTFSC   STATUS, 0
000090 2AE2           02811         INCF    FSR1H, F
                      02812 ;       .line   940; ../../../RF24_c/RF24_cg.c  return 1;
000092 0E01           02813         MOVLW   0x01
000094                02814 _00465_DS_:
000094 CFE4 F000      02815         MOVFF   PREINC1, r0x05
000098 CFE4 F000      02816         MOVFF   PREINC1, r0x04
00009C CFE4 F000      02817         MOVFF   PREINC1, r0x03
0000A0 CFE4 F000      02818         MOVFF   PREINC1, r0x02
0000A4 CFE4 F000      02819         MOVFF   PREINC1, r0x01
0000A8 CFE4 F000      02820         MOVFF   PREINC1, r0x00
0000AC CFE4 FFD9      02821         MOVFF   PREINC1, FSR2L
0000B0 CFE4 FFDA      02822         MOVFF   PREINC1, FSR2H
0000B4 0012           02823         RETURN  
                      02824 
                      02825 ; ; Starting pCode block
                      02826 S_RF24_cg__RF24_reUseTX code
000000                02827 _RF24_reUseTX:
                      02828 ;       .line   900; ../../../RF24_c/RF24_cg.c  void RF24_reUseTX(void){
000000 CFDA FFE5      02829         MOVFF   FSR2H, POSTDEC1
000004 CFD9 FFE5      02830         MOVFF   FSR2L, POSTDEC1
000008 CFE2 FFDA      02831         MOVFF   FSR1H, FSR2H
00000C CFE1 FFD9      02832         MOVFF   FSR1L, FSR2L
                      02833 ;       .line   901; ../../../RF24_c/RF24_cg.c  RF24_write_register_d(NRF_STATUS,_BV(MAX_RT) );         
                                      //Clear max retry flag
000010 0E10           02834         MOVLW   0x10
Message[1301]: Using default destination of 0 (Access Bank).
000012 6EE5           02835         MOVWF   POSTDEC1
000014 0E07           02836         MOVLW   0x07
Message[1301]: Using default destination of 0 (Access Bank).
gpasm-1.4.0 #1107 (May  9 2015) build/sdcc/pr   12-2-2016  22:31:28         PAGE 62


LOC    OBJECT CODE    LINE  SOURCE TEXT
  VALUE

000016 6EE5           02837         MOVWF   POSTDEC1
000018 EC?? F0??      02838         CALL    _RF24_write_register_d
00001C 52E6           02839         MOVF    POSTINC1, F
00001E 52E6           02840         MOVF    POSTINC1, F
                      02841 ;       .line   902; ../../../RF24_c/RF24_cg.c  RF24_spiTrans(REUSE_TX_PL );
000020 0EE3           02842         MOVLW   0xe3
Message[1301]: Using default destination of 0 (Access Bank).
000022 6EE5           02843         MOVWF   POSTDEC1
000024 EC?? F0??      02844         CALL    _RF24_spiTrans
000028 52E6           02845         MOVF    POSTINC1, F
                      02846 ;       .line   903; ../../../RF24_c/RF24_cg.c  RF24_ce_d(LOW);                                         
                                                              //Re-Transfer packet
00002A 0E00           02847         MOVLW   0x00
Message[1301]: Using default destination of 0 (Access Bank).
00002C 6EE5           02848         MOVWF   POSTDEC1
00002E EC?? F0??      02849         CALL    _RF24_ce_d
000032 52E6           02850         MOVF    POSTINC1, F
                      02851 ;       .line   904; ../../../RF24_c/RF24_cg.c  RF24_ce_d(HIGH);
000034 0E01           02852         MOVLW   0x01
Message[1301]: Using default destination of 0 (Access Bank).
000036 6EE5           02853         MOVWF   POSTDEC1
000038 EC?? F0??      02854         CALL    _RF24_ce_d
00003C 52E6           02855         MOVF    POSTINC1, F
00003E CFE4 FFD9      02856         MOVFF   PREINC1, FSR2L
000042 CFE4 FFDA      02857         MOVFF   PREINC1, FSR2H
000046 0012           02858         RETURN  
                      02859 
                      02860 ; ; Starting pCode block
                      02861 S_RF24_cg__RF24_writeBlocking   code
000000                02862 _RF24_writeBlocking:
                      02863 ;       .line   866; ../../../RF24_c/RF24_cg.c  uint8_t RF24_writeBlocking(const void* buf, uint8_t len,
                             uint32_t timeout )
000000 CFDA FFE5      02864         MOVFF   FSR2H, POSTDEC1
000004 CFD9 FFE5      02865         MOVFF   FSR2L, POSTDEC1
000008 CFE2 FFDA      02866         MOVFF   FSR1H, FSR2H
00000C CFE1 FFD9      02867         MOVFF   FSR1L, FSR2L
000010 C??? F???      02868         MOVFF   r0x00, POSTDEC1
000014 C??? F???      02869         MOVFF   r0x01, POSTDEC1
000018 C??? F???      02870         MOVFF   r0x02, POSTDEC1
00001C C??? F???      02871         MOVFF   r0x03, POSTDEC1
000020 C??? F???      02872         MOVFF   r0x04, POSTDEC1
000024 C??? F???      02873         MOVFF   r0x05, POSTDEC1
000028 C??? F???      02874         MOVFF   r0x06, POSTDEC1
00002C C??? F???      02875         MOVFF   r0x07, POSTDEC1
000030 C??? F???      02876         MOVFF   r0x08, POSTDEC1
000034 C??? F???      02877         MOVFF   r0x09, POSTDEC1
000038 C??? F???      02878         MOVFF   r0x0a, POSTDEC1
00003C C??? F???      02879         MOVFF   r0x0b, POSTDEC1
000040 C??? F???      02880         MOVFF   r0x0c, POSTDEC1
000044 C??? F???      02881         MOVFF   r0x0d, POSTDEC1
000048 C??? F???      02882         MOVFF   r0x0e, POSTDEC1
00004C C??? F???      02883         MOVFF   r0x0f, POSTDEC1
000050 0E03           02884         MOVLW   0x03
gpasm-1.4.0 #1107 (May  9 2015) build/sdcc/pr   12-2-2016  22:31:28         PAGE 63


LOC    OBJECT CODE    LINE  SOURCE TEXT
  VALUE

000052 CFDB F000      02885         MOVFF   PLUSW2, r0x00
000056 0E04           02886         MOVLW   0x04
000058 CFDB F000      02887         MOVFF   PLUSW2, r0x01
00005C 0E05           02888         MOVLW   0x05
00005E CFDB F000      02889         MOVFF   PLUSW2, r0x02
000062 0E06           02890         MOVLW   0x06
000064 CFDB F000      02891         MOVFF   PLUSW2, r0x03
000068 0E07           02892         MOVLW   0x07
00006A CFDB F000      02893         MOVFF   PLUSW2, r0x04
00006E 0E08           02894         MOVLW   0x08
000070 CFDB F000      02895         MOVFF   PLUSW2, r0x05
000074 0E09           02896         MOVLW   0x09
000076 CFDB F000      02897         MOVFF   PLUSW2, r0x06
00007A 0E0A           02898         MOVLW   0x0a
00007C CFDB F000      02899         MOVFF   PLUSW2, r0x07
                      02900 ;       .line   873; ../../../RF24_c/RF24_cg.c  uint32_t timer = millis();                              
                                                      //Get the time that the payload transmission started
000080 EC?? F0??      02901         CALL    _millis
Message[1301]: Using default destination of 0 (Access Bank).
000084 6E??           02902         MOVWF   r0x08
000086 CFF3 F000      02903         MOVFF   PRODL, r0x09
00008A CFF4 F000      02904         MOVFF   PRODH, r0x0a
00008E CFE9 F000      02905         MOVFF   FSR0L, r0x0b
000092                02906 _00431_DS_:
                      02907 ;       .line   875; ../../../RF24_c/RF24_cg.c  while( ( RF24_get_status()  & ( _BV(TX_FULL) ))) {      
                                      //Blocking only if FIFO is full. This will loop and block until TX is successful or timeout
000092 EC?? F0??      02908         CALL    _RF24_get_status
Message[1301]: Using default destination of 0 (Access Bank).
000096 6E??           02909         MOVWF   r0x0c
000098 A0??           02910         BTFSS   r0x0c, 0
00009A D???           02911         BRA     _00433_DS_
                      02912 ;       .line   877; ../../../RF24_c/RF24_cg.c  if( RF24_get_status() & _BV(MAX_RT)){                   
                                              //If MAX Retries have been reached
00009C EC?? F0??      02913         CALL    _RF24_get_status
Message[1301]: Using default destination of 0 (Access Bank).
0000A0 6E??           02914         MOVWF   r0x0c
0000A2 A8??           02915         BTFSS   r0x0c, 4
0000A4 D???           02916         BRA     _00431_DS_
                      02917 ;       .line   878; ../../../RF24_c/RF24_cg.c  RF24_reUseTX();                                         
                                                              //Set re-transmit and clear the MAX_RT interrupt flag
0000A6 EC?? F0??      02918         CALL    _RF24_reUseTX
                      02919 ;       .line   879; ../../../RF24_c/RF24_cg.c  if(millis() - timer > timeout){ return 0; }             
                              //If this payload has exceeded the user-defined timeout, exit and return 0
0000AA EC?? F0??      02920         CALL    _millis
Message[1301]: Using default destination of 0 (Access Bank).
0000AE 6E??           02921         MOVWF   r0x0c
0000B0 CFF3 F000      02922         MOVFF   PRODL, r0x0d
0000B4 CFF4 F000      02923         MOVFF   PRODH, r0x0e
0000B8 CFE9 F000      02924         MOVFF   FSR0L, r0x0f
0000BC 50??           02925         MOVF    r0x08, W
0000BE 5E??           02926         SUBWF   r0x0c, F
0000C0 50??           02927         MOVF    r0x09, W
0000C2 5A??           02928         SUBWFB  r0x0d, F
gpasm-1.4.0 #1107 (May  9 2015) build/sdcc/pr   12-2-2016  22:31:28         PAGE 64


LOC    OBJECT CODE    LINE  SOURCE TEXT
  VALUE

0000C4 50??           02929         MOVF    r0x0a, W
0000C6 5A??           02930         SUBWFB  r0x0e, F
0000C8 50??           02931         MOVF    r0x0b, W
0000CA 5A??           02932         SUBWFB  r0x0f, F
0000CC 50??           02933         MOVF    r0x0f, W
0000CE 5C??           02934         SUBWF   r0x07, W
0000D0 E1??           02935         BNZ     _00450_DS_
0000D2 50??           02936         MOVF    r0x0e, W
0000D4 5C??           02937         SUBWF   r0x06, W
0000D6 E1??           02938         BNZ     _00450_DS_
0000D8 50??           02939         MOVF    r0x0d, W
0000DA 5C??           02940         SUBWF   r0x05, W
0000DC E1??           02941         BNZ     _00450_DS_
0000DE 50??           02942         MOVF    r0x0c, W
0000E0 5C??           02943         SUBWF   r0x04, W
0000E2                02944 _00450_DS_:
0000E2 E2??           02945         BC      _00431_DS_
Message[1301]: Using default destination of 0 (Access Bank).
0000E4 6AE8           02946         CLRF    WREG
0000E6 D???           02947         BRA     _00434_DS_
0000E8                02948 _00433_DS_:
                      02949 ;       .line   893; ../../../RF24_c/RF24_cg.c  RF24_startFastWrite(buf,len,0,1);                       
                                                                      //Write the payload if a buffer is clear
0000E8 0E01           02950         MOVLW   0x01
Message[1301]: Using default destination of 0 (Access Bank).
0000EA 6EE5           02951         MOVWF   POSTDEC1
0000EC 0E00           02952         MOVLW   0x00
Message[1301]: Using default destination of 0 (Access Bank).
0000EE 6EE5           02953         MOVWF   POSTDEC1
0000F0 50??           02954         MOVF    r0x03, W
Message[1301]: Using default destination of 0 (Access Bank).
0000F2 6EE5           02955         MOVWF   POSTDEC1
0000F4 50??           02956         MOVF    r0x02, W
Message[1301]: Using default destination of 0 (Access Bank).
0000F6 6EE5           02957         MOVWF   POSTDEC1
0000F8 50??           02958         MOVF    r0x01, W
Message[1301]: Using default destination of 0 (Access Bank).
0000FA 6EE5           02959         MOVWF   POSTDEC1
0000FC 50??           02960         MOVF    r0x00, W
Message[1301]: Using default destination of 0 (Access Bank).
0000FE 6EE5           02961         MOVWF   POSTDEC1
000100 EC?? F0??      02962         CALL    _RF24_startFastWrite
000104 0E06           02963         MOVLW   0x06
000106 26E1           02964         ADDWF   FSR1L, F
000108 B0D8           02965         BTFSC   STATUS, 0
00010A 2AE2           02966         INCF    FSR1H, F
                      02967 ;       .line   895; ../../../RF24_c/RF24_cg.c  return 1;                                               
                                                                              //Return 1 to indicate successful transmission
00010C 0E01           02968         MOVLW   0x01
00010E                02969 _00434_DS_:
00010E CFE4 F000      02970         MOVFF   PREINC1, r0x0f
000112 CFE4 F000      02971         MOVFF   PREINC1, r0x0e
000116 CFE4 F000      02972         MOVFF   PREINC1, r0x0d
gpasm-1.4.0 #1107 (May  9 2015) build/sdcc/pr   12-2-2016  22:31:28         PAGE 65


LOC    OBJECT CODE    LINE  SOURCE TEXT
  VALUE

00011A CFE4 F000      02973         MOVFF   PREINC1, r0x0c
00011E CFE4 F000      02974         MOVFF   PREINC1, r0x0b
000122 CFE4 F000      02975         MOVFF   PREINC1, r0x0a
000126 CFE4 F000      02976         MOVFF   PREINC1, r0x09
00012A CFE4 F000      02977         MOVFF   PREINC1, r0x08
00012E CFE4 F000      02978         MOVFF   PREINC1, r0x07
000132 CFE4 F000      02979         MOVFF   PREINC1, r0x06
000136 CFE4 F000      02980         MOVFF   PREINC1, r0x05
00013A CFE4 F000      02981         MOVFF   PREINC1, r0x04
00013E CFE4 F000      02982         MOVFF   PREINC1, r0x03
000142 CFE4 F000      02983         MOVFF   PREINC1, r0x02
000146 CFE4 F000      02984         MOVFF   PREINC1, r0x01
00014A CFE4 F000      02985         MOVFF   PREINC1, r0x00
00014E CFE4 FFD9      02986         MOVFF   PREINC1, FSR2L
000152 CFE4 FFDA      02987         MOVFF   PREINC1, FSR2H
000156 0012           02988         RETURN  
                      02989 
                      02990 ; ; Starting pCode block
                      02991 S_RF24_cg__RF24_write   code
000000                02992 _RF24_write:
                      02993 ;       .line   860; ../../../RF24_c/RF24_cg.c  uint8_t RF24_write(const void* buf, uint8_t len ){
000000 CFDA FFE5      02994         MOVFF   FSR2H, POSTDEC1
000004 CFD9 FFE5      02995         MOVFF   FSR2L, POSTDEC1
000008 CFE2 FFDA      02996         MOVFF   FSR1H, FSR2H
00000C CFE1 FFD9      02997         MOVFF   FSR1L, FSR2L
000010 C??? F???      02998         MOVFF   r0x00, POSTDEC1
000014 C??? F???      02999         MOVFF   r0x01, POSTDEC1
000018 C??? F???      03000         MOVFF   r0x02, POSTDEC1
00001C C??? F???      03001         MOVFF   r0x03, POSTDEC1
000020 0E03           03002         MOVLW   0x03
000022 CFDB F000      03003         MOVFF   PLUSW2, r0x00
000026 0E04           03004         MOVLW   0x04
000028 CFDB F000      03005         MOVFF   PLUSW2, r0x01
00002C 0E05           03006         MOVLW   0x05
00002E CFDB F000      03007         MOVFF   PLUSW2, r0x02
000032 0E06           03008         MOVLW   0x06
000034 CFDB F000      03009         MOVFF   PLUSW2, r0x03
                      03010 ;       .line   861; ../../../RF24_c/RF24_cg.c  return RF24_write_m(buf,len,0);
000038 0E00           03011         MOVLW   0x00
Message[1301]: Using default destination of 0 (Access Bank).
00003A 6EE5           03012         MOVWF   POSTDEC1
00003C 50??           03013         MOVF    r0x03, W
Message[1301]: Using default destination of 0 (Access Bank).
00003E 6EE5           03014         MOVWF   POSTDEC1
000040 50??           03015         MOVF    r0x02, W
Message[1301]: Using default destination of 0 (Access Bank).
000042 6EE5           03016         MOVWF   POSTDEC1
000044 50??           03017         MOVF    r0x01, W
Message[1301]: Using default destination of 0 (Access Bank).
000046 6EE5           03018         MOVWF   POSTDEC1
000048 50??           03019         MOVF    r0x00, W
Message[1301]: Using default destination of 0 (Access Bank).
00004A 6EE5           03020         MOVWF   POSTDEC1
gpasm-1.4.0 #1107 (May  9 2015) build/sdcc/pr   12-2-2016  22:31:28         PAGE 66


LOC    OBJECT CODE    LINE  SOURCE TEXT
  VALUE

00004C EC?? F0??      03021         CALL    _RF24_write_m
Message[1301]: Using default destination of 0 (Access Bank).
000050 6E??           03022         MOVWF   r0x00
000052 0E05           03023         MOVLW   0x05
000054 26E1           03024         ADDWF   FSR1L, F
000056 B0D8           03025         BTFSC   STATUS, 0
000058 2AE2           03026         INCF    FSR1H, F
00005A 50??           03027         MOVF    r0x00, W
00005C CFE4 F000      03028         MOVFF   PREINC1, r0x03
000060 CFE4 F000      03029         MOVFF   PREINC1, r0x02
000064 CFE4 F000      03030         MOVFF   PREINC1, r0x01
000068 CFE4 F000      03031         MOVFF   PREINC1, r0x00
00006C CFE4 FFD9      03032         MOVFF   PREINC1, FSR2L
000070 CFE4 FFDA      03033         MOVFF   PREINC1, FSR2H
000074 0012           03034         RETURN  
                      03035 
                      03036 ; ; Starting pCode block
                      03037 S_RF24_cg__RF24_write_m code
000000                03038 _RF24_write_m:
                      03039 ;       .line   822; ../../../RF24_c/RF24_cg.c  uint8_t RF24_write_m( const void* buf, uint8_t len, cons
                            t uint8_t multicast )
000000 CFDA FFE5      03040         MOVFF   FSR2H, POSTDEC1
000004 CFD9 FFE5      03041         MOVFF   FSR2L, POSTDEC1
000008 CFE2 FFDA      03042         MOVFF   FSR1H, FSR2H
00000C CFE1 FFD9      03043         MOVFF   FSR1L, FSR2L
000010 C??? F???      03044         MOVFF   r0x00, POSTDEC1
000014 C??? F???      03045         MOVFF   r0x01, POSTDEC1
000018 C??? F???      03046         MOVFF   r0x02, POSTDEC1
00001C C??? F???      03047         MOVFF   r0x03, POSTDEC1
000020 C??? F???      03048         MOVFF   r0x04, POSTDEC1
000024 0E03           03049         MOVLW   0x03
000026 CFDB F000      03050         MOVFF   PLUSW2, r0x00
00002A 0E04           03051         MOVLW   0x04
00002C CFDB F000      03052         MOVFF   PLUSW2, r0x01
000030 0E05           03053         MOVLW   0x05
000032 CFDB F000      03054         MOVFF   PLUSW2, r0x02
000036 0E06           03055         MOVLW   0x06
000038 CFDB F000      03056         MOVFF   PLUSW2, r0x03
00003C 0E07           03057         MOVLW   0x07
00003E CFDB F000      03058         MOVFF   PLUSW2, r0x04
                      03059 ;       .line   827; ../../../RF24_c/RF24_cg.c  RF24_startFastWrite(buf,len,multicast,1);
000042 0E01           03060         MOVLW   0x01
Message[1301]: Using default destination of 0 (Access Bank).
000044 6EE5           03061         MOVWF   POSTDEC1
000046 50??           03062         MOVF    r0x04, W
Message[1301]: Using default destination of 0 (Access Bank).
000048 6EE5           03063         MOVWF   POSTDEC1
00004A 50??           03064         MOVF    r0x03, W
Message[1301]: Using default destination of 0 (Access Bank).
00004C 6EE5           03065         MOVWF   POSTDEC1
00004E 50??           03066         MOVF    r0x02, W
Message[1301]: Using default destination of 0 (Access Bank).
000050 6EE5           03067         MOVWF   POSTDEC1
gpasm-1.4.0 #1107 (May  9 2015) build/sdcc/pr   12-2-2016  22:31:28         PAGE 67


LOC    OBJECT CODE    LINE  SOURCE TEXT
  VALUE

000052 50??           03068         MOVF    r0x01, W
Message[1301]: Using default destination of 0 (Access Bank).
000054 6EE5           03069         MOVWF   POSTDEC1
000056 50??           03070         MOVF    r0x00, W
Message[1301]: Using default destination of 0 (Access Bank).
000058 6EE5           03071         MOVWF   POSTDEC1
00005A EC?? F0??      03072         CALL    _RF24_startFastWrite
00005E 0E06           03073         MOVLW   0x06
000060 26E1           03074         ADDWF   FSR1L, F
000062 B0D8           03075         BTFSC   STATUS, 0
000064 2AE2           03076         INCF    FSR1H, F
000066                03077 _00400_DS_:
                      03078 ;       .line   834; ../../../RF24_c/RF24_cg.c  while( ! ( RF24_get_status()  & ( _BV(TX_DS) | _BV(MAX_R
                            T) ))) { 
000066 EC?? F0??      03079         CALL    _RF24_get_status
Message[1301]: Using default destination of 0 (Access Bank).
00006A 6E??           03080         MOVWF   r0x00
00006C 50??           03081         MOVF    r0x00, W
00006E 0B30           03082         ANDLW   0x30
000070 E0??           03083         BZ      _00400_DS_
                      03084 ;       .line   847; ../../../RF24_c/RF24_cg.c  RF24_ce_d(LOW);
000072 0E00           03085         MOVLW   0x00
Message[1301]: Using default destination of 0 (Access Bank).
000074 6EE5           03086         MOVWF   POSTDEC1
000076 EC?? F0??      03087         CALL    _RF24_ce_d
00007A 52E6           03088         MOVF    POSTINC1, F
                      03089 ;       .line   849; ../../../RF24_c/RF24_cg.c  status = RF24_write_register_d(NRF_STATUS,_BV(RX_DR) | _
                            BV(TX_DS) | _BV(MAX_RT) );
00007C 0E70           03090         MOVLW   0x70
Message[1301]: Using default destination of 0 (Access Bank).
00007E 6EE5           03091         MOVWF   POSTDEC1
000080 0E07           03092         MOVLW   0x07
Message[1301]: Using default destination of 0 (Access Bank).
000082 6EE5           03093         MOVWF   POSTDEC1
000084 EC?? F0??      03094         CALL    _RF24_write_register_d
Message[1301]: Using default destination of 0 (Access Bank).
000088 6E??           03095         MOVWF   r0x00
00008A 52E6           03096         MOVF    POSTINC1, F
00008C 52E6           03097         MOVF    POSTINC1, F
                      03098 ;       .line   852; ../../../RF24_c/RF24_cg.c  if( status & _BV(MAX_RT)){
00008E A8??           03099         BTFSS   r0x00, 4
000090 D???           03100         BRA     _00404_DS_
                      03101 ;       .line   853; ../../../RF24_c/RF24_cg.c  RF24_flush_tx(); //Only going to be 1 packet int the FIF
                            O at a time using this method, so just flush
000092 EC?? F0??      03102         CALL    _RF24_flush_tx
                      03103 ;       .line   854; ../../../RF24_c/RF24_cg.c  return 0;
Message[1301]: Using default destination of 0 (Access Bank).
000096 6AE8           03104         CLRF    WREG
000098 D???           03105         BRA     _00405_DS_
00009A                03106 _00404_DS_:
                      03107 ;       .line   857; ../../../RF24_c/RF24_cg.c  return 1;
00009A 0E01           03108         MOVLW   0x01
00009C                03109 _00405_DS_:
gpasm-1.4.0 #1107 (May  9 2015) build/sdcc/pr   12-2-2016  22:31:28         PAGE 68


LOC    OBJECT CODE    LINE  SOURCE TEXT
  VALUE

00009C CFE4 F000      03110         MOVFF   PREINC1, r0x04
0000A0 CFE4 F000      03111         MOVFF   PREINC1, r0x03
0000A4 CFE4 F000      03112         MOVFF   PREINC1, r0x02
0000A8 CFE4 F000      03113         MOVFF   PREINC1, r0x01
0000AC CFE4 F000      03114         MOVFF   PREINC1, r0x00
0000B0 CFE4 FFD9      03115         MOVFF   PREINC1, FSR2L
0000B4 CFE4 FFDA      03116         MOVFF   PREINC1, FSR2H
0000B8 0012           03117         RETURN  
                      03118 
                      03119 ; ; Starting pCode block
                      03120 S_RF24_cg__RF24_powerUp code
000000                03121 _RF24_powerUp:
                      03122 ;       .line   791; ../../../RF24_c/RF24_cg.c  void RF24_powerUp(void)
000000 CFDA FFE5      03123         MOVFF   FSR2H, POSTDEC1
000004 CFD9 FFE5      03124         MOVFF   FSR2L, POSTDEC1
000008 CFE2 FFDA      03125         MOVFF   FSR1H, FSR2H
00000C CFE1 FFD9      03126         MOVFF   FSR1L, FSR2L
000010 C??? F???      03127         MOVFF   r0x00, POSTDEC1
                      03128 ;       .line   793; ../../../RF24_c/RF24_cg.c  uint8_t cfg = RF24_read_register_d(NRF_CONFIG);
000014 0E00           03129         MOVLW   0x00
Message[1301]: Using default destination of 0 (Access Bank).
000016 6EE5           03130         MOVWF   POSTDEC1
000018 EC?? F0??      03131         CALL    _RF24_read_register_d
Message[1301]: Using default destination of 0 (Access Bank).
00001C 6E??           03132         MOVWF   r0x00
00001E 52E6           03133         MOVF    POSTINC1, F
                      03134 ;       .line   796; ../../../RF24_c/RF24_cg.c  if (!(cfg & _BV(PWR_UP))){
000020 B2??           03135         BTFSC   r0x00, 1
000022 D???           03136         BRA     _00390_DS_
                      03137 ;       .line   797; ../../../RF24_c/RF24_cg.c  RF24_write_register_d(NRF_CONFIG, cfg | _BV(PWR_UP));
000024 82??           03138         BSF     r0x00, 1
000026 50??           03139         MOVF    r0x00, W
Message[1301]: Using default destination of 0 (Access Bank).
000028 6EE5           03140         MOVWF   POSTDEC1
00002A 0E00           03141         MOVLW   0x00
Message[1301]: Using default destination of 0 (Access Bank).
00002C 6EE5           03142         MOVWF   POSTDEC1
00002E EC?? F0??      03143         CALL    _RF24_write_register_d
000032 52E6           03144         MOVF    POSTINC1, F
000034 52E6           03145         MOVF    POSTINC1, F
                      03146 ;       .line   802; ../../../RF24_c/RF24_cg.c  delay(5);
000036 0E00           03147         MOVLW   0x00
Message[1301]: Using default destination of 0 (Access Bank).
000038 6EE5           03148         MOVWF   POSTDEC1
00003A 0E05           03149         MOVLW   0x05
Message[1301]: Using default destination of 0 (Access Bank).
00003C 6EE5           03150         MOVWF   POSTDEC1
00003E EC?? F0??      03151         CALL    _delay
000042 52E6           03152         MOVF    POSTINC1, F
000044 52E6           03153         MOVF    POSTINC1, F
000046                03154 _00390_DS_:
000046 CFE4 F000      03155         MOVFF   PREINC1, r0x00
00004A CFE4 FFD9      03156         MOVFF   PREINC1, FSR2L
gpasm-1.4.0 #1107 (May  9 2015) build/sdcc/pr   12-2-2016  22:31:28         PAGE 69


LOC    OBJECT CODE    LINE  SOURCE TEXT
  VALUE

00004E CFE4 FFDA      03157         MOVFF   PREINC1, FSR2H
000052 0012           03158         RETURN  
                      03159 
                      03160 ; ; Starting pCode block
                      03161 S_RF24_cg__RF24_powerDown       code
000000                03162 _RF24_powerDown:
                      03163 ;       .line   782; ../../../RF24_c/RF24_cg.c  void RF24_powerDown(void)
000000 CFDA FFE5      03164         MOVFF   FSR2H, POSTDEC1
000004 CFD9 FFE5      03165         MOVFF   FSR2L, POSTDEC1
000008 CFE2 FFDA      03166         MOVFF   FSR1H, FSR2H
00000C CFE1 FFD9      03167         MOVFF   FSR1L, FSR2L
000010 C??? F???      03168         MOVFF   r0x00, POSTDEC1
                      03169 ;       .line   784; ../../../RF24_c/RF24_cg.c  RF24_ce_d(LOW); // Guarantee CE is low on powerDown
000014 0E00           03170         MOVLW   0x00
Message[1301]: Using default destination of 0 (Access Bank).
000016 6EE5           03171         MOVWF   POSTDEC1
000018 EC?? F0??      03172         CALL    _RF24_ce_d
00001C 52E6           03173         MOVF    POSTINC1, F
                      03174 ;       .line   785; ../../../RF24_c/RF24_cg.c  RF24_write_register_d(NRF_CONFIG,RF24_read_register_d(NR
                            F_CONFIG) & ~_BV(PWR_UP));
00001E 0E00           03175         MOVLW   0x00
Message[1301]: Using default destination of 0 (Access Bank).
000020 6EE5           03176         MOVWF   POSTDEC1
000022 EC?? F0??      03177         CALL    _RF24_read_register_d
Message[1301]: Using default destination of 0 (Access Bank).
000026 6E??           03178         MOVWF   r0x00
000028 52E6           03179         MOVF    POSTINC1, F
00002A 92??           03180         BCF     r0x00, 1
00002C 50??           03181         MOVF    r0x00, W
Message[1301]: Using default destination of 0 (Access Bank).
00002E 6EE5           03182         MOVWF   POSTDEC1
000030 0E00           03183         MOVLW   0x00
Message[1301]: Using default destination of 0 (Access Bank).
000032 6EE5           03184         MOVWF   POSTDEC1
000034 EC?? F0??      03185         CALL    _RF24_write_register_d
000038 52E6           03186         MOVF    POSTINC1, F
00003A 52E6           03187         MOVF    POSTINC1, F
00003C CFE4 F000      03188         MOVFF   PREINC1, r0x00
000040 CFE4 FFD9      03189         MOVFF   PREINC1, FSR2L
000044 CFE4 FFDA      03190         MOVFF   PREINC1, FSR2H
000048 0012           03191         RETURN  
                      03192 
                      03193 ; ; Starting pCode block
                      03194 S_RF24_cg__RF24_stopListening   code
000000                03195 _RF24_stopListening:
                      03196 ;       .line   754; ../../../RF24_c/RF24_cg.c  void RF24_stopListening(void)
000000 CFDA FFE5      03197         MOVFF   FSR2H, POSTDEC1
000004 CFD9 FFE5      03198         MOVFF   FSR2L, POSTDEC1
000008 CFE2 FFDA      03199         MOVFF   FSR1H, FSR2H
00000C CFE1 FFD9      03200         MOVFF   FSR1L, FSR2L
000010 C??? F???      03201         MOVFF   r0x00, POSTDEC1
000014 C??? F???      03202         MOVFF   r0x01, POSTDEC1
000018 C??? F???      03203         MOVFF   r0x02, POSTDEC1
gpasm-1.4.0 #1107 (May  9 2015) build/sdcc/pr   12-2-2016  22:31:28         PAGE 70


LOC    OBJECT CODE    LINE  SOURCE TEXT
  VALUE

                      03204 ;       .line   756; ../../../RF24_c/RF24_cg.c  RF24_ce_d(LOW);
00001C 0E00           03205         MOVLW   0x00
Message[1301]: Using default destination of 0 (Access Bank).
00001E 6EE5           03206         MOVWF   POSTDEC1
000020 EC?? F0??      03207         CALL    _RF24_ce_d
000024 52E6           03208         MOVF    POSTINC1, F
000026 ????           03209         BANKSEL (_rf + 13)
                      03210 ;       .line   758; ../../../RF24_c/RF24_cg.c  delayMicroseconds(rf.txDelay);
000028 51??           03211         MOVF    (_rf + 13), W, B
Message[1301]: Using default destination of 0 (Access Bank).
00002A 6E??           03212         MOVWF   r0x00
00002C 50??           03213         MOVF    r0x00, W
Message[1301]: Using default destination of 0 (Access Bank).
00002E 6EE5           03214         MOVWF   POSTDEC1
000030 EC?? F0??      03215         CALL    _delayMicroseconds
000034 52E6           03216         MOVF    POSTINC1, F
                      03217 ;       .line   760; ../../../RF24_c/RF24_cg.c  if(RF24_read_register_d(FEATURE) & _BV(EN_ACK_PAY)){
000036 0E1D           03218         MOVLW   0x1d
Message[1301]: Using default destination of 0 (Access Bank).
000038 6EE5           03219         MOVWF   POSTDEC1
00003A EC?? F0??      03220         CALL    _RF24_read_register_d
Message[1301]: Using default destination of 0 (Access Bank).
00003E 6E??           03221         MOVWF   r0x00
000040 52E6           03222         MOVF    POSTINC1, F
000042 A2??           03223         BTFSS   r0x00, 1
000044 D???           03224         BRA     _00369_DS_
000046 ????           03225         BANKSEL (_rf + 13)
                      03226 ;       .line   761; ../../../RF24_c/RF24_cg.c  delayMicroseconds(rf.txDelay); //200
000048 51??           03227         MOVF    (_rf + 13), W, B
Message[1301]: Using default destination of 0 (Access Bank).
00004A 6E??           03228         MOVWF   r0x00
00004C 50??           03229         MOVF    r0x00, W
Message[1301]: Using default destination of 0 (Access Bank).
00004E 6EE5           03230         MOVWF   POSTDEC1
000050 EC?? F0??      03231         CALL    _delayMicroseconds
000054 52E6           03232         MOVF    POSTINC1, F
                      03233 ;       .line   762; ../../../RF24_c/RF24_cg.c  RF24_flush_tx();
000056 EC?? F0??      03234         CALL    _RF24_flush_tx
00005A                03235 _00369_DS_:
                      03236 ;       .line   765; ../../../RF24_c/RF24_cg.c  RF24_write_register_d(NRF_CONFIG, ( RF24_read_register_d
                            (NRF_CONFIG) ) & ~_BV(PRIM_RX) );
00005A 0E00           03237         MOVLW   0x00
Message[1301]: Using default destination of 0 (Access Bank).
00005C 6EE5           03238         MOVWF   POSTDEC1
00005E EC?? F0??      03239         CALL    _RF24_read_register_d
Message[1301]: Using default destination of 0 (Access Bank).
000062 6E??           03240         MOVWF   r0x00
000064 52E6           03241         MOVF    POSTINC1, F
000066 90??           03242         BCF     r0x00, 0
000068 50??           03243         MOVF    r0x00, W
Message[1301]: Using default destination of 0 (Access Bank).
00006A 6EE5           03244         MOVWF   POSTDEC1
00006C 0E00           03245         MOVLW   0x00
gpasm-1.4.0 #1107 (May  9 2015) build/sdcc/pr   12-2-2016  22:31:28         PAGE 71


LOC    OBJECT CODE    LINE  SOURCE TEXT
  VALUE

Message[1301]: Using default destination of 0 (Access Bank).
00006E 6EE5           03246         MOVWF   POSTDEC1
000070 EC?? F0??      03247         CALL    _RF24_write_register_d
000074 52E6           03248         MOVF    POSTINC1, F
000076 52E6           03249         MOVF    POSTINC1, F
                      03250 ;       .line   774; ../../../RF24_c/RF24_cg.c  RF24_write_register_d(EN_RXADDR,RF24_read_register_d(EN_
                            RXADDR) | _BV(pgm_read_byte(&child_pipe_enable[0]))); // Enable RX on pipe0
000078 0E02           03251         MOVLW   0x02
Message[1301]: Using default destination of 0 (Access Bank).
00007A 6EE5           03252         MOVWF   POSTDEC1
00007C EC?? F0??      03253         CALL    _RF24_read_register_d
Message[1301]: Using default destination of 0 (Access Bank).
000080 6E??           03254         MOVWF   r0x00
000082 52E6           03255         MOVF    POSTINC1, F
000084 0E??           03256         MOVLW   LOW(_child_pipe_enable)
Message[1301]: Using default destination of 0 (Access Bank).
000086 6EF6           03257         MOVWF   TBLPTRL
000088 0E??           03258         MOVLW   HIGH(_child_pipe_enable)
Message[1301]: Using default destination of 0 (Access Bank).
00008A 6EF7           03259         MOVWF   TBLPTRH
00008C 0E??           03260         MOVLW   UPPER(_child_pipe_enable)
Message[1301]: Using default destination of 0 (Access Bank).
00008E 6EF8           03261         MOVWF   TBLPTRU
000090 0009           03262         TBLRD*+ 
000092 CFF5 F000      03263         MOVFF   TABLAT, r0x01
000096 0E01           03264         MOVLW   0x01
Message[1301]: Using default destination of 0 (Access Bank).
000098 6E??           03265         MOVWF   r0x02
00009A 50??           03266         MOVF    r0x01, W
00009C E0??           03267         BZ      _00377_DS_
Message[1301]: Using default destination of 0 (Access Bank).
00009E 6CE8           03268         NEGF    WREG
0000A0 90D8           03269         BCF     STATUS, 0
0000A2                03270 _00378_DS_:
0000A2 36??           03271         RLCF    r0x02, F
0000A4 0F01           03272         ADDLW   0x01
0000A6 E3??           03273         BNC     _00378_DS_
0000A8                03274 _00377_DS_:
0000A8 50??           03275         MOVF    r0x02, W
0000AA 12??           03276         IORWF   r0x00, F
0000AC 50??           03277         MOVF    r0x00, W
Message[1301]: Using default destination of 0 (Access Bank).
0000AE 6EE5           03278         MOVWF   POSTDEC1
0000B0 0E02           03279         MOVLW   0x02
Message[1301]: Using default destination of 0 (Access Bank).
0000B2 6EE5           03280         MOVWF   POSTDEC1
0000B4 EC?? F0??      03281         CALL    _RF24_write_register_d
0000B8 52E6           03282         MOVF    POSTINC1, F
0000BA 52E6           03283         MOVF    POSTINC1, F
0000BC CFE4 F000      03284         MOVFF   PREINC1, r0x02
0000C0 CFE4 F000      03285         MOVFF   PREINC1, r0x01
0000C4 CFE4 F000      03286         MOVFF   PREINC1, r0x00
0000C8 CFE4 FFD9      03287         MOVFF   PREINC1, FSR2L
gpasm-1.4.0 #1107 (May  9 2015) build/sdcc/pr   12-2-2016  22:31:28         PAGE 72


LOC    OBJECT CODE    LINE  SOURCE TEXT
  VALUE

0000CC CFE4 FFDA      03288         MOVFF   PREINC1, FSR2H
0000D0 0012           03289         RETURN  
                      03290 
                      03291 ; ; Starting pCode block
                      03292 S_RF24_cg__RF24_startListening  code
000000                03293 _RF24_startListening:
                      03294 ;       .line   723; ../../../RF24_c/RF24_cg.c  void RF24_startListening(void)
000000 CFDA FFE5      03295         MOVFF   FSR2H, POSTDEC1
000004 CFD9 FFE5      03296         MOVFF   FSR2L, POSTDEC1
000008 CFE2 FFDA      03297         MOVFF   FSR1H, FSR2H
00000C CFE1 FFD9      03298         MOVFF   FSR1L, FSR2L
000010 C??? F???      03299         MOVFF   r0x00, POSTDEC1
000014 C??? F???      03300         MOVFF   r0x01, POSTDEC1
000018 C??? F???      03301         MOVFF   r0x02, POSTDEC1
                      03302 ;       .line   726; ../../../RF24_c/RF24_cg.c  RF24_powerUp();
00001C EC?? F0??      03303         CALL    _RF24_powerUp
                      03304 ;       .line   728; ../../../RF24_c/RF24_cg.c  RF24_write_register_d(NRF_CONFIG, RF24_read_register_d(N
                            RF_CONFIG) | _BV(PRIM_RX));
000020 0E00           03305         MOVLW   0x00
Message[1301]: Using default destination of 0 (Access Bank).
000022 6EE5           03306         MOVWF   POSTDEC1
000024 EC?? F0??      03307         CALL    _RF24_read_register_d
Message[1301]: Using default destination of 0 (Access Bank).
000028 6E??           03308         MOVWF   r0x00
00002A 52E6           03309         MOVF    POSTINC1, F
00002C 80??           03310         BSF     r0x00, 0
00002E 50??           03311         MOVF    r0x00, W
Message[1301]: Using default destination of 0 (Access Bank).
000030 6EE5           03312         MOVWF   POSTDEC1
000032 0E00           03313         MOVLW   0x00
Message[1301]: Using default destination of 0 (Access Bank).
000034 6EE5           03314         MOVWF   POSTDEC1
000036 EC?? F0??      03315         CALL    _RF24_write_register_d
00003A 52E6           03316         MOVF    POSTINC1, F
00003C 52E6           03317         MOVF    POSTINC1, F
                      03318 ;       .line   729; ../../../RF24_c/RF24_cg.c  RF24_write_register_d(NRF_STATUS, _BV(RX_DR) | _BV(TX_DS
                            ) | _BV(MAX_RT) );
00003E 0E70           03319         MOVLW   0x70
Message[1301]: Using default destination of 0 (Access Bank).
000040 6EE5           03320         MOVWF   POSTDEC1
000042 0E07           03321         MOVLW   0x07
Message[1301]: Using default destination of 0 (Access Bank).
000044 6EE5           03322         MOVWF   POSTDEC1
000046 EC?? F0??      03323         CALL    _RF24_write_register_d
00004A 52E6           03324         MOVF    POSTINC1, F
00004C 52E6           03325         MOVF    POSTINC1, F
                      03326 ;       .line   730; ../../../RF24_c/RF24_cg.c  RF24_ce_d(HIGH);
00004E 0E01           03327         MOVLW   0x01
Message[1301]: Using default destination of 0 (Access Bank).
000050 6EE5           03328         MOVWF   POSTDEC1
000052 EC?? F0??      03329         CALL    _RF24_ce_d
000056 52E6           03330         MOVF    POSTINC1, F
000058 ????           03331         BANKSEL (_rf + 7)
gpasm-1.4.0 #1107 (May  9 2015) build/sdcc/pr   12-2-2016  22:31:28         PAGE 73


LOC    OBJECT CODE    LINE  SOURCE TEXT
  VALUE

                      03332 ;       .line   732; ../../../RF24_c/RF24_cg.c  if (rf.pipe0_reading_address[0] > 0){
00005A 51??           03333         MOVF    (_rf + 7), W, B
00005C E0??           03334         BZ      _00350_DS_
                      03335 ;       .line   733; ../../../RF24_c/RF24_cg.c  RF24_write_register_c_d(RX_ADDR_P0, rf.pipe0_reading_add
                            ress, rf.addr_width);   
00005E 0E??           03336         MOVLW   HIGH(_rf + 7)
Message[1301]: Using default destination of 0 (Access Bank).
000060 6E??           03337         MOVWF   r0x01
000062 0E??           03338         MOVLW   LOW(_rf + 7)
Message[1301]: Using default destination of 0 (Access Bank).
000064 6E??           03339         MOVWF   r0x00
000066 0E80           03340         MOVLW   0x80
Message[1301]: Using default destination of 0 (Access Bank).
000068 6E??           03341         MOVWF   r0x02
00006A ????           03342         BANKSEL (_rf + 12)
00006C 51??           03343         MOVF    (_rf + 12), W, B
Message[1301]: Using default destination of 0 (Access Bank).
00006E 6EE5           03344         MOVWF   POSTDEC1
000070 50??           03345         MOVF    r0x02, W
Message[1301]: Using default destination of 0 (Access Bank).
000072 6EE5           03346         MOVWF   POSTDEC1
000074 50??           03347         MOVF    r0x01, W
Message[1301]: Using default destination of 0 (Access Bank).
000076 6EE5           03348         MOVWF   POSTDEC1
000078 50??           03349         MOVF    r0x00, W
Message[1301]: Using default destination of 0 (Access Bank).
00007A 6EE5           03350         MOVWF   POSTDEC1
00007C 0E0A           03351         MOVLW   0x0a
Message[1301]: Using default destination of 0 (Access Bank).
00007E 6EE5           03352         MOVWF   POSTDEC1
000080 EC?? F0??      03353         CALL    _RF24_write_register_c_d
000084 0E05           03354         MOVLW   0x05
000086 26E1           03355         ADDWF   FSR1L, F
000088 B0D8           03356         BTFSC   STATUS, 0
00008A 2AE2           03357         INCF    FSR1H, F
00008C D???           03358         BRA     _00351_DS_
00008E                03359 _00350_DS_:
                      03360 ;       .line   735; ../../../RF24_c/RF24_cg.c  RF24_closeReadingPipe(0);
00008E 0E00           03361         MOVLW   0x00
Message[1301]: Using default destination of 0 (Access Bank).
000090 6EE5           03362         MOVWF   POSTDEC1
000092 EC?? F0??      03363         CALL    _RF24_closeReadingPipe
000096 52E6           03364         MOVF    POSTINC1, F
000098                03365 _00351_DS_:
                      03366 ;       .line   740; ../../../RF24_c/RF24_cg.c  if(RF24_read_register_d(FEATURE) & _BV(EN_ACK_PAY)){
000098 0E1D           03367         MOVLW   0x1d
Message[1301]: Using default destination of 0 (Access Bank).
00009A 6EE5           03368         MOVWF   POSTDEC1
00009C EC?? F0??      03369         CALL    _RF24_read_register_d
Message[1301]: Using default destination of 0 (Access Bank).
0000A0 6E??           03370         MOVWF   r0x00
0000A2 52E6           03371         MOVF    POSTINC1, F
0000A4 A2??           03372         BTFSS   r0x00, 1
gpasm-1.4.0 #1107 (May  9 2015) build/sdcc/pr   12-2-2016  22:31:28         PAGE 74


LOC    OBJECT CODE    LINE  SOURCE TEXT
  VALUE

0000A6 D???           03373         BRA     _00354_DS_
                      03374 ;       .line   741; ../../../RF24_c/RF24_cg.c  RF24_flush_tx();
0000A8 EC?? F0??      03375         CALL    _RF24_flush_tx
0000AC                03376 _00354_DS_:
0000AC CFE4 F000      03377         MOVFF   PREINC1, r0x02
0000B0 CFE4 F000      03378         MOVFF   PREINC1, r0x01
0000B4 CFE4 F000      03379         MOVFF   PREINC1, r0x00
0000B8 CFE4 FFD9      03380         MOVFF   PREINC1, FSR2L
0000BC CFE4 FFDA      03381         MOVFF   PREINC1, FSR2H
0000C0 0012           03382         RETURN  
                      03383 
                      03384 ; ; Starting pCode block
                      03385 S_RF24_cg__RF24_begin   code
000000                03386 _RF24_begin:
                      03387 ;       .line   598; ../../../RF24_c/RF24_cg.c  uint8_t RF24_begin(void )
000000 CFDA FFE5      03388         MOVFF   FSR2H, POSTDEC1
000004 CFD9 FFE5      03389         MOVFF   FSR2L, POSTDEC1
000008 CFE2 FFDA      03390         MOVFF   FSR1H, FSR2H
00000C CFE1 FFD9      03391         MOVFF   FSR1L, FSR2L
000010 C??? F???      03392         MOVFF   r0x00, POSTDEC1
000014 C??? F???      03393         MOVFF   r0x01, POSTDEC1
000018 ????           03394         BANKSEL _rf
                      03395 ;       .line   640; ../../../RF24_c/RF24_cg.c  if (rf.ce_pin != rf.csn_pin) pinMode(rf.ce_pin,OUTPUT); 
                             
00001A 51??           03396         MOVF    _rf, W, B
00001C ????           03397         BANKSEL (_rf + 1)
00001E 19??           03398         XORWF   (_rf + 1), W, B
000020 E0??           03399         BZ      _00316_DS_
000022 0E00           03400         MOVLW   0x00
Message[1301]: Using default destination of 0 (Access Bank).
000024 6EE5           03401         MOVWF   POSTDEC1
000026 ????           03402         BANKSEL _rf
000028 51??           03403         MOVF    _rf, W, B
Message[1301]: Using default destination of 0 (Access Bank).
00002A 6EE5           03404         MOVWF   POSTDEC1
00002C EC?? F0??      03405         CALL    _pinMode
000030 52E6           03406         MOVF    POSTINC1, F
000032 52E6           03407         MOVF    POSTINC1, F
000034                03408 _00316_DS_:
                      03409 ;       .line   643; ../../../RF24_c/RF24_cg.c  if (rf.ce_pin != rf.csn_pin)
000034 C??? F???      03410         MOVFF   (_rf + 1), r0x00
000038 ????           03411         BANKSEL _rf
00003A 51??           03412         MOVF    _rf, W, B
00003C 18??           03413         XORWF   r0x00, W
00003E E0??           03414         BZ      _00318_DS_
                      03415 ;       .line   645; ../../../RF24_c/RF24_cg.c  pinMode(rf.csn_pin,OUTPUT);
000040 0E00           03416         MOVLW   0x00
Message[1301]: Using default destination of 0 (Access Bank).
000042 6EE5           03417         MOVWF   POSTDEC1
000044 50??           03418         MOVF    r0x00, W
Message[1301]: Using default destination of 0 (Access Bank).
000046 6EE5           03419         MOVWF   POSTDEC1
000048 EC?? F0??      03420         CALL    _pinMode
gpasm-1.4.0 #1107 (May  9 2015) build/sdcc/pr   12-2-2016  22:31:28         PAGE 75


LOC    OBJECT CODE    LINE  SOURCE TEXT
  VALUE

00004C 52E6           03421         MOVF    POSTINC1, F
00004E 52E6           03422         MOVF    POSTINC1, F
000050                03423 _00318_DS_:
                      03424 ;       .line   647; ../../../RF24_c/RF24_cg.c  SPI_begin();
000050 EC?? F0??      03425         CALL    _SPI_begin
                      03426 ;       .line   648; ../../../RF24_c/RF24_cg.c  RF24_ce_d(LOW);
000054 0E00           03427         MOVLW   0x00
Message[1301]: Using default destination of 0 (Access Bank).
000056 6EE5           03428         MOVWF   POSTDEC1
000058 EC?? F0??      03429         CALL    _RF24_ce_d
00005C 52E6           03430         MOVF    POSTINC1, F
                      03431 ;       .line   649; ../../../RF24_c/RF24_cg.c  RF24_csn_d(HIGH);
00005E 0E01           03432         MOVLW   0x01
Message[1301]: Using default destination of 0 (Access Bank).
000060 6EE5           03433         MOVWF   POSTDEC1
000062 EC?? F0??      03434         CALL    _RF24_csn_d
000066 52E6           03435         MOVF    POSTINC1, F
                      03436 ;       .line   661; ../../../RF24_c/RF24_cg.c  delay( 5 ) ;
000068 0E00           03437         MOVLW   0x00
Message[1301]: Using default destination of 0 (Access Bank).
00006A 6EE5           03438         MOVWF   POSTDEC1
00006C 0E05           03439         MOVLW   0x05
Message[1301]: Using default destination of 0 (Access Bank).
00006E 6EE5           03440         MOVWF   POSTDEC1
000070 EC?? F0??      03441         CALL    _delay
000074 52E6           03442         MOVF    POSTINC1, F
000076 52E6           03443         MOVF    POSTINC1, F
                      03444 ;       .line   664; ../../../RF24_c/RF24_cg.c  RF24_write_register_d( NRF_CONFIG, 0b00001100 ) ;
000078 0E0C           03445         MOVLW   0x0c
Message[1301]: Using default destination of 0 (Access Bank).
00007A 6EE5           03446         MOVWF   POSTDEC1
00007C 0E00           03447         MOVLW   0x00
Message[1301]: Using default destination of 0 (Access Bank).
00007E 6EE5           03448         MOVWF   POSTDEC1
000080 EC?? F0??      03449         CALL    _RF24_write_register_d
000084 52E6           03450         MOVF    POSTINC1, F
000086 52E6           03451         MOVF    POSTINC1, F
                      03452 ;       .line   669; ../../../RF24_c/RF24_cg.c  RF24_setRetries(5,15);
000088 0E0F           03453         MOVLW   0x0f
Message[1301]: Using default destination of 0 (Access Bank).
00008A 6EE5           03454         MOVWF   POSTDEC1
00008C 0E05           03455         MOVLW   0x05
Message[1301]: Using default destination of 0 (Access Bank).
00008E 6EE5           03456         MOVWF   POSTDEC1
000090 EC?? F0??      03457         CALL    _RF24_setRetries
000094 52E6           03458         MOVF    POSTINC1, F
000096 52E6           03459         MOVF    POSTINC1, F
                      03460 ;       .line   676; ../../../RF24_c/RF24_cg.c  if( RF24_setDataRate( RF24_250KBPS ) )
000098 0E02           03461         MOVLW   0x02
Message[1301]: Using default destination of 0 (Access Bank).
00009A 6EE5           03462         MOVWF   POSTDEC1
00009C EC?? F0??      03463         CALL    _RF24_setDataRate
Message[1301]: Using default destination of 0 (Access Bank).
gpasm-1.4.0 #1107 (May  9 2015) build/sdcc/pr   12-2-2016  22:31:28         PAGE 76


LOC    OBJECT CODE    LINE  SOURCE TEXT
  VALUE

0000A0 6E??           03464         MOVWF   r0x00
0000A2 52E6           03465         MOVF    POSTINC1, F
0000A4 50??           03466         MOVF    r0x00, W
0000A6 E0??           03467         BZ      _00320_DS_
                      03468 ;       .line   678; ../../../RF24_c/RF24_cg.c  rf.p_variant = 1 ;
0000A8 0E01           03469         MOVLW   0x01
0000AA ????           03470         BANKSEL (_rf + 4)
0000AC 6F??           03471         MOVWF   (_rf + 4), B
0000AE                03472 _00320_DS_:
                      03473 ;       .line   680; ../../../RF24_c/RF24_cg.c  setup = RF24_read_register_d(RF_SETUP);
0000AE 0E06           03474         MOVLW   0x06
Message[1301]: Using default destination of 0 (Access Bank).
0000B0 6EE5           03475         MOVWF   POSTDEC1
0000B2 EC?? F0??      03476         CALL    _RF24_read_register_d
Message[1301]: Using default destination of 0 (Access Bank).
0000B6 6E??           03477         MOVWF   r0x00
0000B8 52E6           03478         MOVF    POSTINC1, F
                      03479 ;       .line   688; ../../../RF24_c/RF24_cg.c  RF24_setDataRate( RF24_1MBPS ) ;
0000BA 0E00           03480         MOVLW   0x00
Message[1301]: Using default destination of 0 (Access Bank).
0000BC 6EE5           03481         MOVWF   POSTDEC1
0000BE EC?? F0??      03482         CALL    _RF24_setDataRate
0000C2 52E6           03483         MOVF    POSTINC1, F
                      03484 ;       .line   694; ../../../RF24_c/RF24_cg.c  RF24_toggle_features_d();
0000C4 EC?? F0??      03485         CALL    _RF24_toggle_features_d
                      03486 ;       .line   695; ../../../RF24_c/RF24_cg.c  RF24_write_register_d(FEATURE,0 );
0000C8 0E00           03487         MOVLW   0x00
Message[1301]: Using default destination of 0 (Access Bank).
0000CA 6EE5           03488         MOVWF   POSTDEC1
0000CC 0E1D           03489         MOVLW   0x1d
Message[1301]: Using default destination of 0 (Access Bank).
0000CE 6EE5           03490         MOVWF   POSTDEC1
0000D0 EC?? F0??      03491         CALL    _RF24_write_register_d
0000D4 52E6           03492         MOVF    POSTINC1, F
0000D6 52E6           03493         MOVF    POSTINC1, F
                      03494 ;       .line   696; ../../../RF24_c/RF24_cg.c  RF24_write_register_d(DYNPD,0);
0000D8 0E00           03495         MOVLW   0x00
Message[1301]: Using default destination of 0 (Access Bank).
0000DA 6EE5           03496         MOVWF   POSTDEC1
0000DC 0E1C           03497         MOVLW   0x1c
Message[1301]: Using default destination of 0 (Access Bank).
0000DE 6EE5           03498         MOVWF   POSTDEC1
0000E0 EC?? F0??      03499         CALL    _RF24_write_register_d
0000E4 52E6           03500         MOVF    POSTINC1, F
0000E6 52E6           03501         MOVF    POSTINC1, F
                      03502 ;       .line   700; ../../../RF24_c/RF24_cg.c  RF24_write_register_d(NRF_STATUS,_BV(RX_DR) | _BV(TX_DS)
                             | _BV(MAX_RT) );
0000E8 0E70           03503         MOVLW   0x70
Message[1301]: Using default destination of 0 (Access Bank).
0000EA 6EE5           03504         MOVWF   POSTDEC1
0000EC 0E07           03505         MOVLW   0x07
Message[1301]: Using default destination of 0 (Access Bank).
0000EE 6EE5           03506         MOVWF   POSTDEC1
gpasm-1.4.0 #1107 (May  9 2015) build/sdcc/pr   12-2-2016  22:31:28         PAGE 77


LOC    OBJECT CODE    LINE  SOURCE TEXT
  VALUE

0000F0 EC?? F0??      03507         CALL    _RF24_write_register_d
0000F4 52E6           03508         MOVF    POSTINC1, F
0000F6 52E6           03509         MOVF    POSTINC1, F
                      03510 ;       .line   705; ../../../RF24_c/RF24_cg.c  RF24_setChannel(76);
0000F8 0E4C           03511         MOVLW   0x4c
Message[1301]: Using default destination of 0 (Access Bank).
0000FA 6EE5           03512         MOVWF   POSTDEC1
0000FC EC?? F0??      03513         CALL    _RF24_setChannel
000100 52E6           03514         MOVF    POSTINC1, F
                      03515 ;       .line   708; ../../../RF24_c/RF24_cg.c  RF24_flush_rx();
000102 EC?? F0??      03516         CALL    _RF24_flush_rx
                      03517 ;       .line   709; ../../../RF24_c/RF24_cg.c  RF24_flush_tx();
000106 EC?? F0??      03518         CALL    _RF24_flush_tx
                      03519 ;       .line   711; ../../../RF24_c/RF24_cg.c  RF24_powerUp(); //Power up by default when begin() is ca
                            lled
00010A EC?? F0??      03520         CALL    _RF24_powerUp
                      03521 ;       .line   715; ../../../RF24_c/RF24_cg.c  RF24_write_register_d(NRF_CONFIG, ( RF24_read_register_d
                            (NRF_CONFIG) ) & ~_BV(PRIM_RX) );
00010E 0E00           03522         MOVLW   0x00
Message[1301]: Using default destination of 0 (Access Bank).
000110 6EE5           03523         MOVWF   POSTDEC1
000112 EC?? F0??      03524         CALL    _RF24_read_register_d
Message[1301]: Using default destination of 0 (Access Bank).
000116 6E??           03525         MOVWF   r0x01
000118 52E6           03526         MOVF    POSTINC1, F
00011A 90??           03527         BCF     r0x01, 0
00011C 50??           03528         MOVF    r0x01, W
Message[1301]: Using default destination of 0 (Access Bank).
00011E 6EE5           03529         MOVWF   POSTDEC1
000120 0E00           03530         MOVLW   0x00
Message[1301]: Using default destination of 0 (Access Bank).
000122 6EE5           03531         MOVWF   POSTDEC1
000124 EC?? F0??      03532         CALL    _RF24_write_register_d
000128 52E6           03533         MOVF    POSTINC1, F
00012A 52E6           03534         MOVF    POSTINC1, F
                      03535 ;       .line   718; ../../../RF24_c/RF24_cg.c  return ( setup != 0 && setup != 0xff );
00012C 50??           03536         MOVF    r0x00, W
00012E E0??           03537         BZ      _00323_DS_
000130 50??           03538         MOVF    r0x00, W
000132 0AFF           03539         XORLW   0xff
000134 E1??           03540         BNZ     _00324_DS_
000136                03541 _00323_DS_:
Message[1301]: Using default destination of 0 (Access Bank).
000136 6A??           03542         CLRF    r0x00
000138 D???           03543         BRA     _00325_DS_
00013A                03544 _00324_DS_:
00013A 0E01           03545         MOVLW   0x01
Message[1301]: Using default destination of 0 (Access Bank).
00013C 6E??           03546         MOVWF   r0x00
00013E                03547 _00325_DS_:
00013E 50??           03548         MOVF    r0x00, W
000140 CFE4 F000      03549         MOVFF   PREINC1, r0x01
000144 CFE4 F000      03550         MOVFF   PREINC1, r0x00
gpasm-1.4.0 #1107 (May  9 2015) build/sdcc/pr   12-2-2016  22:31:28         PAGE 78


LOC    OBJECT CODE    LINE  SOURCE TEXT
  VALUE

000148 CFE4 FFD9      03551         MOVFF   PREINC1, FSR2L
00014C CFE4 FFDA      03552         MOVFF   PREINC1, FSR2H
000150 0012           03553         RETURN  
                      03554 
                      03555 ; ; Starting pCode block
                      03556 S_RF24_cg__RF24_getPayloadSize  code
000000                03557 _RF24_getPayloadSize:
                      03558 ;       .line   484; ../../../RF24_c/RF24_cg.c  uint8_t RF24_getPayloadSize(void)
000000 CFDA FFE5      03559         MOVFF   FSR2H, POSTDEC1
000004 CFD9 FFE5      03560         MOVFF   FSR2L, POSTDEC1
000008 CFE2 FFDA      03561         MOVFF   FSR1H, FSR2H
00000C CFE1 FFD9      03562         MOVFF   FSR1L, FSR2L
000010 ????           03563         BANKSEL (_rf + 5)
                      03564 ;       .line   486; ../../../RF24_c/RF24_cg.c  return rf.payload_size;
000012 51??           03565         MOVF    (_rf + 5), W, B
000014 CFE4 FFD9      03566         MOVFF   PREINC1, FSR2L
000018 CFE4 FFDA      03567         MOVFF   PREINC1, FSR2H
00001C 0012           03568         RETURN  
                      03569 
                      03570 ; ; Starting pCode block
                      03571 S_RF24_cg__RF24_setPayloadSize  code
000000                03572 _RF24_setPayloadSize:
                      03573 ;       .line   477; ../../../RF24_c/RF24_cg.c  void RF24_setPayloadSize(uint8_t size)
000000 CFDA FFE5      03574         MOVFF   FSR2H, POSTDEC1
000004 CFD9 FFE5      03575         MOVFF   FSR2L, POSTDEC1
000008 CFE2 FFDA      03576         MOVFF   FSR1H, FSR2H
00000C CFE1 FFD9      03577         MOVFF   FSR1L, FSR2L
000010 C??? F???      03578         MOVFF   r0x00, POSTDEC1
000014 0E03           03579         MOVLW   0x03
000016 CFDB F000      03580         MOVFF   PLUSW2, r0x00
                      03581 ;       .line   479; ../../../RF24_c/RF24_cg.c  rf.payload_size = rf24_min(size,32);
00001A 0E20           03582         MOVLW   0x20
00001C 5C??           03583         SUBWF   r0x00, W
00001E E3??           03584         BNC     _00301_DS_
000020 0E20           03585         MOVLW   0x20
Message[1301]: Using default destination of 0 (Access Bank).
000022 6E??           03586         MOVWF   r0x00
000024                03587 _00301_DS_:
000024 50??           03588         MOVF    r0x00, W
000026 ????           03589         BANKSEL (_rf + 5)
000028 6F??           03590         MOVWF   (_rf + 5), B
00002A CFE4 F000      03591         MOVFF   PREINC1, r0x00
00002E CFE4 FFD9      03592         MOVFF   PREINC1, FSR2L
000032 CFE4 FFDA      03593         MOVFF   PREINC1, FSR2H
000036 0012           03594         RETURN  
                      03595 
                      03596 ; ; Starting pCode block
                      03597 S_RF24_cg__RF24_getChannel      code
000000                03598 _RF24_getChannel:
                      03599 ;       .line   470; ../../../RF24_c/RF24_cg.c  uint8_t RF24_getChannel(void)
000000 CFDA FFE5      03600         MOVFF   FSR2H, POSTDEC1
000004 CFD9 FFE5      03601         MOVFF   FSR2L, POSTDEC1
000008 CFE2 FFDA      03602         MOVFF   FSR1H, FSR2H
gpasm-1.4.0 #1107 (May  9 2015) build/sdcc/pr   12-2-2016  22:31:28         PAGE 79


LOC    OBJECT CODE    LINE  SOURCE TEXT
  VALUE

00000C CFE1 FFD9      03603         MOVFF   FSR1L, FSR2L
000010 C??? F???      03604         MOVFF   r0x00, POSTDEC1
                      03605 ;       .line   473; ../../../RF24_c/RF24_cg.c  return RF24_read_register_d(RF_CH);
000014 0E05           03606         MOVLW   0x05
Message[1301]: Using default destination of 0 (Access Bank).
000016 6EE5           03607         MOVWF   POSTDEC1
000018 EC?? F0??      03608         CALL    _RF24_read_register_d
Message[1301]: Using default destination of 0 (Access Bank).
00001C 6E??           03609         MOVWF   r0x00
00001E 52E6           03610         MOVF    POSTINC1, F
000020 50??           03611         MOVF    r0x00, W
000022 CFE4 F000      03612         MOVFF   PREINC1, r0x00
000026 CFE4 FFD9      03613         MOVFF   PREINC1, FSR2L
00002A CFE4 FFDA      03614         MOVFF   PREINC1, FSR2H
00002E 0012           03615         RETURN  
                      03616 
                      03617 ; ; Starting pCode block
                      03618 S_RF24_cg__RF24_setChannel      code
000000                03619 _RF24_setChannel:
                      03620 ;       .line   464; ../../../RF24_c/RF24_cg.c  void RF24_setChannel( uint8_t channel)
000000 CFDA FFE5      03621         MOVFF   FSR2H, POSTDEC1
000004 CFD9 FFE5      03622         MOVFF   FSR2L, POSTDEC1
000008 CFE2 FFDA      03623         MOVFF   FSR1H, FSR2H
00000C CFE1 FFD9      03624         MOVFF   FSR1L, FSR2L
000010 C??? F???      03625         MOVFF   r0x00, POSTDEC1
000014 0E03           03626         MOVLW   0x03
000016 CFDB F000      03627         MOVFF   PLUSW2, r0x00
                      03628 ;       .line   467; ../../../RF24_c/RF24_cg.c  RF24_write_register_d(RF_CH,rf24_min(channel,max_channel
                            ));
00001A 0E7D           03629         MOVLW   0x7d
00001C 5C??           03630         SUBWF   r0x00, W
00001E E3??           03631         BNC     _00284_DS_
000020 0E7D           03632         MOVLW   0x7d
Message[1301]: Using default destination of 0 (Access Bank).
000022 6E??           03633         MOVWF   r0x00
000024                03634 _00284_DS_:
000024 50??           03635         MOVF    r0x00, W
Message[1301]: Using default destination of 0 (Access Bank).
000026 6EE5           03636         MOVWF   POSTDEC1
000028 0E05           03637         MOVLW   0x05
Message[1301]: Using default destination of 0 (Access Bank).
00002A 6EE5           03638         MOVWF   POSTDEC1
00002C EC?? F0??      03639         CALL    _RF24_write_register_d
000030 52E6           03640         MOVF    POSTINC1, F
000032 52E6           03641         MOVF    POSTINC1, F
000034 CFE4 F000      03642         MOVFF   PREINC1, r0x00
000038 CFE4 FFD9      03643         MOVFF   PREINC1, FSR2L
00003C CFE4 FFDA      03644         MOVFF   PREINC1, FSR2H
000040 0012           03645         RETURN  
                      03646 
                      03647 ; ; Starting pCode block
                      03648 S_RF24_cg__RF24_init    code
000000                03649 _RF24_init:
gpasm-1.4.0 #1107 (May  9 2015) build/sdcc/pr   12-2-2016  22:31:28         PAGE 80


LOC    OBJECT CODE    LINE  SOURCE TEXT
  VALUE

                      03650 ;       .line   433; ../../../RF24_c/RF24_cg.c  void RF24_init( uint8_t _cepin, uint8_t _cspin)
000000 CFDA FFE5      03651         MOVFF   FSR2H, POSTDEC1
000004 CFD9 FFE5      03652         MOVFF   FSR2L, POSTDEC1
000008 CFE2 FFDA      03653         MOVFF   FSR1H, FSR2H
00000C CFE1 FFD9      03654         MOVFF   FSR1L, FSR2L
000010 C??? F???      03655         MOVFF   r0x00, POSTDEC1
000014 C??? F???      03656         MOVFF   r0x01, POSTDEC1
000018 0E03           03657         MOVLW   0x03
00001A CFDB F000      03658         MOVFF   PLUSW2, r0x00
00001E 0E04           03659         MOVLW   0x04
000020 CFDB F000      03660         MOVFF   PLUSW2, r0x01
                      03661 ;       .line   435; ../../../RF24_c/RF24_cg.c  rf.ce_pin=_cepin;
000024 50??           03662         MOVF    r0x00, W
000026 ????           03663         BANKSEL _rf
000028 6F??           03664         MOVWF   _rf, B
                      03665 ;       .line   436; ../../../RF24_c/RF24_cg.c  rf.csn_pin=_cspin;
00002A 50??           03666         MOVF    r0x01, W
00002C ????           03667         BANKSEL (_rf + 1)
00002E 6F??           03668         MOVWF   (_rf + 1), B
000030 ????           03669         BANKSEL (_rf + 4)
                      03670 ;       .line   437; ../../../RF24_c/RF24_cg.c  rf.p_variant=0;
000032 6B??           03671         CLRF    (_rf + 4), B
                      03672 ;       .line   438; ../../../RF24_c/RF24_cg.c  rf.payload_size=32;
000034 0E20           03673         MOVLW   0x20
000036 ????           03674         BANKSEL (_rf + 5)
000038 6F??           03675         MOVWF   (_rf + 5), B
00003A ????           03676         BANKSEL (_rf + 6)
                      03677 ;       .line   439; ../../../RF24_c/RF24_cg.c  rf.dynamic_payloads_enabled=0;
00003C 6B??           03678         CLRF    (_rf + 6), B
                      03679 ;       .line   440; ../../../RF24_c/RF24_cg.c  rf.addr_width=ADDR_WIDTH;
00003E 0E05           03680         MOVLW   0x05
000040 ????           03681         BANKSEL (_rf + 12)
000042 6F??           03682         MOVWF   (_rf + 12), B
                      03683 ;       .line   441; ../../../RF24_c/RF24_cg.c  rf.csDelay=5;
000044 0E05           03684         MOVLW   0x05
000046 ????           03685         BANKSEL (_rf + 17)
000048 6F??           03686         MOVWF   (_rf + 17), B
00004A ????           03687         BANKSEL (_rf + 18)
00004C 6B??           03688         CLRF    (_rf + 18), B
00004E ????           03689         BANKSEL (_rf + 19)
000050 6B??           03690         CLRF    (_rf + 19), B
000052 ????           03691         BANKSEL (_rf + 20)
000054 6B??           03692         CLRF    (_rf + 20), B
000056 ????           03693         BANKSEL (_rf + 7)
                      03694 ;       .line   442; ../../../RF24_c/RF24_cg.c  rf.pipe0_reading_address[0]=0;
000058 6B??           03695         CLRF    (_rf + 7), B
00005A CFE4 F000      03696         MOVFF   PREINC1, r0x01
00005E CFE4 F000      03697         MOVFF   PREINC1, r0x00
000062 CFE4 FFD9      03698         MOVFF   PREINC1, FSR2L
000066 CFE4 FFDA      03699         MOVFF   PREINC1, FSR2H
00006A 0012           03700         RETURN  
                      03701 
                      03702 ; ; Starting pCode block
gpasm-1.4.0 #1107 (May  9 2015) build/sdcc/pr   12-2-2016  22:31:28         PAGE 81


LOC    OBJECT CODE    LINE  SOURCE TEXT
  VALUE

                      03703 S_RF24_cg__RF24_get_status      code
000000                03704 _RF24_get_status:
                      03705 ;       .line   355; ../../../RF24_c/RF24_cg.c  uint8_t RF24_get_status(void )
000000 CFDA FFE5      03706         MOVFF   FSR2H, POSTDEC1
000004 CFD9 FFE5      03707         MOVFF   FSR2L, POSTDEC1
000008 CFE2 FFDA      03708         MOVFF   FSR1H, FSR2H
00000C CFE1 FFD9      03709         MOVFF   FSR1L, FSR2L
000010 C??? F???      03710         MOVFF   r0x00, POSTDEC1
                      03711 ;       .line   357; ../../../RF24_c/RF24_cg.c  return RF24_spiTrans( NOP_);
000014 0EFF           03712         MOVLW   0xff
Message[1301]: Using default destination of 0 (Access Bank).
000016 6EE5           03713         MOVWF   POSTDEC1
000018 EC?? F0??      03714         CALL    _RF24_spiTrans
Message[1301]: Using default destination of 0 (Access Bank).
00001C 6E??           03715         MOVWF   r0x00
00001E 52E6           03716         MOVF    POSTINC1, F
000020 50??           03717         MOVF    r0x00, W
000022 CFE4 F000      03718         MOVFF   PREINC1, r0x00
000026 CFE4 FFD9      03719         MOVFF   PREINC1, FSR2L
00002A CFE4 FFDA      03720         MOVFF   PREINC1, FSR2H
00002E 0012           03721         RETURN  
                      03722 
                      03723 ; ; Starting pCode block
                      03724 S_RF24_cg__RF24_flush_tx        code
000000                03725 _RF24_flush_tx:
                      03726 ;       .line   348; ../../../RF24_c/RF24_cg.c  uint8_t RF24_flush_tx(void )
000000 CFDA FFE5      03727         MOVFF   FSR2H, POSTDEC1
000004 CFD9 FFE5      03728         MOVFF   FSR2L, POSTDEC1
000008 CFE2 FFDA      03729         MOVFF   FSR1H, FSR2H
00000C CFE1 FFD9      03730         MOVFF   FSR1L, FSR2L
000010 C??? F???      03731         MOVFF   r0x00, POSTDEC1
                      03732 ;       .line   350; ../../../RF24_c/RF24_cg.c  return RF24_spiTrans( FLUSH_TX );
000014 0EE1           03733         MOVLW   0xe1
Message[1301]: Using default destination of 0 (Access Bank).
000016 6EE5           03734         MOVWF   POSTDEC1
000018 EC?? F0??      03735         CALL    _RF24_spiTrans
Message[1301]: Using default destination of 0 (Access Bank).
00001C 6E??           03736         MOVWF   r0x00
00001E 52E6           03737         MOVF    POSTINC1, F
000020 50??           03738         MOVF    r0x00, W
000022 CFE4 F000      03739         MOVFF   PREINC1, r0x00
000026 CFE4 FFD9      03740         MOVFF   PREINC1, FSR2L
00002A CFE4 FFDA      03741         MOVFF   PREINC1, FSR2H
00002E 0012           03742         RETURN  
                      03743 
                      03744 ; ; Starting pCode block
                      03745 S_RF24_cg__RF24_flush_rx        code
000000                03746 _RF24_flush_rx:
                      03747 ;       .line   341; ../../../RF24_c/RF24_cg.c  uint8_t RF24_flush_rx(void)
000000 CFDA FFE5      03748         MOVFF   FSR2H, POSTDEC1
000004 CFD9 FFE5      03749         MOVFF   FSR2L, POSTDEC1
000008 CFE2 FFDA      03750         MOVFF   FSR1H, FSR2H
00000C CFE1 FFD9      03751         MOVFF   FSR1L, FSR2L
gpasm-1.4.0 #1107 (May  9 2015) build/sdcc/pr   12-2-2016  22:31:28         PAGE 82


LOC    OBJECT CODE    LINE  SOURCE TEXT
  VALUE

000010 C??? F???      03752         MOVFF   r0x00, POSTDEC1
                      03753 ;       .line   343; ../../../RF24_c/RF24_cg.c  return RF24_spiTrans( FLUSH_RX );
000014 0EE2           03754         MOVLW   0xe2
Message[1301]: Using default destination of 0 (Access Bank).
000016 6EE5           03755         MOVWF   POSTDEC1
000018 EC?? F0??      03756         CALL    _RF24_spiTrans
Message[1301]: Using default destination of 0 (Access Bank).
00001C 6E??           03757         MOVWF   r0x00
00001E 52E6           03758         MOVF    POSTINC1, F
000020 50??           03759         MOVF    r0x00, W
000022 CFE4 F000      03760         MOVFF   PREINC1, r0x00
000026 CFE4 FFD9      03761         MOVFF   PREINC1, FSR2L
00002A CFE4 FFDA      03762         MOVFF   PREINC1, FSR2H
00002E 0012           03763         RETURN  
                      03764 
                      03765 ; ; Starting pCode block
                      03766 S_RF24_cg__RF24_spiTrans        code
000000                03767 _RF24_spiTrans:
                      03768 ;       .line   327; ../../../RF24_c/RF24_cg.c  uint8_t RF24_spiTrans(uint8_t cmd){
000000 CFDA FFE5      03769         MOVFF   FSR2H, POSTDEC1
000004 CFD9 FFE5      03770         MOVFF   FSR2L, POSTDEC1
000008 CFE2 FFDA      03771         MOVFF   FSR1H, FSR2H
00000C CFE1 FFD9      03772         MOVFF   FSR1L, FSR2L
000010 C??? F???      03773         MOVFF   r0x00, POSTDEC1
000014 0E03           03774         MOVLW   0x03
000016 CFDB F000      03775         MOVFF   PLUSW2, r0x00
                      03776 ;       .line   331; ../../../RF24_c/RF24_cg.c  RF24_beginTransaction();
00001A EC?? F0??      03777         CALL    _RF24_beginTransaction
                      03778 ;       .line   332; ../../../RF24_c/RF24_cg.c  status = SPI_transfer( cmd );
00001E 50??           03779         MOVF    r0x00, W
Message[1301]: Using default destination of 0 (Access Bank).
000020 6EE5           03780         MOVWF   POSTDEC1
000022 EC?? F0??      03781         CALL    _SPI_transfer
Message[1301]: Using default destination of 0 (Access Bank).
000026 6E??           03782         MOVWF   r0x00
000028 52E6           03783         MOVF    POSTINC1, F
                      03784 ;       .line   333; ../../../RF24_c/RF24_cg.c  RF24_endTransaction();
00002A EC?? F0??      03785         CALL    _RF24_endTransaction
                      03786 ;       .line   335; ../../../RF24_c/RF24_cg.c  return status;
00002E 50??           03787         MOVF    r0x00, W
000030 CFE4 F000      03788         MOVFF   PREINC1, r0x00
000034 CFE4 FFD9      03789         MOVFF   PREINC1, FSR2L
000038 CFE4 FFDA      03790         MOVFF   PREINC1, FSR2H
00003C 0012           03791         RETURN  
                      03792 
                      03793 ; ; Starting pCode block
                      03794 S_RF24_cg__RF24_read_payload    code
000000                03795 _RF24_read_payload:
                      03796 ;       .line   272; ../../../RF24_c/RF24_cg.c  uint8_t RF24_read_payload(void* buf, uint8_t data_len)
000000 CFDA FFE5      03797         MOVFF   FSR2H, POSTDEC1
000004 CFD9 FFE5      03798         MOVFF   FSR2L, POSTDEC1
000008 CFE2 FFDA      03799         MOVFF   FSR1H, FSR2H
00000C CFE1 FFD9      03800         MOVFF   FSR1L, FSR2L
gpasm-1.4.0 #1107 (May  9 2015) build/sdcc/pr   12-2-2016  22:31:28         PAGE 83


LOC    OBJECT CODE    LINE  SOURCE TEXT
  VALUE

000010 C??? F???      03801         MOVFF   r0x00, POSTDEC1
000014 C??? F???      03802         MOVFF   r0x01, POSTDEC1
000018 C??? F???      03803         MOVFF   r0x02, POSTDEC1
00001C C??? F???      03804         MOVFF   r0x03, POSTDEC1
000020 C??? F???      03805         MOVFF   r0x04, POSTDEC1
000024 C??? F???      03806         MOVFF   r0x05, POSTDEC1
000028 C??? F???      03807         MOVFF   r0x06, POSTDEC1
00002C 0E03           03808         MOVLW   0x03
00002E CFDB F000      03809         MOVFF   PLUSW2, r0x00
000032 0E04           03810         MOVLW   0x04
000034 CFDB F000      03811         MOVFF   PLUSW2, r0x01
000038 0E05           03812         MOVLW   0x05
00003A CFDB F000      03813         MOVFF   PLUSW2, r0x02
00003E 0E06           03814         MOVLW   0x06
000040 CFDB F000      03815         MOVFF   PLUSW2, r0x03
                      03816 ;       .line   275; ../../../RF24_c/RF24_cg.c  uint8_t* current = (uint8_t*)(buf);
000044 50??           03817         MOVF    r0x02, W
Message[1301]: Using default destination of 0 (Access Bank).
000046 6E??           03818         MOVWF   r0x02
000048 50??           03819         MOVF    r0x01, W
Message[1301]: Using default destination of 0 (Access Bank).
00004A 6E??           03820         MOVWF   r0x01
00004C 50??           03821         MOVF    r0x00, W
Message[1301]: Using default destination of 0 (Access Bank).
00004E 6E??           03822         MOVWF   r0x00
                      03823 ;       .line   278; ../../../RF24_c/RF24_cg.c  if(data_len > rf.payload_size) data_len = rf.payload_siz
                            e;
000050 C??? F???      03824         MOVFF   (_rf + 5), r0x04
000054 50??           03825         MOVF    r0x03, W
000056 5C??           03826         SUBWF   r0x04, W
000058 E2??           03827         BC      _00219_DS_
00005A C??? F???      03828         MOVFF   r0x04, r0x03
00005E                03829 _00219_DS_:
00005E ????           03830         BANKSEL (_rf + 6)
                      03831 ;       .line   279; ../../../RF24_c/RF24_cg.c  blank_len = rf.dynamic_payloads_enabled ? 0 : rf.payload
                            _size - data_len;
000060 51??           03832         MOVF    (_rf + 6), W, B
000062 E0??           03833         BZ      _00228_DS_
Message[1301]: Using default destination of 0 (Access Bank).
000064 6A??           03834         CLRF    r0x05
000066 D???           03835         BRA     _00229_DS_
000068                03836 _00228_DS_:
000068 50??           03837         MOVF    r0x03, W
00006A 5C??           03838         SUBWF   r0x04, W
Message[1301]: Using default destination of 0 (Access Bank).
00006C 6E??           03839         MOVWF   r0x05
00006E                03840 _00229_DS_:
00006E C??? F???      03841         MOVFF   r0x05, r0x04
                      03842 ;       .line   311; ../../../RF24_c/RF24_cg.c  RF24_beginTransaction();
000072 EC?? F0??      03843         CALL    _RF24_beginTransaction
                      03844 ;       .line   312; ../../../RF24_c/RF24_cg.c  status = SPI_transfer( R_RX_PAYLOAD );
000076 0E61           03845         MOVLW   0x61
Message[1301]: Using default destination of 0 (Access Bank).
gpasm-1.4.0 #1107 (May  9 2015) build/sdcc/pr   12-2-2016  22:31:28         PAGE 84


LOC    OBJECT CODE    LINE  SOURCE TEXT
  VALUE

000078 6EE5           03846         MOVWF   POSTDEC1
00007A EC?? F0??      03847         CALL    _SPI_transfer
Message[1301]: Using default destination of 0 (Access Bank).
00007E 6E??           03848         MOVWF   r0x05
000080 52E6           03849         MOVF    POSTINC1, F
000082                03850 _00220_DS_:
                      03851 ;       .line   313; ../../../RF24_c/RF24_cg.c  while ( data_len-- ) {
000082 C??? F???      03852         MOVFF   r0x03, r0x06
000086 06??           03853         DECF    r0x03, F
000088 50??           03854         MOVF    r0x06, W
00008A E0??           03855         BZ      _00235_DS_
                      03856 ;       .line   314; ../../../RF24_c/RF24_cg.c  *current++ = SPI_transfer(0xFF);
00008C 0EFF           03857         MOVLW   0xff
Message[1301]: Using default destination of 0 (Access Bank).
00008E 6EE5           03858         MOVWF   POSTDEC1
000090 EC?? F0??      03859         CALL    _SPI_transfer
Message[1301]: Using default destination of 0 (Access Bank).
000094 6E??           03860         MOVWF   r0x06
000096 52E6           03861         MOVF    POSTINC1, F
000098 C??? F???      03862         MOVFF   r0x06, POSTDEC1
00009C C??? F???      03863         MOVFF   r0x00, FSR0L
0000A0 C??? F???      03864         MOVFF   r0x01, PRODL
0000A4 50??           03865         MOVF    r0x02, W
0000A6 EC?? F0??      03866         CALL    __gptrput1
0000AA 2A??           03867         INCF    r0x00, F
0000AC E3??           03868         BNC     _00220_DS_
0000AE 4A??           03869         INFSNZ  r0x01, F
0000B0 2A??           03870         INCF    r0x02, F
0000B2                03871 _00251_DS_:
0000B2 D???           03872         BRA     _00220_DS_
0000B4                03873 _00235_DS_:
                      03874 ;       .line   316; ../../../RF24_c/RF24_cg.c  while ( blank_len-- ) {
0000B4 C??? F???      03875         MOVFF   r0x04, r0x00
0000B8                03876 _00223_DS_:
0000B8 C??? F???      03877         MOVFF   r0x00, r0x01
0000BC 06??           03878         DECF    r0x00, F
0000BE 50??           03879         MOVF    r0x01, W
0000C0 E0??           03880         BZ      _00225_DS_
                      03881 ;       .line   317; ../../../RF24_c/RF24_cg.c  SPI_transfer(0xff);
0000C2 0EFF           03882         MOVLW   0xff
Message[1301]: Using default destination of 0 (Access Bank).
0000C4 6EE5           03883         MOVWF   POSTDEC1
0000C6 EC?? F0??      03884         CALL    _SPI_transfer
0000CA 52E6           03885         MOVF    POSTINC1, F
0000CC D???           03886         BRA     _00223_DS_
0000CE                03887 _00225_DS_:
                      03888 ;       .line   319; ../../../RF24_c/RF24_cg.c  RF24_endTransaction();
0000CE EC?? F0??      03889         CALL    _RF24_endTransaction
                      03890 ;       .line   323; ../../../RF24_c/RF24_cg.c  return status;
0000D2 50??           03891         MOVF    r0x05, W
0000D4 CFE4 F000      03892         MOVFF   PREINC1, r0x06
0000D8 CFE4 F000      03893         MOVFF   PREINC1, r0x05
0000DC CFE4 F000      03894         MOVFF   PREINC1, r0x04
gpasm-1.4.0 #1107 (May  9 2015) build/sdcc/pr   12-2-2016  22:31:28         PAGE 85


LOC    OBJECT CODE    LINE  SOURCE TEXT
  VALUE

0000E0 CFE4 F000      03895         MOVFF   PREINC1, r0x03
0000E4 CFE4 F000      03896         MOVFF   PREINC1, r0x02
0000E8 CFE4 F000      03897         MOVFF   PREINC1, r0x01
0000EC CFE4 F000      03898         MOVFF   PREINC1, r0x00
0000F0 CFE4 FFD9      03899         MOVFF   PREINC1, FSR2L
0000F4 CFE4 FFDA      03900         MOVFF   PREINC1, FSR2H
0000F8 0012           03901         RETURN  
                      03902 
                      03903 ; ; Starting pCode block
                      03904 S_RF24_cg__RF24_write_payload   code
000000                03905 _RF24_write_payload:
                      03906 ;       .line   224; ../../../RF24_c/RF24_cg.c  uint8_t RF24_write_payload(const void* buf, uint8_t data
                            _len, const uint8_t writeType)
000000 CFDA FFE5      03907         MOVFF   FSR2H, POSTDEC1
000004 CFD9 FFE5      03908         MOVFF   FSR2L, POSTDEC1
000008 CFE2 FFDA      03909         MOVFF   FSR1H, FSR2H
00000C CFE1 FFD9      03910         MOVFF   FSR1L, FSR2L
000010 C??? F???      03911         MOVFF   r0x00, POSTDEC1
000014 C??? F???      03912         MOVFF   r0x01, POSTDEC1
000018 C??? F???      03913         MOVFF   r0x02, POSTDEC1
00001C C??? F???      03914         MOVFF   r0x03, POSTDEC1
000020 C??? F???      03915         MOVFF   r0x04, POSTDEC1
000024 C??? F???      03916         MOVFF   r0x05, POSTDEC1
000028 C??? F???      03917         MOVFF   r0x06, POSTDEC1
00002C 0E03           03918         MOVLW   0x03
00002E CFDB F000      03919         MOVFF   PLUSW2, r0x00
000032 0E04           03920         MOVLW   0x04
000034 CFDB F000      03921         MOVFF   PLUSW2, r0x01
000038 0E05           03922         MOVLW   0x05
00003A CFDB F000      03923         MOVFF   PLUSW2, r0x02
00003E 0E06           03924         MOVLW   0x06
000040 CFDB F000      03925         MOVFF   PLUSW2, r0x03
000044 0E07           03926         MOVLW   0x07
000046 CFDB F000      03927         MOVFF   PLUSW2, r0x04
                      03928 ;       .line   227; ../../../RF24_c/RF24_cg.c  const uint8_t* current = (const uint8_t*)(buf);
00004A 50??           03929         MOVF    r0x02, W
Message[1301]: Using default destination of 0 (Access Bank).
00004C 6E??           03930         MOVWF   r0x02
00004E 50??           03931         MOVF    r0x01, W
Message[1301]: Using default destination of 0 (Access Bank).
000050 6E??           03932         MOVWF   r0x01
000052 50??           03933         MOVF    r0x00, W
Message[1301]: Using default destination of 0 (Access Bank).
000054 6E??           03934         MOVWF   r0x00
                      03935 ;       .line   230; ../../../RF24_c/RF24_cg.c  data_len = rf24_min(data_len, rf.payload_size);
000056 C??? F???      03936         MOVFF   (_rf + 5), r0x05
00005A 50??           03937         MOVF    r0x05, W
00005C 5C??           03938         SUBWF   r0x03, W
00005E E2??           03939         BC      _00188_DS_
000060 C??? F???      03940         MOVFF   r0x03, r0x06
000064 D???           03941         BRA     _00189_DS_
000066                03942 _00188_DS_:
000066 C??? F???      03943         MOVFF   r0x05, r0x06
gpasm-1.4.0 #1107 (May  9 2015) build/sdcc/pr   12-2-2016  22:31:28         PAGE 86


LOC    OBJECT CODE    LINE  SOURCE TEXT
  VALUE

00006A                03944 _00189_DS_:
00006A C??? F???      03945         MOVFF   r0x06, r0x03
00006E ????           03946         BANKSEL (_rf + 6)
                      03947 ;       .line   231; ../../../RF24_c/RF24_cg.c  blank_len = rf.dynamic_payloads_enabled ? 0 : rf.payload
                            _size - data_len;
000070 51??           03948         MOVF    (_rf + 6), W, B
000072 E0??           03949         BZ      _00190_DS_
Message[1301]: Using default destination of 0 (Access Bank).
000074 6A??           03950         CLRF    r0x06
000076 D???           03951         BRA     _00191_DS_
000078                03952 _00190_DS_:
000078 50??           03953         MOVF    r0x03, W
00007A 5C??           03954         SUBWF   r0x05, W
Message[1301]: Using default destination of 0 (Access Bank).
00007C 6E??           03955         MOVWF   r0x06
00007E                03956 _00191_DS_:
00007E C??? F???      03957         MOVFF   r0x06, r0x05
                      03958 ;       .line   255; ../../../RF24_c/RF24_cg.c  RF24_beginTransaction();
000082 EC?? F0??      03959         CALL    _RF24_beginTransaction
                      03960 ;       .line   256; ../../../RF24_c/RF24_cg.c  status = SPI_transfer( writeType );
000086 50??           03961         MOVF    r0x04, W
Message[1301]: Using default destination of 0 (Access Bank).
000088 6EE5           03962         MOVWF   POSTDEC1
00008A EC?? F0??      03963         CALL    _SPI_transfer
Message[1301]: Using default destination of 0 (Access Bank).
00008E 6E??           03964         MOVWF   r0x04
000090 52E6           03965         MOVF    POSTINC1, F
000092                03966 _00180_DS_:
                      03967 ;       .line   257; ../../../RF24_c/RF24_cg.c  while ( data_len-- ) {
000092 C??? F???      03968         MOVFF   r0x03, r0x06
000096 06??           03969         DECF    r0x03, F
000098 50??           03970         MOVF    r0x06, W
00009A E0??           03971         BZ      _00197_DS_
                      03972 ;       .line   258; ../../../RF24_c/RF24_cg.c  SPI_transfer(*current++);
00009C C??? F???      03973         MOVFF   r0x00, FSR0L
0000A0 C??? F???      03974         MOVFF   r0x01, PRODL
0000A4 50??           03975         MOVF    r0x02, W
0000A6 EC?? F0??      03976         CALL    __gptrget1
Message[1301]: Using default destination of 0 (Access Bank).
0000AA 6E??           03977         MOVWF   r0x06
0000AC 2A??           03978         INCF    r0x00, F
0000AE E3??           03979         BNC     _00213_DS_
0000B0 4A??           03980         INFSNZ  r0x01, F
0000B2 2A??           03981         INCF    r0x02, F
0000B4                03982 _00213_DS_:
0000B4 50??           03983         MOVF    r0x06, W
Message[1301]: Using default destination of 0 (Access Bank).
0000B6 6EE5           03984         MOVWF   POSTDEC1
0000B8 EC?? F0??      03985         CALL    _SPI_transfer
0000BC 52E6           03986         MOVF    POSTINC1, F
0000BE D???           03987         BRA     _00180_DS_
0000C0                03988 _00197_DS_:
                      03989 ;       .line   260; ../../../RF24_c/RF24_cg.c  while ( blank_len-- ) {
gpasm-1.4.0 #1107 (May  9 2015) build/sdcc/pr   12-2-2016  22:31:28         PAGE 87


LOC    OBJECT CODE    LINE  SOURCE TEXT
  VALUE

0000C0 C??? F???      03990         MOVFF   r0x05, r0x00
0000C4                03991 _00183_DS_:
0000C4 C??? F???      03992         MOVFF   r0x00, r0x01
0000C8 06??           03993         DECF    r0x00, F
0000CA 50??           03994         MOVF    r0x01, W
0000CC E0??           03995         BZ      _00185_DS_
                      03996 ;       .line   261; ../../../RF24_c/RF24_cg.c  SPI_transfer(0);
0000CE 0E00           03997         MOVLW   0x00
Message[1301]: Using default destination of 0 (Access Bank).
0000D0 6EE5           03998         MOVWF   POSTDEC1
0000D2 EC?? F0??      03999         CALL    _SPI_transfer
0000D6 52E6           04000         MOVF    POSTINC1, F
0000D8 D???           04001         BRA     _00183_DS_
0000DA                04002 _00185_DS_:
                      04003 ;       .line   263; ../../../RF24_c/RF24_cg.c  RF24_endTransaction();
0000DA EC?? F0??      04004         CALL    _RF24_endTransaction
                      04005 ;       .line   267; ../../../RF24_c/RF24_cg.c  return status;
0000DE 50??           04006         MOVF    r0x04, W
0000E0 CFE4 F000      04007         MOVFF   PREINC1, r0x06
0000E4 CFE4 F000      04008         MOVFF   PREINC1, r0x05
0000E8 CFE4 F000      04009         MOVFF   PREINC1, r0x04
0000EC CFE4 F000      04010         MOVFF   PREINC1, r0x03
0000F0 CFE4 F000      04011         MOVFF   PREINC1, r0x02
0000F4 CFE4 F000      04012         MOVFF   PREINC1, r0x01
0000F8 CFE4 F000      04013         MOVFF   PREINC1, r0x00
0000FC CFE4 FFD9      04014         MOVFF   PREINC1, FSR2L
000100 CFE4 FFDA      04015         MOVFF   PREINC1, FSR2H
000104 0012           04016         RETURN  
                      04017 
                      04018 ; ; Starting pCode block
                      04019 S_RF24_cg__RF24_write_register_d        code
000000                04020 _RF24_write_register_d:
                      04021 ;       .line   194; ../../../RF24_c/RF24_cg.c  uint8_t RF24_write_register_d(uint8_t reg, uint8_t value
                            )
000000 CFDA FFE5      04022         MOVFF   FSR2H, POSTDEC1
000004 CFD9 FFE5      04023         MOVFF   FSR2L, POSTDEC1
000008 CFE2 FFDA      04024         MOVFF   FSR1H, FSR2H
00000C CFE1 FFD9      04025         MOVFF   FSR1L, FSR2L
000010 C??? F???      04026         MOVFF   r0x00, POSTDEC1
000014 C??? F???      04027         MOVFF   r0x01, POSTDEC1
000018 0E03           04028         MOVLW   0x03
00001A CFDB F000      04029         MOVFF   PLUSW2, r0x00
00001E 0E04           04030         MOVLW   0x04
000020 CFDB F000      04031         MOVFF   PLUSW2, r0x01
                      04032 ;       .line   212; ../../../RF24_c/RF24_cg.c  RF24_beginTransaction();
000024 EC?? F0??      04033         CALL    _RF24_beginTransaction
                      04034 ;       .line   213; ../../../RF24_c/RF24_cg.c  status = SPI_transfer( W_REGISTER | ( REGISTER_MASK & re
                            g ) );
000028 0E1F           04035         MOVLW   0x1f
00002A 16??           04036         ANDWF   r0x00, F
00002C 8A??           04037         BSF     r0x00, 5
00002E 50??           04038         MOVF    r0x00, W
Message[1301]: Using default destination of 0 (Access Bank).
gpasm-1.4.0 #1107 (May  9 2015) build/sdcc/pr   12-2-2016  22:31:28         PAGE 88


LOC    OBJECT CODE    LINE  SOURCE TEXT
  VALUE

000030 6EE5           04039         MOVWF   POSTDEC1
000032 EC?? F0??      04040         CALL    _SPI_transfer
Message[1301]: Using default destination of 0 (Access Bank).
000036 6E??           04041         MOVWF   r0x00
000038 52E6           04042         MOVF    POSTINC1, F
                      04043 ;       .line   214; ../../../RF24_c/RF24_cg.c  SPI_transfer(value);
00003A 50??           04044         MOVF    r0x01, W
Message[1301]: Using default destination of 0 (Access Bank).
00003C 6EE5           04045         MOVWF   POSTDEC1
00003E EC?? F0??      04046         CALL    _SPI_transfer
000042 52E6           04047         MOVF    POSTINC1, F
                      04048 ;       .line   215; ../../../RF24_c/RF24_cg.c  RF24_endTransaction();
000044 EC?? F0??      04049         CALL    _RF24_endTransaction
                      04050 ;       .line   219; ../../../RF24_c/RF24_cg.c  return status;
000048 50??           04051         MOVF    r0x00, W
00004A CFE4 F000      04052         MOVFF   PREINC1, r0x01
00004E CFE4 F000      04053         MOVFF   PREINC1, r0x00
000052 CFE4 FFD9      04054         MOVFF   PREINC1, FSR2L
000056 CFE4 FFDA      04055         MOVFF   PREINC1, FSR2H
00005A 0012           04056         RETURN  
                      04057 
                      04058 ; ; Starting pCode block
                      04059 S_RF24_cg__RF24_write_register_c_d      code
000000                04060 _RF24_write_register_c_d:
                      04061 ;       .line   162; ../../../RF24_c/RF24_cg.c  uint8_t RF24_write_register_c_d(uint8_t reg, const uint8
                            _t* buf, uint8_t len)
000000 CFDA FFE5      04062         MOVFF   FSR2H, POSTDEC1
000004 CFD9 FFE5      04063         MOVFF   FSR2L, POSTDEC1
000008 CFE2 FFDA      04064         MOVFF   FSR1H, FSR2H
00000C CFE1 FFD9      04065         MOVFF   FSR1L, FSR2L
000010 C??? F???      04066         MOVFF   r0x00, POSTDEC1
000014 C??? F???      04067         MOVFF   r0x01, POSTDEC1
000018 C??? F???      04068         MOVFF   r0x02, POSTDEC1
00001C C??? F???      04069         MOVFF   r0x03, POSTDEC1
000020 C??? F???      04070         MOVFF   r0x04, POSTDEC1
000024 C??? F???      04071         MOVFF   r0x05, POSTDEC1
000028 0E03           04072         MOVLW   0x03
00002A CFDB F000      04073         MOVFF   PLUSW2, r0x00
00002E 0E04           04074         MOVLW   0x04
000030 CFDB F000      04075         MOVFF   PLUSW2, r0x01
000034 0E05           04076         MOVLW   0x05
000036 CFDB F000      04077         MOVFF   PLUSW2, r0x02
00003A 0E06           04078         MOVLW   0x06
00003C CFDB F000      04079         MOVFF   PLUSW2, r0x03
000040 0E07           04080         MOVLW   0x07
000042 CFDB F000      04081         MOVFF   PLUSW2, r0x04
                      04082 ;       .line   181; ../../../RF24_c/RF24_cg.c  RF24_beginTransaction();
000046 EC?? F0??      04083         CALL    _RF24_beginTransaction
                      04084 ;       .line   182; ../../../RF24_c/RF24_cg.c  status = SPI_transfer( W_REGISTER | ( REGISTER_MASK & re
                            g ) );
00004A 0E1F           04085         MOVLW   0x1f
00004C 16??           04086         ANDWF   r0x00, F
00004E 8A??           04087         BSF     r0x00, 5
gpasm-1.4.0 #1107 (May  9 2015) build/sdcc/pr   12-2-2016  22:31:28         PAGE 89


LOC    OBJECT CODE    LINE  SOURCE TEXT
  VALUE

000050 50??           04088         MOVF    r0x00, W
Message[1301]: Using default destination of 0 (Access Bank).
000052 6EE5           04089         MOVWF   POSTDEC1
000054 EC?? F0??      04090         CALL    _SPI_transfer
Message[1301]: Using default destination of 0 (Access Bank).
000058 6E??           04091         MOVWF   r0x00
00005A 52E6           04092         MOVF    POSTINC1, F
00005C                04093 _00156_DS_:
                      04094 ;       .line   183; ../../../RF24_c/RF24_cg.c  while ( len-- )
00005C C??? F???      04095         MOVFF   r0x04, r0x05
000060 06??           04096         DECF    r0x04, F
000062 50??           04097         MOVF    r0x05, W
000064 E0??           04098         BZ      _00158_DS_
                      04099 ;       .line   184; ../../../RF24_c/RF24_cg.c  SPI_transfer(*buf++);
000066 C??? F???      04100         MOVFF   r0x01, FSR0L
00006A C??? F???      04101         MOVFF   r0x02, PRODL
00006E 50??           04102         MOVF    r0x03, W
000070 EC?? F0??      04103         CALL    __gptrget1
Message[1301]: Using default destination of 0 (Access Bank).
000074 6E??           04104         MOVWF   r0x05
000076 2A??           04105         INCF    r0x01, F
000078 E3??           04106         BNC     _00170_DS_
00007A 4A??           04107         INFSNZ  r0x02, F
00007C 2A??           04108         INCF    r0x03, F
00007E                04109 _00170_DS_:
00007E 50??           04110         MOVF    r0x05, W
Message[1301]: Using default destination of 0 (Access Bank).
000080 6EE5           04111         MOVWF   POSTDEC1
000082 EC?? F0??      04112         CALL    _SPI_transfer
000086 52E6           04113         MOVF    POSTINC1, F
000088 D???           04114         BRA     _00156_DS_
00008A                04115 _00158_DS_:
                      04116 ;       .line   185; ../../../RF24_c/RF24_cg.c  RF24_endTransaction();
00008A EC?? F0??      04117         CALL    _RF24_endTransaction
                      04118 ;       .line   189; ../../../RF24_c/RF24_cg.c  return status;
00008E 50??           04119         MOVF    r0x00, W
000090 CFE4 F000      04120         MOVFF   PREINC1, r0x05
000094 CFE4 F000      04121         MOVFF   PREINC1, r0x04
000098 CFE4 F000      04122         MOVFF   PREINC1, r0x03
00009C CFE4 F000      04123         MOVFF   PREINC1, r0x02
0000A0 CFE4 F000      04124         MOVFF   PREINC1, r0x01
0000A4 CFE4 F000      04125         MOVFF   PREINC1, r0x00
0000A8 CFE4 FFD9      04126         MOVFF   PREINC1, FSR2L
0000AC CFE4 FFDA      04127         MOVFF   PREINC1, FSR2H
0000B0 0012           04128         RETURN  
                      04129 
                      04130 ; ; Starting pCode block
                      04131 S_RF24_cg__RF24_read_register_d code
000000                04132 _RF24_read_register_d:
                      04133 ;       .line   131; ../../../RF24_c/RF24_cg.c  uint8_t RF24_read_register_d(uint8_t reg)
000000 CFDA FFE5      04134         MOVFF   FSR2H, POSTDEC1
000004 CFD9 FFE5      04135         MOVFF   FSR2L, POSTDEC1
000008 CFE2 FFDA      04136         MOVFF   FSR1H, FSR2H
gpasm-1.4.0 #1107 (May  9 2015) build/sdcc/pr   12-2-2016  22:31:28         PAGE 90


LOC    OBJECT CODE    LINE  SOURCE TEXT
  VALUE

00000C CFE1 FFD9      04137         MOVFF   FSR1L, FSR2L
000010 C??? F???      04138         MOVFF   r0x00, POSTDEC1
000014 0E03           04139         MOVLW   0x03
000016 CFDB F000      04140         MOVFF   PLUSW2, r0x00
                      04141 ;       .line   150; ../../../RF24_c/RF24_cg.c  RF24_beginTransaction();
00001A EC?? F0??      04142         CALL    _RF24_beginTransaction
                      04143 ;       .line   151; ../../../RF24_c/RF24_cg.c  SPI_transfer( R_REGISTER | ( REGISTER_MASK & reg ) );
00001E 0E1F           04144         MOVLW   0x1f
000020 16??           04145         ANDWF   r0x00, F
000022 50??           04146         MOVF    r0x00, W
Message[1301]: Using default destination of 0 (Access Bank).
000024 6EE5           04147         MOVWF   POSTDEC1
000026 EC?? F0??      04148         CALL    _SPI_transfer
00002A 52E6           04149         MOVF    POSTINC1, F
                      04150 ;       .line   152; ../../../RF24_c/RF24_cg.c  result = SPI_transfer(0xff);
00002C 0EFF           04151         MOVLW   0xff
Message[1301]: Using default destination of 0 (Access Bank).
00002E 6EE5           04152         MOVWF   POSTDEC1
000030 EC?? F0??      04153         CALL    _SPI_transfer
Message[1301]: Using default destination of 0 (Access Bank).
000034 6E??           04154         MOVWF   r0x00
000036 52E6           04155         MOVF    POSTINC1, F
                      04156 ;       .line   153; ../../../RF24_c/RF24_cg.c  RF24_endTransaction();
000038 EC?? F0??      04157         CALL    _RF24_endTransaction
                      04158 ;       .line   157; ../../../RF24_c/RF24_cg.c  return result;
00003C 50??           04159         MOVF    r0x00, W
00003E CFE4 F000      04160         MOVFF   PREINC1, r0x00
000042 CFE4 FFD9      04161         MOVFF   PREINC1, FSR2L
000046 CFE4 FFDA      04162         MOVFF   PREINC1, FSR2H
00004A 0012           04163         RETURN  
                      04164 
                      04165 ; ; Starting pCode block
                      04166 S_RF24_cg__RF24_read_register_m_d       code
000000                04167 _RF24_read_register_m_d:
                      04168 ;       .line   93; ../../../RF24_c/RF24_cg.c   uint8_t RF24_read_register_m_d(uint8_t reg, uint8_t* buf
                            , uint8_t len)
000000 CFDA FFE5      04169         MOVFF   FSR2H, POSTDEC1
000004 CFD9 FFE5      04170         MOVFF   FSR2L, POSTDEC1
000008 CFE2 FFDA      04171         MOVFF   FSR1H, FSR2H
00000C CFE1 FFD9      04172         MOVFF   FSR1L, FSR2L
000010 C??? F???      04173         MOVFF   r0x00, POSTDEC1
000014 C??? F???      04174         MOVFF   r0x01, POSTDEC1
000018 C??? F???      04175         MOVFF   r0x02, POSTDEC1
00001C C??? F???      04176         MOVFF   r0x03, POSTDEC1
000020 C??? F???      04177         MOVFF   r0x04, POSTDEC1
000024 C??? F???      04178         MOVFF   r0x05, POSTDEC1
000028 0E03           04179         MOVLW   0x03
00002A CFDB F000      04180         MOVFF   PLUSW2, r0x00
00002E 0E04           04181         MOVLW   0x04
000030 CFDB F000      04182         MOVFF   PLUSW2, r0x01
000034 0E05           04183         MOVLW   0x05
000036 CFDB F000      04184         MOVFF   PLUSW2, r0x02
00003A 0E06           04185         MOVLW   0x06
gpasm-1.4.0 #1107 (May  9 2015) build/sdcc/pr   12-2-2016  22:31:28         PAGE 91


LOC    OBJECT CODE    LINE  SOURCE TEXT
  VALUE

00003C CFDB F000      04186         MOVFF   PLUSW2, r0x03
000040 0E07           04187         MOVLW   0x07
000042 CFDB F000      04188         MOVFF   PLUSW2, r0x04
                      04189 ;       .line   117; ../../../RF24_c/RF24_cg.c  RF24_beginTransaction();
000046 EC?? F0??      04190         CALL    _RF24_beginTransaction
                      04191 ;       .line   118; ../../../RF24_c/RF24_cg.c  status = SPI_transfer( R_REGISTER | ( REGISTER_MASK & re
                            g ) );
00004A 0E1F           04192         MOVLW   0x1f
00004C 16??           04193         ANDWF   r0x00, F
00004E 50??           04194         MOVF    r0x00, W
Message[1301]: Using default destination of 0 (Access Bank).
000050 6EE5           04195         MOVWF   POSTDEC1
000052 EC?? F0??      04196         CALL    _SPI_transfer
Message[1301]: Using default destination of 0 (Access Bank).
000056 6E??           04197         MOVWF   r0x00
000058 52E6           04198         MOVF    POSTINC1, F
00005A                04199 _00133_DS_:
                      04200 ;       .line   119; ../../../RF24_c/RF24_cg.c  while ( len-- ){
00005A C??? F???      04201         MOVFF   r0x04, r0x05
00005E 06??           04202         DECF    r0x04, F
000060 50??           04203         MOVF    r0x05, W
000062 E0??           04204         BZ      _00135_DS_
                      04205 ;       .line   120; ../../../RF24_c/RF24_cg.c  *buf++ = SPI_transfer(0xff);
000064 0EFF           04206         MOVLW   0xff
Message[1301]: Using default destination of 0 (Access Bank).
000066 6EE5           04207         MOVWF   POSTDEC1
000068 EC?? F0??      04208         CALL    _SPI_transfer
Message[1301]: Using default destination of 0 (Access Bank).
00006C 6E??           04209         MOVWF   r0x05
00006E 52E6           04210         MOVF    POSTINC1, F
000070 C??? F???      04211         MOVFF   r0x05, POSTDEC1
000074 C??? F???      04212         MOVFF   r0x01, FSR0L
000078 C??? F???      04213         MOVFF   r0x02, PRODL
00007C 50??           04214         MOVF    r0x03, W
00007E EC?? F0??      04215         CALL    __gptrput1
000082 2A??           04216         INCF    r0x01, F
000084 E3??           04217         BNC     _00133_DS_
000086 4A??           04218         INFSNZ  r0x02, F
000088 2A??           04219         INCF    r0x03, F
00008A                04220 _00146_DS_:
00008A D???           04221         BRA     _00133_DS_
00008C                04222 _00135_DS_:
                      04223 ;       .line   122; ../../../RF24_c/RF24_cg.c  RF24_endTransaction();
00008C EC?? F0??      04224         CALL    _RF24_endTransaction
                      04225 ;       .line   126; ../../../RF24_c/RF24_cg.c  return status;
000090 50??           04226         MOVF    r0x00, W
000092 CFE4 F000      04227         MOVFF   PREINC1, r0x05
000096 CFE4 F000      04228         MOVFF   PREINC1, r0x04
00009A CFE4 F000      04229         MOVFF   PREINC1, r0x03
00009E CFE4 F000      04230         MOVFF   PREINC1, r0x02
0000A2 CFE4 F000      04231         MOVFF   PREINC1, r0x01
0000A6 CFE4 F000      04232         MOVFF   PREINC1, r0x00
0000AA CFE4 FFD9      04233         MOVFF   PREINC1, FSR2L
gpasm-1.4.0 #1107 (May  9 2015) build/sdcc/pr   12-2-2016  22:31:28         PAGE 92


LOC    OBJECT CODE    LINE  SOURCE TEXT
  VALUE

0000AE CFE4 FFDA      04234         MOVFF   PREINC1, FSR2H
0000B2 0012           04235         RETURN  
                      04236 
                      04237 ; ; Starting pCode block
                      04238 S_RF24_cg__RF24_endTransaction  code
000000                04239 _RF24_endTransaction:
                      04240 ;       .line   84; ../../../RF24_c/RF24_cg.c   void RF24_endTransaction(void) {
000000 CFDA FFE5      04241         MOVFF   FSR2H, POSTDEC1
000004 CFD9 FFE5      04242         MOVFF   FSR2L, POSTDEC1
000008 CFE2 FFDA      04243         MOVFF   FSR1H, FSR2H
00000C CFE1 FFD9      04244         MOVFF   FSR1L, FSR2L
                      04245 ;       .line   85; ../../../RF24_c/RF24_cg.c   RF24_csn_d(HIGH);
000010 0E01           04246         MOVLW   0x01
Message[1301]: Using default destination of 0 (Access Bank).
000012 6EE5           04247         MOVWF   POSTDEC1
000014 EC?? F0??      04248         CALL    _RF24_csn_d
000018 52E6           04249         MOVF    POSTINC1, F
00001A CFE4 FFD9      04250         MOVFF   PREINC1, FSR2L
00001E CFE4 FFDA      04251         MOVFF   PREINC1, FSR2H
000022 0012           04252         RETURN  
                      04253 
                      04254 ; ; Starting pCode block
                      04255 S_RF24_cg__RF24_beginTransaction        code
000000                04256 _RF24_beginTransaction:
                      04257 ;       .line   75; ../../../RF24_c/RF24_cg.c   void RF24_beginTransaction(void ) {
000000 CFDA FFE5      04258         MOVFF   FSR2H, POSTDEC1
000004 CFD9 FFE5      04259         MOVFF   FSR2L, POSTDEC1
000008 CFE2 FFDA      04260         MOVFF   FSR1H, FSR2H
00000C CFE1 FFD9      04261         MOVFF   FSR1L, FSR2L
                      04262 ;       .line   79; ../../../RF24_c/RF24_cg.c   RF24_csn_d(LOW);
000010 0E00           04263         MOVLW   0x00
Message[1301]: Using default destination of 0 (Access Bank).
000012 6EE5           04264         MOVWF   POSTDEC1
000014 EC?? F0??      04265         CALL    _RF24_csn_d
000018 52E6           04266         MOVF    POSTINC1, F
00001A CFE4 FFD9      04267         MOVFF   PREINC1, FSR2L
00001E CFE4 FFDA      04268         MOVFF   PREINC1, FSR2H
000022 0012           04269         RETURN  
                      04270 
                      04271 ; ; Starting pCode block
                      04272 S_RF24_cg__RF24_ce_d    code
000000                04273 _RF24_ce_d:
                      04274 ;       .line   67; ../../../RF24_c/RF24_cg.c   void RF24_ce_d(uint8_t level)
000000 CFDA FFE5      04275         MOVFF   FSR2H, POSTDEC1
000004 CFD9 FFE5      04276         MOVFF   FSR2L, POSTDEC1
000008 CFE2 FFDA      04277         MOVFF   FSR1H, FSR2H
00000C CFE1 FFD9      04278         MOVFF   FSR1L, FSR2L
000010 C??? F???      04279         MOVFF   r0x00, POSTDEC1
000014 0E03           04280         MOVLW   0x03
000016 CFDB F000      04281         MOVFF   PLUSW2, r0x00
00001A ????           04282         BANKSEL _rf
                      04283 ;       .line   70; ../../../RF24_c/RF24_cg.c   if (rf.ce_pin != rf.csn_pin) digitalWrite(rf.ce_pin,leve
                            l);
gpasm-1.4.0 #1107 (May  9 2015) build/sdcc/pr   12-2-2016  22:31:28         PAGE 93


LOC    OBJECT CODE    LINE  SOURCE TEXT
  VALUE

00001C 51??           04284         MOVF    _rf, W, B
00001E ????           04285         BANKSEL (_rf + 1)
000020 19??           04286         XORWF   (_rf + 1), W, B
000022 E0??           04287         BZ      _00112_DS_
000024 50??           04288         MOVF    r0x00, W
Message[1301]: Using default destination of 0 (Access Bank).
000026 6EE5           04289         MOVWF   POSTDEC1
000028 ????           04290         BANKSEL _rf
00002A 51??           04291         MOVF    _rf, W, B
Message[1301]: Using default destination of 0 (Access Bank).
00002C 6EE5           04292         MOVWF   POSTDEC1
00002E EC?? F0??      04293         CALL    _digitalWrite
000032 52E6           04294         MOVF    POSTINC1, F
000034 52E6           04295         MOVF    POSTINC1, F
000036                04296 _00112_DS_:
000036 CFE4 F000      04297         MOVFF   PREINC1, r0x00
00003A CFE4 FFD9      04298         MOVFF   PREINC1, FSR2L
00003E CFE4 FFDA      04299         MOVFF   PREINC1, FSR2H
000042 0012           04300         RETURN  
                      04301 
                      04302 ; ; Starting pCode block
                      04303 S_RF24_cg__RF24_csn_d   code
000000                04304 _RF24_csn_d:
                      04305 ;       .line   22; ../../../RF24_c/RF24_cg.c   void RF24_csn_d( uint8_t mode)
000000 CFDA FFE5      04306         MOVFF   FSR2H, POSTDEC1
000004 CFD9 FFE5      04307         MOVFF   FSR2L, POSTDEC1
000008 CFE2 FFDA      04308         MOVFF   FSR1H, FSR2H
00000C CFE1 FFD9      04309         MOVFF   FSR1L, FSR2L
000010 C??? F???      04310         MOVFF   r0x00, POSTDEC1
000014 0E03           04311         MOVLW   0x03
000016 CFDB F000      04312         MOVFF   PLUSW2, r0x00
                      04313 ;       .line   59; ../../../RF24_c/RF24_cg.c   digitalWrite(rf.csn_pin,mode);
00001A 50??           04314         MOVF    r0x00, W
Message[1301]: Using default destination of 0 (Access Bank).
00001C 6EE5           04315         MOVWF   POSTDEC1
00001E ????           04316         BANKSEL (_rf + 1)
000020 51??           04317         MOVF    (_rf + 1), W, B
Message[1301]: Using default destination of 0 (Access Bank).
000022 6EE5           04318         MOVWF   POSTDEC1
000024 EC?? F0??      04319         CALL    _digitalWrite
000028 52E6           04320         MOVF    POSTINC1, F
00002A 52E6           04321         MOVF    POSTINC1, F
00002C ????           04322         BANKSEL (_rf + 17)
                      04323 ;       .line   60; ../../../RF24_c/RF24_cg.c   delayMicroseconds(rf.csDelay);
00002E 51??           04324         MOVF    (_rf + 17), W, B
Message[1301]: Using default destination of 0 (Access Bank).
000030 6E??           04325         MOVWF   r0x00
000032 50??           04326         MOVF    r0x00, W
Message[1301]: Using default destination of 0 (Access Bank).
000034 6EE5           04327         MOVWF   POSTDEC1
000036 EC?? F0??      04328         CALL    _delayMicroseconds
00003A 52E6           04329         MOVF    POSTINC1, F
00003C CFE4 F000      04330         MOVFF   PREINC1, r0x00
gpasm-1.4.0 #1107 (May  9 2015) build/sdcc/pr   12-2-2016  22:31:28         PAGE 94


LOC    OBJECT CODE    LINE  SOURCE TEXT
  VALUE

000040 CFE4 FFD9      04331         MOVFF   PREINC1, FSR2L
000044 CFE4 FFDA      04332         MOVFF   PREINC1, FSR2H
000048 0012           04333         RETURN  
                      04334 
                      04335 ; ; Starting pCode block for Ival
                      04336         code
000000                04337 _child_pipe_enable:
000000 0100 0302 0504 04338         DB      0x00, 0x01, 0x02, 0x03, 0x04, 0x05
                      04339 ; ; Starting pCode block for Ival
000006                04340 _child_pipe:
000006 0B0A 0D0C 0F0E 04341         DB      0x0a, 0x0b, 0x0c, 0x0d, 0x0e, 0x0f
                      04342 ; ; Starting pCode block for Ival
00000C                04343 _child_payload_size:
00000C 1211 1413 1615 04344         DB      0x11, 0x12, 0x13, 0x14, 0x15, 0x16
                      04345 
                      04346 
                      04347 ; Statistics:
                      04348 ; code size:     9032 (0x2348) bytes ( 6.89%)
                      04349 ;                4516 (0x11a4) words
                      04350 ; udata size:      32 (0x0020) bytes ( 0.83%)
                      04351 ; access size:     16 (0x0010) bytes
                      04352 
                      04353 
                      04354         end
gpasm-1.4.0 #1107 (May  9 2015) build/sdcc/pr   12-2-2016  22:31:28         PAGE 95


SYMBOL TABLE
  LABEL                             VALUE

FSR0H                             00000FEA
FSR0L                             00000FE9
FSR1H                             00000FE2
FSR1L                             00000FE1
FSR2H                             00000FDA
FSR2L                             00000FD9
INDF0                             00000FEF
PLUSW2                            00000FDB
POSTDEC1                          00000FE5
POSTINC1                          00000FE6
PREINC1                           00000FE4
PRODH                             00000FF4
PRODL                             00000FF3
STATUS                            00000FD8
TABLAT                            00000FF5
TBLPTRH                           00000FF7
TBLPTRL                           00000FF6
TBLPTRU                           00000FF8
WREG                              00000FE8
_00112_DS_                        00000036
_00133_DS_                        0000005A
_00135_DS_                        0000008C
_00146_DS_                        0000008A
_00156_DS_                        0000005C
_00158_DS_                        0000008A
_00170_DS_                        0000007E
_00180_DS_                        00000092
_00183_DS_                        000000C4
_00185_DS_                        000000DA
_00188_DS_                        00000066
_00189_DS_                        0000006A
_00190_DS_                        00000078
_00191_DS_                        0000007E
_00197_DS_                        000000C0
_00213_DS_                        000000B4
_00219_DS_                        0000005E
_00220_DS_                        00000082
_00223_DS_                        000000B8
_00225_DS_                        000000CE
_00228_DS_                        00000068
_00229_DS_                        0000006E
_00235_DS_                        000000B4
_00251_DS_                        000000B2
_00284_DS_                        00000024
_00301_DS_                        00000024
_00316_DS_                        00000034
_00318_DS_                        00000050
_00320_DS_                        000000AE
_00323_DS_                        00000136
_00324_DS_                        0000013A
_00325_DS_                        0000013E
_00350_DS_                        0000008E
_00351_DS_                        00000098
gpasm-1.4.0 #1107 (May  9 2015) build/sdcc/pr   12-2-2016  22:31:28         PAGE 96


SYMBOL TABLE
  LABEL                             VALUE 

_00354_DS_                        000000AC
_00369_DS_                        0000005A
_00377_DS_                        000000A8
_00378_DS_                        000000A2
_00390_DS_                        00000046
_00400_DS_                        00000066
_00404_DS_                        0000009A
_00405_DS_                        0000009C
_00431_DS_                        00000092
_00433_DS_                        000000E8
_00434_DS_                        0000010E
_00450_DS_                        000000E2
_00462_DS_                        00000046
_00464_DS_                        0000006E
_00465_DS_                        00000094
_00489_DS_                        00000088
_00491_DS_                        00000056
_00492_DS_                        0000005A
_00499_DS_                        0000004C
_00500_DS_                        00000050
_00512_DS_                        00000014
_00514_DS_                        00000050
_00515_DS_                        0000005C
_00533_DS_                        00000070
_00538_DS_                        00000082
_00540_DS_                        0000010E
_00541_DS_                        0000011A
_00560_DS_                        000000F8
_00571_DS_                        00000050
_00572_DS_                        00000052
_00588_DS_                        0000006C
_00590_DS_                        00000070
_00591_DS_                        00000072
_00615_DS_                        00000048
_00638_DS_                        000000F2
_00640_DS_                        00000154
_00641_DS_                        000001A4
_00644_DS_                        00000052
_00646_DS_                        0000022E
_00667_DS_                        0000021A
_00668_DS_                        00000214
_00675_DS_                        0000004A
_00681_DS_                        000000A6
_00683_DS_                        000000FC
_00684_DS_                        00000140
_00687_DS_                        000001CA
_00700_DS_                        000001B6
_00701_DS_                        000001B0
_00708_DS_                        00000066
_00709_DS_                        00000060
_00734_DS_                        0000007A
_00736_DS_                        000000A8
_00740_DS_                        00000058
gpasm-1.4.0 #1107 (May  9 2015) build/sdcc/pr   12-2-2016  22:31:28         PAGE 97


SYMBOL TABLE
  LABEL                             VALUE 

_00754_DS_                        0000009C
_00770_DS_                        00000030
_00772_DS_                        00000040
_00778_DS_                        00000056
_00779_DS_                        00000070
_00782_DS_                        00000080
_00791_DS_                        00000050
_00792_DS_                        0000004A
_00794_DS_                        00000068
_00795_DS_                        00000062
_00812_DS_                        00000024
_00813_DS_                        00000028
_00814_DS_                        0000002C
_00819_DS_                        0000001C
_00827_DS_                        0000003E
_00828_DS_                        00000048
_00848_DS_                        00000062
_00849_DS_                        0000007C
_00851_DS_                        000000A2
_00877_DS_                        00000040
_00880_DS_                        00000034
_00881_DS_                        00000042
_00900_DS_                        0000003C
_00904_DS_                        00000040
_00921_DS_                        0000004C
_00923_DS_                        00000042
_00924_DS_                        00000050
_ADCON0                           00000000
_ADCON0bits                       00000000
_ADCON1                           00000000
_ADCON1bits                       00000000
_ADCON2                           00000000
_ADCON2bits                       00000000
_ADRES                            00000000
_ADRESH                           00000000
_ADRESL                           00000000
_BAUDCON                          00000000
_BAUDCONbits                      00000000
_BAUDCTL                          00000000
_BAUDCTLbits                      00000000
_BSR                              00000000
_CCP1CON                          00000000
_CCP1CONbits                      00000000
_CCP2CON                          00000000
_CCP2CONbits                      00000000
_CCPR1                            00000000
_CCPR1H                           00000000
_CCPR1L                           00000000
_CCPR2                            00000000
_CCPR2H                           00000000
_CCPR2L                           00000000
_CMCON                            00000000
_CMCONbits                        00000000
gpasm-1.4.0 #1107 (May  9 2015) build/sdcc/pr   12-2-2016  22:31:28         PAGE 98


SYMBOL TABLE
  LABEL                             VALUE 

_CVRCON                           00000000
_CVRCONbits                       00000000
_DDRA                             00000000
_DDRAbits                         00000000
_DDRB                             00000000
_DDRBbits                         00000000
_DDRC                             00000000
_DDRCbits                         00000000
_DDRD                             00000000
_DDRDbits                         00000000
_DDRE                             00000000
_DDREbits                         00000000
_ECCP1AS                          00000000
_ECCP1ASbits                      00000000
_EEADR                            00000000
_EEADRH                           00000000
_EECON1                           00000000
_EECON1bits                       00000000
_EECON2                           00000000
_EEDATA                           00000000
_FSR0H                            00000000
_FSR0L                            00000000
_FSR1H                            00000000
_FSR1L                            00000000
_FSR2H                            00000000
_FSR2L                            00000000
_HLVDCON                          00000000
_HLVDCONbits                      00000000
_INDF0                            00000000
_INDF1                            00000000
_INDF2                            00000000
_INTCON                           00000000
_INTCON2                          00000000
_INTCON2bits                      00000000
_INTCON3                          00000000
_INTCON3bits                      00000000
_INTCONbits                       00000000
_IPR1                             00000000
_IPR1bits                         00000000
_IPR2                             00000000
_IPR2bits                         00000000
_LATA                             00000000
_LATAbits                         00000000
_LATB                             00000000
_LATBbits                         00000000
_LATC                             00000000
_LATCbits                         00000000
_LATD                             00000000
_LATDbits                         00000000
_LATE                             00000000
_LATEbits                         00000000
_LVDCON                           00000000
_LVDCONbits                       00000000
gpasm-1.4.0 #1107 (May  9 2015) build/sdcc/pr   12-2-2016  22:31:28         PAGE 99


SYMBOL TABLE
  LABEL                             VALUE 

_OSCCON                           00000000
_OSCCONbits                       00000000
_OSCTUNE                          00000000
_OSCTUNEbits                      00000000
_PC                               00000000
_PCL                              00000000
_PCLATH                           00000000
_PCLATU                           00000000
_PIE1                             00000000
_PIE1bits                         00000000
_PIE2                             00000000
_PIE2bits                         00000000
_PIR1                             00000000
_PIR1bits                         00000000
_PIR2                             00000000
_PIR2bits                         00000000
_PLUSW0                           00000000
_PLUSW1                           00000000
_PLUSW2                           00000000
_PORTA                            00000000
_PORTAbits                        00000000
_PORTB                            00000000
_PORTBbits                        00000000
_PORTC                            00000000
_PORTCbits                        00000000
_PORTD                            00000000
_PORTDbits                        00000000
_PORTE                            00000000
_PORTEbits                        00000000
_POSTDEC0                         00000000
_POSTDEC1                         00000000
_POSTDEC2                         00000000
_POSTINC0                         00000000
_POSTINC1                         00000000
_POSTINC2                         00000000
_PR2                              00000000
_PREINC0                          00000000
_PREINC1                          00000000
_PREINC2                          00000000
_PROD                             00000000
_PRODH                            00000000
_PRODL                            00000000
_PWM1CON                          00000000
_PWM1CONbits                      00000000
_RCON                             00000000
_RCONbits                         00000000
_RCREG                            00000000
_RCSTA                            00000000
_RCSTAbits                        00000000
_RF24_available                   00000000
_RF24_available_p                 00000000
_RF24_begin                       00000000
_RF24_beginTransaction            00000000
gpasm-1.4.0 #1107 (May  9 2015) build/sdcc/pr   12-2-2016  22:31:28         PAGE 100


SYMBOL TABLE
  LABEL                             VALUE 

_RF24_ce_d                        00000000
_RF24_closeReadingPipe            00000000
_RF24_csn_d                       00000000
_RF24_disableCRC                  00000000
_RF24_enableAckPayload            00000000
_RF24_enableDynamicAck            00000000
_RF24_enableDynamicPayloads       00000000
_RF24_endTransaction              00000000
_RF24_flush_rx                    00000000
_RF24_flush_tx                    00000000
_RF24_getCRCLength                00000000
_RF24_getChannel                  00000000
_RF24_getDataRate                 00000000
_RF24_getDynamicPayloadSize       00000000
_RF24_getPALevel                  00000000
_RF24_getPayloadSize              00000000
_RF24_get_status                  00000000
_RF24_init                        00000000
_RF24_isAckPayloadAvailable       00000000
_RF24_isPVariant                  00000000
_RF24_isValid                     00000000
_RF24_maskIRQ                     00000000
_RF24_openReadingPipe             00000000
_RF24_openReadingPipe_d           00000000
_RF24_openReadingPipe_d_address_1_254  00000000
_RF24_openWritingPipe             00000000
_RF24_openWritingPipe_d           00000000
_RF24_openWritingPipe_d_value_1_249  00000000
_RF24_powerDown                   00000000
_RF24_powerUp                     00000000
_RF24_reUseTX                     00000000
_RF24_read                        00000000
_RF24_read_payload                00000000
_RF24_read_register_d             00000000
_RF24_read_register_m_d           00000000
_RF24_rxFifoFull                  00000000
_RF24_setAddressWidth             00000000
_RF24_setAutoAck                  00000000
_RF24_setAutoAck_p                00000000
_RF24_setCRCLength                00000000
_RF24_setChannel                  00000000
_RF24_setDataRate                 00000000
_RF24_setPALevel                  00000000
_RF24_setPayloadSize              00000000
_RF24_setRetries                  00000000
_RF24_spiTrans                    00000000
_RF24_startFastWrite              00000000
_RF24_startListening              00000000
_RF24_startWrite                  00000000
_RF24_stopListening               00000000
_RF24_testCarrier                 00000000
_RF24_testRPD                     00000000
_RF24_toggle_features_d           00000000
gpasm-1.4.0 #1107 (May  9 2015) build/sdcc/pr   12-2-2016  22:31:28         PAGE 101


SYMBOL TABLE
  LABEL                             VALUE 

_RF24_txStandBy                   00000000
_RF24_txStandBy_t                 00000000
_RF24_whatHappened                00000000
_RF24_write                       00000000
_RF24_writeAckPayload             00000000
_RF24_writeBlocking               00000000
_RF24_writeFast                   00000000
_RF24_writeFast_m                 00000000
_RF24_write_m                     00000000
_RF24_write_payload               00000000
_RF24_write_register_c_d          00000000
_RF24_write_register_d            00000000
_SPBRG                            00000000
_SPBRGH                           00000000
_SPI_begin                        00000000
_SPI_transfer                     00000000
_SSPADD                           00000000
_SSPBUF                           00000000
_SSPCON1                          00000000
_SSPCON1bits                      00000000
_SSPCON2                          00000000
_SSPCON2bits                      00000000
_SSPSTAT                          00000000
_SSPSTATbits                      00000000
_STATUS                           00000000
_STATUSbits                       00000000
_STKPTR                           00000000
_STKPTRbits                       00000000
_T0CON                            00000000
_T0CONbits                        00000000
_T1CON                            00000000
_T1CONbits                        00000000
_T2CON                            00000000
_T2CONbits                        00000000
_T3CON                            00000000
_T3CONbits                        00000000
_TABLAT                           00000000
_TBLPTR                           00000000
_TBLPTRH                          00000000
_TBLPTRL                          00000000
_TBLPTRU                          00000000
_TMR0                             00000000
_TMR0H                            00000000
_TMR0L                            00000000
_TMR1                             00000000
_TMR1H                            00000000
_TMR1L                            00000000
_TMR2                             00000000
_TMR3                             00000000
_TMR3H                            00000000
_TMR3L                            00000000
_TOS                              00000000
_TOSH                             00000000
gpasm-1.4.0 #1107 (May  9 2015) build/sdcc/pr   12-2-2016  22:31:28         PAGE 102


SYMBOL TABLE
  LABEL                             VALUE 

_TOSL                             00000000
_TOSU                             00000000
_TRISA                            00000000
_TRISAbits                        00000000
_TRISB                            00000000
_TRISBbits                        00000000
_TRISC                            00000000
_TRISCbits                        00000000
_TRISD                            00000000
_TRISDbits                        00000000
_TRISE                            00000000
_TRISEbits                        00000000
_TXREG                            00000000
_TXSTA                            00000000
_TXSTAbits                        00000000
_WDTCON                           00000000
_WDTCONbits                       00000000
_WREG                             00000000
__18F4620                         00000001
__ACC_RAM_LOW_END                 0000007F
__CODE_END                        0000FFFF
__CODE_START                      00000000
__EEPROM_END                      00F003FF
__EEPROM_START                    00F00000
__VECTOR_INT_HIGH                 00000008
__VECTOR_INT_LOW                  00000018
__VECTOR_RESET                    00000000
__gptrget1                        00000000
__gptrput1                        00000000
_child_payload_size               0000000C
_child_pipe                       00000006
_child_pipe_enable                00000000
_delay                            00000000
_delayMicroseconds                00000000
_digitalWrite                     00000000
_memcpy                           00000000
_millis                           00000000
_mtime                            00000000
_pinMode                          00000000
_rf                               00000000
_stdin                            00000000
_stdout                           00000000
r0x00                             00000000
r0x01                             00000001
r0x02                             00000002
r0x03                             00000003
r0x04                             00000004
r0x05                             00000005
r0x06                             00000006
r0x07                             00000007
r0x08                             00000008
r0x09                             00000009
r0x0a                             0000000A
gpasm-1.4.0 #1107 (May  9 2015) build/sdcc/pr   12-2-2016  22:31:28         PAGE 103


SYMBOL TABLE
  LABEL                             VALUE 

r0x0b                             0000000B
r0x0c                             0000000C
r0x0d                             0000000D
r0x0e                             0000000E
r0x0f                             0000000F

Errors   :     0
Warnings :     0 reported,     0 suppressed
Messages :   509 reported,     0 suppressed

