gpasm-1.4.0 #1107 (May  9 2015) build/sdcc/pr   12-2-2016  22:31:29         PAGE  1


LOC    OBJECT CODE    LINE  SOURCE TEXT
  VALUE

                      00001 ;--------------------------------------------------------
                      00002 ; File Created by SDCC : free open source ANSI-C Compiler
                      00003 ; Version 3.6.0 #9615 (Linux)
                      00004 ;--------------------------------------------------------
                      00005 ; PIC16 port for the Microchip 16-bit core micros
                      00006 ;--------------------------------------------------------
                      00007         list    p=18f4620
                      00008         radix   dec
                      00009 
                      00010 
                      00011 ;--------------------------------------------------------
                      00012 ; public variables in this module
                      00013 ;--------------------------------------------------------
  0000                00014         global  _RF24NH_init
  0000                00015         global  _RF24N_init
  0000                00016         global  _RF24N_begin_d
  0000                00017         global  _RF24N_update
  0000                00018         global  _RF24N_enqueue
  0000                00019         global  _RF24N_available
  0000                00020         global  _RF24N_parent
  0000                00021         global  _RF24N_peek
  0000                00022         global  _RF24N_read
  0000                00023         global  _RF24N_multicast
  0000                00024         global  _RF24N_write_m
  0000                00025         global  _RF24N_write_
  0000                00026         global  _RF24N__write
  0000                00027         global  _RF24N_write
  0000                00028         global  _RF24N_logicalToPhysicalAddress
  0000                00029         global  _RF24N_write_to_pipe
  0000                00030         global  _RF24N_is_direct_child
  0000                00031         global  _RF24N_is_descendant
  0000                00032         global  _RF24N_setup_address
  0000                00033         global  _RF24N_addressOfPipe
  0000                00034         global  _RF24N_direct_child_route_to
  0000                00035         global  _RF24N_is_valid_address
  0000                00036         global  _RF24N_multicastLevel
  0000                00037         global  _RF24N_levelToAddress
  0000                00038         global  _RF24N_pipe_address
  0000                00039         global  _RF24N_begin
  0000                00040         global  _RF24N_getFrame_buffer
  0000                00041         global  _RF24N_setReturnSysMsgs
  0000                00042         global  _RF24N_getNetworkFlags
  0000                00043         global  _RF24N_setNetworkFlags
  0000                00044         global  _RF24N_getRouteTimeout
                      00045 
                      00046 ;--------------------------------------------------------
                      00047 ; extern variables in this module
                      00048 ;--------------------------------------------------------
  0000                00049         extern  __gptrput2
  0000                00050         extern  __gptrput1
  0000                00051         extern  __gptrget2
  0000                00052         extern  __gptrget1
  0000                00053         extern  _PORTAbits
gpasm-1.4.0 #1107 (May  9 2015) build/sdcc/pr   12-2-2016  22:31:29         PAGE  2


LOC    OBJECT CODE    LINE  SOURCE TEXT
  VALUE

  0000                00054         extern  _PORTBbits
  0000                00055         extern  _PORTCbits
  0000                00056         extern  _PORTDbits
  0000                00057         extern  _PORTEbits
  0000                00058         extern  _LATAbits
  0000                00059         extern  _LATBbits
  0000                00060         extern  _LATCbits
  0000                00061         extern  _LATDbits
  0000                00062         extern  _LATEbits
  0000                00063         extern  _DDRAbits
  0000                00064         extern  _TRISAbits
  0000                00065         extern  _DDRBbits
  0000                00066         extern  _TRISBbits
  0000                00067         extern  _DDRCbits
  0000                00068         extern  _TRISCbits
  0000                00069         extern  _DDRDbits
  0000                00070         extern  _TRISDbits
  0000                00071         extern  _DDREbits
  0000                00072         extern  _TRISEbits
  0000                00073         extern  _OSCTUNEbits
  0000                00074         extern  _PIE1bits
  0000                00075         extern  _PIR1bits
  0000                00076         extern  _IPR1bits
  0000                00077         extern  _PIE2bits
  0000                00078         extern  _PIR2bits
  0000                00079         extern  _IPR2bits
  0000                00080         extern  _EECON1bits
  0000                00081         extern  _RCSTAbits
  0000                00082         extern  _TXSTAbits
  0000                00083         extern  _T3CONbits
  0000                00084         extern  _CMCONbits
  0000                00085         extern  _CVRCONbits
  0000                00086         extern  _ECCP1ASbits
  0000                00087         extern  _PWM1CONbits
  0000                00088         extern  _BAUDCONbits
  0000                00089         extern  _BAUDCTLbits
  0000                00090         extern  _CCP2CONbits
  0000                00091         extern  _CCP1CONbits
  0000                00092         extern  _ADCON2bits
  0000                00093         extern  _ADCON1bits
  0000                00094         extern  _ADCON0bits
  0000                00095         extern  _SSPCON2bits
  0000                00096         extern  _SSPCON1bits
  0000                00097         extern  _SSPSTATbits
  0000                00098         extern  _T2CONbits
  0000                00099         extern  _T1CONbits
  0000                00100         extern  _RCONbits
  0000                00101         extern  _WDTCONbits
  0000                00102         extern  _HLVDCONbits
  0000                00103         extern  _LVDCONbits
  0000                00104         extern  _OSCCONbits
  0000                00105         extern  _T0CONbits
  0000                00106         extern  _STATUSbits
gpasm-1.4.0 #1107 (May  9 2015) build/sdcc/pr   12-2-2016  22:31:29         PAGE  3


LOC    OBJECT CODE    LINE  SOURCE TEXT
  VALUE

  0000                00107         extern  _INTCON3bits
  0000                00108         extern  _INTCON2bits
  0000                00109         extern  _INTCONbits
  0000                00110         extern  _STKPTRbits
  0000                00111         extern  _stdin
  0000                00112         extern  _stdout
  0000                00113         extern  _mtime
  0000                00114         extern  _PORTA
  0000                00115         extern  _PORTB
  0000                00116         extern  _PORTC
  0000                00117         extern  _PORTD
  0000                00118         extern  _PORTE
  0000                00119         extern  _LATA
  0000                00120         extern  _LATB
  0000                00121         extern  _LATC
  0000                00122         extern  _LATD
  0000                00123         extern  _LATE
  0000                00124         extern  _DDRA
  0000                00125         extern  _TRISA
  0000                00126         extern  _DDRB
  0000                00127         extern  _TRISB
  0000                00128         extern  _DDRC
  0000                00129         extern  _TRISC
  0000                00130         extern  _DDRD
  0000                00131         extern  _TRISD
  0000                00132         extern  _DDRE
  0000                00133         extern  _TRISE
  0000                00134         extern  _OSCTUNE
  0000                00135         extern  _PIE1
  0000                00136         extern  _PIR1
  0000                00137         extern  _IPR1
  0000                00138         extern  _PIE2
  0000                00139         extern  _PIR2
  0000                00140         extern  _IPR2
  0000                00141         extern  _EECON1
  0000                00142         extern  _EECON2
  0000                00143         extern  _EEDATA
  0000                00144         extern  _EEADR
  0000                00145         extern  _EEADRH
  0000                00146         extern  _RCSTA
  0000                00147         extern  _TXSTA
  0000                00148         extern  _TXREG
  0000                00149         extern  _RCREG
  0000                00150         extern  _SPBRG
  0000                00151         extern  _SPBRGH
  0000                00152         extern  _T3CON
  0000                00153         extern  _TMR3
  0000                00154         extern  _TMR3L
  0000                00155         extern  _TMR3H
  0000                00156         extern  _CMCON
  0000                00157         extern  _CVRCON
  0000                00158         extern  _ECCP1AS
  0000                00159         extern  _PWM1CON
gpasm-1.4.0 #1107 (May  9 2015) build/sdcc/pr   12-2-2016  22:31:29         PAGE  4


LOC    OBJECT CODE    LINE  SOURCE TEXT
  VALUE

  0000                00160         extern  _BAUDCON
  0000                00161         extern  _BAUDCTL
  0000                00162         extern  _CCP2CON
  0000                00163         extern  _CCPR2
  0000                00164         extern  _CCPR2L
  0000                00165         extern  _CCPR2H
  0000                00166         extern  _CCP1CON
  0000                00167         extern  _CCPR1
  0000                00168         extern  _CCPR1L
  0000                00169         extern  _CCPR1H
  0000                00170         extern  _ADCON2
  0000                00171         extern  _ADCON1
  0000                00172         extern  _ADCON0
  0000                00173         extern  _ADRES
  0000                00174         extern  _ADRESL
  0000                00175         extern  _ADRESH
  0000                00176         extern  _SSPCON2
  0000                00177         extern  _SSPCON1
  0000                00178         extern  _SSPSTAT
  0000                00179         extern  _SSPADD
  0000                00180         extern  _SSPBUF
  0000                00181         extern  _T2CON
  0000                00182         extern  _PR2
  0000                00183         extern  _TMR2
  0000                00184         extern  _T1CON
  0000                00185         extern  _TMR1
  0000                00186         extern  _TMR1L
  0000                00187         extern  _TMR1H
  0000                00188         extern  _RCON
  0000                00189         extern  _WDTCON
  0000                00190         extern  _HLVDCON
  0000                00191         extern  _LVDCON
  0000                00192         extern  _OSCCON
  0000                00193         extern  _T0CON
  0000                00194         extern  _TMR0
  0000                00195         extern  _TMR0L
  0000                00196         extern  _TMR0H
  0000                00197         extern  _STATUS
  0000                00198         extern  _FSR2L
  0000                00199         extern  _FSR2H
  0000                00200         extern  _PLUSW2
  0000                00201         extern  _PREINC2
  0000                00202         extern  _POSTDEC2
  0000                00203         extern  _POSTINC2
  0000                00204         extern  _INDF2
  0000                00205         extern  _BSR
  0000                00206         extern  _FSR1L
  0000                00207         extern  _FSR1H
  0000                00208         extern  _PLUSW1
  0000                00209         extern  _PREINC1
  0000                00210         extern  _POSTDEC1
  0000                00211         extern  _POSTINC1
  0000                00212         extern  _INDF1
gpasm-1.4.0 #1107 (May  9 2015) build/sdcc/pr   12-2-2016  22:31:29         PAGE  5


LOC    OBJECT CODE    LINE  SOURCE TEXT
  VALUE

  0000                00213         extern  _WREG
  0000                00214         extern  _FSR0L
  0000                00215         extern  _FSR0H
  0000                00216         extern  _PLUSW0
  0000                00217         extern  _PREINC0
  0000                00218         extern  _POSTDEC0
  0000                00219         extern  _POSTINC0
  0000                00220         extern  _INDF0
  0000                00221         extern  _INTCON3
  0000                00222         extern  _INTCON2
  0000                00223         extern  _INTCON
  0000                00224         extern  _PROD
  0000                00225         extern  _PRODL
  0000                00226         extern  _PRODH
  0000                00227         extern  _TABLAT
  0000                00228         extern  _TBLPTR
  0000                00229         extern  _TBLPTRL
  0000                00230         extern  _TBLPTRH
  0000                00231         extern  _TBLPTRU
  0000                00232         extern  _PC
  0000                00233         extern  _PCL
  0000                00234         extern  _PCLATH
  0000                00235         extern  _PCLATU
  0000                00236         extern  _STKPTR
  0000                00237         extern  _TOS
  0000                00238         extern  _TOSL
  0000                00239         extern  _TOSH
  0000                00240         extern  _TOSU
  0000                00241         extern  _memcpy
  0000                00242         extern  _memmove
  0000                00243         extern  _millis
  0000                00244         extern  _delay
  0000                00245         extern  _delayMicroseconds
  0000                00246         extern  _RF24_startListening
  0000                00247         extern  _RF24_stopListening
  0000                00248         extern  _RF24_read
  0000                00249         extern  _RF24_available_p
  0000                00250         extern  _RF24_writeFast_m
  0000                00251         extern  _RF24_txStandBy_t
  0000                00252         extern  _RF24_isValid
  0000                00253         extern  _RF24_setRetries
  0000                00254         extern  _RF24_setChannel
  0000                00255         extern  _RF24_getDynamicPayloadSize
  0000                00256         extern  _RF24_enableDynamicPayloads
  0000                00257         extern  _RF24_setAutoAck_p
  0000                00258         extern  _RF24_openReadingPipe_d
  0000                00259         extern  _RF24_openWritingPipe_d
  0000                00260         extern  __moduint
  0000                00261         extern  __mullong
  0000                00262         extern  __divuint
  0000                00263         extern  __mulint
                      00264 
                      00265 ;--------------------------------------------------------
gpasm-1.4.0 #1107 (May  9 2015) build/sdcc/pr   12-2-2016  22:31:29         PAGE  6


LOC    OBJECT CODE    LINE  SOURCE TEXT
  VALUE

                      00266 ;       Equates to used internal registers
                      00267 ;--------------------------------------------------------
  00000FD8            00268 STATUS  equ     0xfd8
  00000FE8            00269 WREG    equ     0xfe8
  00000FE9            00270 FSR0L   equ     0xfe9
  00000FEA            00271 FSR0H   equ     0xfea
  00000FE1            00272 FSR1L   equ     0xfe1
  00000FE2            00273 FSR1H   equ     0xfe2
  00000FD9            00274 FSR2L   equ     0xfd9
  00000FDA            00275 FSR2H   equ     0xfda
  00000FEF            00276 INDF0   equ     0xfef
  00000FE6            00277 POSTINC1        equ     0xfe6
  00000FE5            00278 POSTDEC1        equ     0xfe5
  00000FE4            00279 PREINC1 equ     0xfe4
  00000FDB            00280 PLUSW2  equ     0xfdb
  00000FF3            00281 PRODL   equ     0xff3
  00000FF4            00282 PRODH   equ     0xff4
                      00283 
                      00284 
                      00285         idata
000000 01 00          00286 _next_id        db      0x01, 0x00
000002 C3 3C 33 CE 3E 00287 _RF24N_pipe_address_address_translation_1_313   db      0xc3, 0x3c, 0x33, 0xce, 0x3e, 0xe3, 0xec
       E3 EC          
                      00288 
                      00289 
                      00290 ; Internal registers
                      00291 .registers      udata_ovr       0x0000
000000                00292 r0x00   res     1
000001                00293 r0x01   res     1
000002                00294 r0x02   res     1
000003                00295 r0x03   res     1
000004                00296 r0x04   res     1
000005                00297 r0x05   res     1
000006                00298 r0x06   res     1
000007                00299 r0x07   res     1
000008                00300 r0x08   res     1
000009                00301 r0x09   res     1
00000A                00302 r0x0a   res     1
00000B                00303 r0x0b   res     1
00000C                00304 r0x0c   res     1
00000D                00305 r0x0d   res     1
00000E                00306 r0x0e   res     1
00000F                00307 r0x0f   res     1
000010                00308 r0x10   res     1
000011                00309 r0x11   res     1
000012                00310 r0x12   res     1
000013                00311 r0x13   res     1
000014                00312 r0x14   res     1
000015                00313 r0x15   res     1
000016                00314 r0x16   res     1
000017                00315 r0x17   res     1
000018                00316 r0x18   res     1
000019                00317 r0x19   res     1
gpasm-1.4.0 #1107 (May  9 2015) build/sdcc/pr   12-2-2016  22:31:29         PAGE  7


LOC    OBJECT CODE    LINE  SOURCE TEXT
  VALUE

00001A                00318 r0x1a   res     1
                      00319 
                      00320 udata_RF24Network_cg_0  udata
000000                00321 _rn     res     373
                      00322 
                      00323 udata_RF24Network_cg_1  udata
000000                00324 _RF24N_begin_d_addr_2_183       res     5
                      00325 
                      00326 udata_RF24Network_cg_2  udata
000000                00327 _RF24N_update_pipe_num_1_184    res     1
                      00328 
                      00329 udata_RF24Network_cg_3  udata
000000                00330 _RF24N_enqueue_message_size_1_208       res     2
                      00331 
                      00332 udata_RF24Network_cg_4  udata
000000                00333 _RF24N_peek_msg_size_2_232      res     2
                      00334 
                      00335 udata_RF24Network_cg_5  udata
000000                00336 _RF24N_read_bufsize_1_234       res     2
                      00337 
                      00338 udata_RF24Network_cg_6  udata
000000                00339 _RF24N_write_conversion_1_268   res     4
                      00340 
                      00341 udata_RF24Network_cg_7  udata
000000                00342 _RF24N_write_to_pipe_out_pipe_1_283     res     5
                      00343 
                      00344 udata_RF24Network_cg_8  udata
000000                00345 _RF24N_multicastLevel_addr_1_307        res     5
                      00346 
                      00347 udata_RF24Network_cg_9  udata
000000                00348 _RF24N_pipe_address_result_1_313        res     5
                      00349 
                      00350 ;--------------------------------------------------------
                      00351 ; global & static initialisations
                      00352 ;--------------------------------------------------------
                      00353 ; I code from now on!
                      00354 ; ; Starting pCode block
                      00355 S_RF24Network_cg__RF24N_getRouteTimeout code
000000                00356 _RF24N_getRouteTimeout:
                      00357 ;       .line   1433; ../../../RF24Network_c/RF24Network_cg.c   uint16_t RF24N_getRouteTimeout(void){
000000 CFDA FFE5      00358         MOVFF   FSR2H, POSTDEC1
000004 CFD9 FFE5      00359         MOVFF   FSR2L, POSTDEC1
000008 CFE2 FFDA      00360         MOVFF   FSR1H, FSR2H
00000C CFE1 FFD9      00361         MOVFF   FSR1L, FSR2L
                      00362 ;       .line   1434; ../../../RF24Network_c/RF24Network_cg.c   return rn.routeTimeout; 
000010 C??? F???      00363         MOVFF   (_rn + 6), PRODL
000014 ????           00364         BANKSEL (_rn + 5)
000016 51??           00365         MOVF    (_rn + 5), W, B
000018 CFE4 FFD9      00366         MOVFF   PREINC1, FSR2L
00001C CFE4 FFDA      00367         MOVFF   PREINC1, FSR2H
000020 0012           00368         RETURN  
                      00369 
                      00370 ; ; Starting pCode block
gpasm-1.4.0 #1107 (May  9 2015) build/sdcc/pr   12-2-2016  22:31:29         PAGE  8


LOC    OBJECT CODE    LINE  SOURCE TEXT
  VALUE

                      00371 S_RF24Network_cg__RF24N_setNetworkFlags code
000000                00372 _RF24N_setNetworkFlags:
                      00373 ;       .line   1428; ../../../RF24Network_c/RF24Network_cg.c   void RF24N_setNetworkFlags(uint8_t nf){
000000 CFDA FFE5      00374         MOVFF   FSR2H, POSTDEC1
000004 CFD9 FFE5      00375         MOVFF   FSR2L, POSTDEC1
000008 CFE2 FFDA      00376         MOVFF   FSR1H, FSR2H
00000C CFE1 FFD9      00377         MOVFF   FSR1L, FSR2L
000010 C??? F???      00378         MOVFF   r0x00, POSTDEC1
000014 0E03           00379         MOVLW   0x03
000016 CFDB F000      00380         MOVFF   PLUSW2, r0x00
                      00381 ;       .line   1429; ../../../RF24Network_c/RF24Network_cg.c   rn.networkFlags=nf; 
00001A 50??           00382         MOVF    r0x00, W
00001C ????           00383         BANKSEL (_rn + 43)
00001E 6F??           00384         MOVWF   (_rn + 43), B
000020 CFE4 F000      00385         MOVFF   PREINC1, r0x00
000024 CFE4 FFD9      00386         MOVFF   PREINC1, FSR2L
000028 CFE4 FFDA      00387         MOVFF   PREINC1, FSR2H
00002C 0012           00388         RETURN  
                      00389 
                      00390 ; ; Starting pCode block
                      00391 S_RF24Network_cg__RF24N_getNetworkFlags code
000000                00392 _RF24N_getNetworkFlags:
                      00393 ;       .line   1424; ../../../RF24Network_c/RF24Network_cg.c   uint8_t RF24N_getNetworkFlags(void){
000000 CFDA FFE5      00394         MOVFF   FSR2H, POSTDEC1
000004 CFD9 FFE5      00395         MOVFF   FSR2L, POSTDEC1
000008 CFE2 FFDA      00396         MOVFF   FSR1H, FSR2H
00000C CFE1 FFD9      00397         MOVFF   FSR1L, FSR2L
000010 ????           00398         BANKSEL (_rn + 43)
                      00399 ;       .line   1425; ../../../RF24Network_c/RF24Network_cg.c   return rn.networkFlags; 
000012 51??           00400         MOVF    (_rn + 43), W, B
000014 CFE4 FFD9      00401         MOVFF   PREINC1, FSR2L
000018 CFE4 FFDA      00402         MOVFF   PREINC1, FSR2H
00001C 0012           00403         RETURN  
                      00404 
                      00405 ; ; Starting pCode block
                      00406 S_RF24Network_cg__RF24N_setReturnSysMsgs        code
000000                00407 _RF24N_setReturnSysMsgs:
                      00408 ;       .line   1419; ../../../RF24Network_c/RF24Network_cg.c   void    RF24N_setReturnSysMsgs(void){
000000 CFDA FFE5      00409         MOVFF   FSR2H, POSTDEC1
000004 CFD9 FFE5      00410         MOVFF   FSR2L, POSTDEC1
000008 CFE2 FFDA      00411         MOVFF   FSR1H, FSR2H
00000C CFE1 FFD9      00412         MOVFF   FSR1L, FSR2L
                      00413 ;       .line   1420; ../../../RF24Network_c/RF24Network_cg.c   rn.returnSysMsgs=1;
000010 0E01           00414         MOVLW   0x01
000012 ????           00415         BANKSEL (_rn + 42)
000014 6F??           00416         MOVWF   (_rn + 42), B
000016 CFE4 FFD9      00417         MOVFF   PREINC1, FSR2L
00001A CFE4 FFDA      00418         MOVFF   PREINC1, FSR2H
00001E 0012           00419         RETURN  
                      00420 
                      00421 ; ; Starting pCode block
                      00422 S_RF24Network_cg__RF24N_getFrame_buffer code
000000                00423 _RF24N_getFrame_buffer:
gpasm-1.4.0 #1107 (May  9 2015) build/sdcc/pr   12-2-2016  22:31:29         PAGE  9


LOC    OBJECT CODE    LINE  SOURCE TEXT
  VALUE

                      00424 ;       .line   1413; ../../../RF24Network_c/RF24Network_cg.c   uint8_t * RF24N_getFrame_buffer(void){
000000 CFDA FFE5      00425         MOVFF   FSR2H, POSTDEC1
000004 CFD9 FFE5      00426         MOVFF   FSR2L, POSTDEC1
000008 CFE2 FFDA      00427         MOVFF   FSR1H, FSR2H
00000C CFE1 FFD9      00428         MOVFF   FSR1L, FSR2L
000010 C??? F???      00429         MOVFF   r0x00, POSTDEC1
000014 C??? F???      00430         MOVFF   r0x01, POSTDEC1
000018 C??? F???      00431         MOVFF   r0x02, POSTDEC1
                      00432 ;       .line   1414; ../../../RF24Network_c/RF24Network_cg.c   return rn.frame_buffer;
00001C 0E??           00433         MOVLW   HIGH(_rn + 7)
Message[1301]: Using default destination of 0 (Access Bank).
00001E 6E??           00434         MOVWF   r0x01
000020 0E??           00435         MOVLW   LOW(_rn + 7)
Message[1301]: Using default destination of 0 (Access Bank).
000022 6E??           00436         MOVWF   r0x00
000024 0E80           00437         MOVLW   0x80
Message[1301]: Using default destination of 0 (Access Bank).
000026 6E??           00438         MOVWF   r0x02
000028 C??? F???      00439         MOVFF   r0x02, PRODH
00002C C??? F???      00440         MOVFF   r0x01, PRODL
000030 50??           00441         MOVF    r0x00, W
000032 CFE4 F000      00442         MOVFF   PREINC1, r0x02
000036 CFE4 F000      00443         MOVFF   PREINC1, r0x01
00003A CFE4 F000      00444         MOVFF   PREINC1, r0x00
00003E CFE4 FFD9      00445         MOVFF   PREINC1, FSR2L
000042 CFE4 FFDA      00446         MOVFF   PREINC1, FSR2H
000046 0012           00447         RETURN  
                      00448 
                      00449 ; ; Starting pCode block
                      00450 S_RF24Network_cg__RF24N_begin   code
000000                00451 _RF24N_begin:
                      00452 ;       .line   1407; ../../../RF24Network_c/RF24Network_cg.c   void RF24N_begin(uint16_t _node_address)
                            {
000000 CFDA FFE5      00453         MOVFF   FSR2H, POSTDEC1
000004 CFD9 FFE5      00454         MOVFF   FSR2L, POSTDEC1
000008 CFE2 FFDA      00455         MOVFF   FSR1H, FSR2H
00000C CFE1 FFD9      00456         MOVFF   FSR1L, FSR2L
000010 C??? F???      00457         MOVFF   r0x00, POSTDEC1
000014 C??? F???      00458         MOVFF   r0x01, POSTDEC1
000018 0E03           00459         MOVLW   0x03
00001A CFDB F000      00460         MOVFF   PLUSW2, r0x00
00001E 0E04           00461         MOVLW   0x04
000020 CFDB F000      00462         MOVFF   PLUSW2, r0x01
                      00463 ;       .line   1408; ../../../RF24Network_c/RF24Network_cg.c   RF24N_begin_d(USE_CURRENT_CHANNEL,_node_
                            address);
000024 50??           00464         MOVF    r0x01, W
Message[1301]: Using default destination of 0 (Access Bank).
000026 6EE5           00465         MOVWF   POSTDEC1
000028 50??           00466         MOVF    r0x00, W
Message[1301]: Using default destination of 0 (Access Bank).
00002A 6EE5           00467         MOVWF   POSTDEC1
00002C 0EFF           00468         MOVLW   0xff
Message[1301]: Using default destination of 0 (Access Bank).
gpasm-1.4.0 #1107 (May  9 2015) build/sdcc/pr   12-2-2016  22:31:29         PAGE 10


LOC    OBJECT CODE    LINE  SOURCE TEXT
  VALUE

00002E 6EE5           00469         MOVWF   POSTDEC1
000030 EC?? F0??      00470         CALL    _RF24N_begin_d
000034 0E03           00471         MOVLW   0x03
000036 26E1           00472         ADDWF   FSR1L, F
000038 B0D8           00473         BTFSC   STATUS, 0
00003A 2AE2           00474         INCF    FSR1H, F
00003C CFE4 F000      00475         MOVFF   PREINC1, r0x01
000040 CFE4 F000      00476         MOVFF   PREINC1, r0x00
000044 CFE4 FFD9      00477         MOVFF   PREINC1, FSR2L
000048 CFE4 FFDA      00478         MOVFF   PREINC1, FSR2H
00004C 0012           00479         RETURN  
                      00480 
                      00481 ; ; Starting pCode block
                      00482 S_RF24Network_cg__RF24N_pipe_address    code
000000                00483 _RF24N_pipe_address:
                      00484 ;       .line   1359; ../../../RF24Network_c/RF24Network_cg.c   void RF24N_pipe_address( uint16_t node, 
                            uint8_t pipe ,raddr_t * address)
000000 CFDA FFE5      00485         MOVFF   FSR2H, POSTDEC1
000004 CFD9 FFE5      00486         MOVFF   FSR2L, POSTDEC1
000008 CFE2 FFDA      00487         MOVFF   FSR1H, FSR2H
00000C CFE1 FFD9      00488         MOVFF   FSR1L, FSR2L
000010 C??? F???      00489         MOVFF   r0x00, POSTDEC1
000014 C??? F???      00490         MOVFF   r0x01, POSTDEC1
000018 C??? F???      00491         MOVFF   r0x02, POSTDEC1
00001C C??? F???      00492         MOVFF   r0x03, POSTDEC1
000020 C??? F???      00493         MOVFF   r0x04, POSTDEC1
000024 C??? F???      00494         MOVFF   r0x05, POSTDEC1
000028 C??? F???      00495         MOVFF   r0x06, POSTDEC1
00002C C??? F???      00496         MOVFF   r0x07, POSTDEC1
000030 C??? F???      00497         MOVFF   r0x08, POSTDEC1
000034 C??? F???      00498         MOVFF   r0x09, POSTDEC1
000038 C??? F???      00499         MOVFF   r0x0a, POSTDEC1
00003C C??? F???      00500         MOVFF   r0x0b, POSTDEC1
000040 C??? F???      00501         MOVFF   r0x0c, POSTDEC1
000044 C??? F???      00502         MOVFF   r0x0d, POSTDEC1
000048 C??? F???      00503         MOVFF   r0x0e, POSTDEC1
00004C C??? F???      00504         MOVFF   r0x0f, POSTDEC1
000050 C??? F???      00505         MOVFF   r0x10, POSTDEC1
000054 0E03           00506         MOVLW   0x03
000056 CFDB F000      00507         MOVFF   PLUSW2, r0x00
00005A 0E04           00508         MOVLW   0x04
00005C CFDB F000      00509         MOVFF   PLUSW2, r0x01
000060 0E05           00510         MOVLW   0x05
000062 CFDB F000      00511         MOVFF   PLUSW2, r0x02
000066 0E06           00512         MOVLW   0x06
000068 CFDB F000      00513         MOVFF   PLUSW2, r0x03
00006C 0E07           00514         MOVLW   0x07
00006E CFDB F000      00515         MOVFF   PLUSW2, r0x04
000072 0E08           00516         MOVLW   0x08
000074 CFDB F000      00517         MOVFF   PLUSW2, r0x05
                      00518 ;       .line   1363; ../../../RF24Network_c/RF24Network_cg.c   raddr_t result[5] = {0xCC,0xCC,0xCC,0xCC
                            ,0xCC};
000078 0ECC           00519         MOVLW   0xcc
gpasm-1.4.0 #1107 (May  9 2015) build/sdcc/pr   12-2-2016  22:31:29         PAGE 11


LOC    OBJECT CODE    LINE  SOURCE TEXT
  VALUE

00007A ????           00520         BANKSEL _RF24N_pipe_address_result_1_313
00007C 6F??           00521         MOVWF   _RF24N_pipe_address_result_1_313, B
00007E 0ECC           00522         MOVLW   0xcc
000080 ????           00523         BANKSEL (_RF24N_pipe_address_result_1_313 + 1)
000082 6F??           00524         MOVWF   (_RF24N_pipe_address_result_1_313 + 1), B
000084 0ECC           00525         MOVLW   0xcc
000086 ????           00526         BANKSEL (_RF24N_pipe_address_result_1_313 + 2)
000088 6F??           00527         MOVWF   (_RF24N_pipe_address_result_1_313 + 2), B
00008A 0ECC           00528         MOVLW   0xcc
00008C ????           00529         BANKSEL (_RF24N_pipe_address_result_1_313 + 3)
00008E 6F??           00530         MOVWF   (_RF24N_pipe_address_result_1_313 + 3), B
000090 0ECC           00531         MOVLW   0xcc
000092 ????           00532         BANKSEL (_RF24N_pipe_address_result_1_313 + 4)
000094 6F??           00533         MOVWF   (_RF24N_pipe_address_result_1_313 + 4), B
                      00534 ;       .line   1364; ../../../RF24Network_c/RF24Network_cg.c   uint8_t* out = (uint8_t*)(result);
000096 0E??           00535         MOVLW   HIGH(_RF24N_pipe_address_result_1_313)
Message[1301]: Using default destination of 0 (Access Bank).
000098 6E??           00536         MOVWF   r0x07
00009A 0E??           00537         MOVLW   LOW(_RF24N_pipe_address_result_1_313)
Message[1301]: Using default destination of 0 (Access Bank).
00009C 6E??           00538         MOVWF   r0x06
00009E 0E80           00539         MOVLW   0x80
Message[1301]: Using default destination of 0 (Access Bank).
0000A0 6E??           00540         MOVWF   r0x08
                      00541 ;       .line   1369; ../../../RF24Network_c/RF24Network_cg.c   uint8_t count = 1; uint16_t dec = node;
0000A2 C??? F???      00542         MOVFF   r0x00, r0x09
0000A6 C??? F???      00543         MOVFF   r0x01, r0x0a
                      00544 ;       .line   1371; ../../../RF24Network_c/RF24Network_cg.c   while(dec){
0000AA 0E01           00545         MOVLW   0x01
Message[1301]: Using default destination of 0 (Access Bank).
0000AC 6E??           00546         MOVWF   r0x0b
0000AE                00547 _00931_DS_:
0000AE 50??           00548         MOVF    r0x09, W
0000B0 10??           00549         IORWF   r0x0a, W
0000B2 E0??           00550         BZ      _00933_DS_
                      00551 ;       .line   1373; ../../../RF24Network_c/RF24Network_cg.c   if(pipe != 0 || !node)
0000B4 50??           00552         MOVF    r0x02, W
0000B6 E1??           00553         BNZ     _00928_DS_
0000B8 50??           00554         MOVF    r0x00, W
0000BA 10??           00555         IORWF   r0x01, W
0000BC E1??           00556         BNZ     _00929_DS_
0000BE                00557 _00928_DS_:
                      00558 ;       .line   1375; ../../../RF24Network_c/RF24Network_cg.c   out[count]=address_translation[(dec % 8)
                            ];              // Convert our decimal values to octal, translate them to address bytes, and set our add
                            ress
0000BE 50??           00559         MOVF    r0x0b, W
0000C0 24??           00560         ADDWF   r0x06, W
Message[1301]: Using default destination of 0 (Access Bank).
0000C2 6E??           00561         MOVWF   r0x0c
Message[1301]: Using default destination of 0 (Access Bank).
0000C4 6AE8           00562         CLRF    WREG
0000C6 20??           00563         ADDWFC  r0x07, W
Message[1301]: Using default destination of 0 (Access Bank).
gpasm-1.4.0 #1107 (May  9 2015) build/sdcc/pr   12-2-2016  22:31:29         PAGE 12


LOC    OBJECT CODE    LINE  SOURCE TEXT
  VALUE

0000C8 6E??           00564         MOVWF   r0x0d
Message[1301]: Using default destination of 0 (Access Bank).
0000CA 6AE8           00565         CLRF    WREG
0000CC 20??           00566         ADDWFC  r0x08, W
Message[1301]: Using default destination of 0 (Access Bank).
0000CE 6E??           00567         MOVWF   r0x0e
0000D0 0E07           00568         MOVLW   0x07
0000D2 14??           00569         ANDWF   r0x09, W
Message[1301]: Using default destination of 0 (Access Bank).
0000D4 6E??           00570         MOVWF   r0x0f
Message[1301]: Using default destination of 0 (Access Bank).
0000D6 6A??           00571         CLRF    r0x10
0000D8 0E??           00572         MOVLW   LOW(_RF24N_pipe_address_address_translation_1_313)
0000DA 26??           00573         ADDWF   r0x0f, F
0000DC 0E??           00574         MOVLW   HIGH(_RF24N_pipe_address_address_translation_1_313)
0000DE 22??           00575         ADDWFC  r0x10, F
0000E0 C??? F???      00576         MOVFF   r0x0f, FSR0L
0000E4 C??? F???      00577         MOVFF   r0x10, FSR0H
0000E8 CFEF F000      00578         MOVFF   INDF0, r0x0f
0000EC C??? F???      00579         MOVFF   r0x0f, POSTDEC1
0000F0 C??? F???      00580         MOVFF   r0x0c, FSR0L
0000F4 C??? F???      00581         MOVFF   r0x0d, PRODL
0000F8 50??           00582         MOVF    r0x0e, W
0000FA EC?? F0??      00583         CALL    __gptrput1
0000FE                00584 _00929_DS_:
                      00585 ;       .line   1377; ../../../RF24Network_c/RF24Network_cg.c   dec /= 8;       
0000FE 90D8           00586         BCF     STATUS, 0
000100 32??           00587         RRCF    r0x0a, F
000102 32??           00588         RRCF    r0x09, F
000104 90D8           00589         BCF     STATUS, 0
000106 32??           00590         RRCF    r0x0a, F
000108 32??           00591         RRCF    r0x09, F
00010A 90D8           00592         BCF     STATUS, 0
00010C 32??           00593         RRCF    r0x0a, F
00010E 32??           00594         RRCF    r0x09, F
                      00595 ;       .line   1378; ../../../RF24Network_c/RF24Network_cg.c   count++;
000110 2A??           00596         INCF    r0x0b, F
000112 D???           00597         BRA     _00931_DS_
000114                00598 _00933_DS_:
                      00599 ;       .line   1382; ../../../RF24Network_c/RF24Network_cg.c   if(pipe != 0 || !node)
000114 50??           00600         MOVF    r0x02, W
000116 E1??           00601         BNZ     _00934_DS_
000118 50??           00602         MOVF    r0x00, W
00011A 10??           00603         IORWF   r0x01, W
00011C E1??           00604         BNZ     _00935_DS_
00011E                00605 _00934_DS_:
                      00606 ;       .line   1384; ../../../RF24Network_c/RF24Network_cg.c   out[0] = address_translation[pipe];
Message[1301]: Using default destination of 0 (Access Bank).
00011E 6A??           00607         CLRF    r0x00
000120 0E??           00608         MOVLW   LOW(_RF24N_pipe_address_address_translation_1_313)
000122 26??           00609         ADDWF   r0x02, F
000124 0E??           00610         MOVLW   HIGH(_RF24N_pipe_address_address_translation_1_313)
000126 22??           00611         ADDWFC  r0x00, F
gpasm-1.4.0 #1107 (May  9 2015) build/sdcc/pr   12-2-2016  22:31:29         PAGE 13


LOC    OBJECT CODE    LINE  SOURCE TEXT
  VALUE

000128 C??? F???      00612         MOVFF   r0x02, FSR0L
00012C C??? F???      00613         MOVFF   r0x00, FSR0H
000130 CFEF F000      00614         MOVFF   INDF0, r0x02
000134 C??? F???      00615         MOVFF   r0x02, POSTDEC1
000138 C??? F???      00616         MOVFF   r0x06, FSR0L
00013C C??? F???      00617         MOVFF   r0x07, PRODL
000140 50??           00618         MOVF    r0x08, W
000142 EC?? F0??      00619         CALL    __gptrput1
000146 D???           00620         BRA     _00947_DS_
000148                00621 _00935_DS_:
                      00622 ;       .line   1387; ../../../RF24Network_c/RF24Network_cg.c   out[1] = address_translation[count-1];
000148 2A??           00623         INCF    r0x06, F
00014A E3??           00624         BNC     _00961_DS_
00014C 4A??           00625         INFSNZ  r0x07, F
00014E 2A??           00626         INCF    r0x08, F
000150                00627 _00961_DS_:
000150 06??           00628         DECF    r0x0b, F
Message[1301]: Using default destination of 0 (Access Bank).
000152 6A??           00629         CLRF    r0x00
000154 0E??           00630         MOVLW   LOW(_RF24N_pipe_address_address_translation_1_313)
000156 26??           00631         ADDWF   r0x0b, F
000158 0E??           00632         MOVLW   HIGH(_RF24N_pipe_address_address_translation_1_313)
00015A 22??           00633         ADDWFC  r0x00, F
00015C C??? F???      00634         MOVFF   r0x0b, FSR0L
000160 C??? F???      00635         MOVFF   r0x00, FSR0H
000164 CFEF F000      00636         MOVFF   INDF0, r0x0b
000168 C??? F???      00637         MOVFF   r0x0b, POSTDEC1
00016C C??? F???      00638         MOVFF   r0x06, FSR0L
000170 C??? F???      00639         MOVFF   r0x07, PRODL
000174 50??           00640         MOVF    r0x08, W
000176 EC?? F0??      00641         CALL    __gptrput1
00017A                00642 _00947_DS_:
                      00643 ;       .line   1399; ../../../RF24Network_c/RF24Network_cg.c   for(i=0;i<5;i++)
Message[1301]: Using default destination of 0 (Access Bank).
00017A 6A??           00644         CLRF    r0x00
00017C                00645 _00939_DS_:
                      00646 ;       .line   1401; ../../../RF24Network_c/RF24Network_cg.c   address[i]=result[4-i];
00017C 50??           00647         MOVF    r0x00, W
00017E 24??           00648         ADDWF   r0x03, W
Message[1301]: Using default destination of 0 (Access Bank).
000180 6E??           00649         MOVWF   r0x01
Message[1301]: Using default destination of 0 (Access Bank).
000182 6AE8           00650         CLRF    WREG
000184 20??           00651         ADDWFC  r0x04, W
Message[1301]: Using default destination of 0 (Access Bank).
000186 6E??           00652         MOVWF   r0x02
Message[1301]: Using default destination of 0 (Access Bank).
000188 6AE8           00653         CLRF    WREG
00018A 20??           00654         ADDWFC  r0x05, W
Message[1301]: Using default destination of 0 (Access Bank).
00018C 6E??           00655         MOVWF   r0x06
00018E 50??           00656         MOVF    r0x00, W
000190 0804           00657         SUBLW   0x04
gpasm-1.4.0 #1107 (May  9 2015) build/sdcc/pr   12-2-2016  22:31:29         PAGE 14


LOC    OBJECT CODE    LINE  SOURCE TEXT
  VALUE

Message[1301]: Using default destination of 0 (Access Bank).
000192 6E??           00658         MOVWF   r0x07
Message[1301]: Using default destination of 0 (Access Bank).
000194 6A??           00659         CLRF    r0x08
000196 0E??           00660         MOVLW   LOW(_RF24N_pipe_address_result_1_313)
000198 26??           00661         ADDWF   r0x07, F
00019A 0E??           00662         MOVLW   HIGH(_RF24N_pipe_address_result_1_313)
00019C 22??           00663         ADDWFC  r0x08, F
00019E C??? F???      00664         MOVFF   r0x07, FSR0L
0001A2 C??? F???      00665         MOVFF   r0x08, FSR0H
0001A6 CFEF F000      00666         MOVFF   INDF0, r0x07
0001AA C??? F???      00667         MOVFF   r0x07, POSTDEC1
0001AE C??? F???      00668         MOVFF   r0x01, FSR0L
0001B2 C??? F???      00669         MOVFF   r0x02, PRODL
0001B6 50??           00670         MOVF    r0x06, W
0001B8 EC?? F0??      00671         CALL    __gptrput1
                      00672 ;       .line   1399; ../../../RF24Network_c/RF24Network_cg.c   for(i=0;i<5;i++)
0001BC 2A??           00673         INCF    r0x00, F
0001BE 0E05           00674         MOVLW   0x05
0001C0 5C??           00675         SUBWF   r0x00, W
0001C2 E3??           00676         BNC     _00939_DS_
0001C4 CFE4 F000      00677         MOVFF   PREINC1, r0x10
0001C8 CFE4 F000      00678         MOVFF   PREINC1, r0x0f
0001CC CFE4 F000      00679         MOVFF   PREINC1, r0x0e
0001D0 CFE4 F000      00680         MOVFF   PREINC1, r0x0d
0001D4 CFE4 F000      00681         MOVFF   PREINC1, r0x0c
0001D8 CFE4 F000      00682         MOVFF   PREINC1, r0x0b
0001DC CFE4 F000      00683         MOVFF   PREINC1, r0x0a
0001E0 CFE4 F000      00684         MOVFF   PREINC1, r0x09
0001E4 CFE4 F000      00685         MOVFF   PREINC1, r0x08
0001E8 CFE4 F000      00686         MOVFF   PREINC1, r0x07
0001EC CFE4 F000      00687         MOVFF   PREINC1, r0x06
0001F0 CFE4 F000      00688         MOVFF   PREINC1, r0x05
0001F4 CFE4 F000      00689         MOVFF   PREINC1, r0x04
0001F8 CFE4 F000      00690         MOVFF   PREINC1, r0x03
0001FC CFE4 F000      00691         MOVFF   PREINC1, r0x02
000200 CFE4 F000      00692         MOVFF   PREINC1, r0x01
000204 CFE4 F000      00693         MOVFF   PREINC1, r0x00
000208 CFE4 FFD9      00694         MOVFF   PREINC1, FSR2L
00020C CFE4 FFDA      00695         MOVFF   PREINC1, FSR2H
000210 0012           00696         RETURN  
                      00697 
                      00698 ; ; Starting pCode block
                      00699 S_RF24Network_cg__RF24N_levelToAddress  code
000000                00700 _RF24N_levelToAddress:
                      00701 ;       .line   1346; ../../../RF24Network_c/RF24Network_cg.c   uint16_t RF24N_levelToAddress(uint8_t le
                            vel){
000000 CFDA FFE5      00702         MOVFF   FSR2H, POSTDEC1
000004 CFD9 FFE5      00703         MOVFF   FSR2L, POSTDEC1
000008 CFE2 FFDA      00704         MOVFF   FSR1H, FSR2H
00000C CFE1 FFD9      00705         MOVFF   FSR1L, FSR2L
000010 C??? F???      00706         MOVFF   r0x00, POSTDEC1
000014 C??? F???      00707         MOVFF   r0x01, POSTDEC1
gpasm-1.4.0 #1107 (May  9 2015) build/sdcc/pr   12-2-2016  22:31:29         PAGE 15


LOC    OBJECT CODE    LINE  SOURCE TEXT
  VALUE

000018 C??? F???      00708         MOVFF   r0x02, POSTDEC1
00001C C??? F???      00709         MOVFF   r0x03, POSTDEC1
000020 0E03           00710         MOVLW   0x03
000022 CFDB F000      00711         MOVFF   PLUSW2, r0x00
                      00712 ;       .line   1349; ../../../RF24Network_c/RF24Network_cg.c   if(level){
000026 50??           00713         MOVF    r0x00, W
000028 E0??           00714         BZ      _00913_DS_
                      00715 ;       .line   1350; ../../../RF24Network_c/RF24Network_cg.c   levelAddr = levelAddr << ((level-1) * 3)
                            ;
Message[1301]: Using default destination of 0 (Access Bank).
00002A 6A??           00716         CLRF    r0x01
00002C 0EFF           00717         MOVLW   0xff
00002E 26??           00718         ADDWF   r0x00, F
000030 22??           00719         ADDWFC  r0x01, F
000032 50??           00720         MOVF    r0x01, W
Message[1301]: Using default destination of 0 (Access Bank).
000034 6EE5           00721         MOVWF   POSTDEC1
000036 50??           00722         MOVF    r0x00, W
Message[1301]: Using default destination of 0 (Access Bank).
000038 6EE5           00723         MOVWF   POSTDEC1
00003A 0E00           00724         MOVLW   0x00
Message[1301]: Using default destination of 0 (Access Bank).
00003C 6EE5           00725         MOVWF   POSTDEC1
00003E 0E03           00726         MOVLW   0x03
Message[1301]: Using default destination of 0 (Access Bank).
000040 6EE5           00727         MOVWF   POSTDEC1
000042 EC?? F0??      00728         CALL    __mulint
Message[1301]: Using default destination of 0 (Access Bank).
000046 6E??           00729         MOVWF   r0x00
000048 CFF3 F000      00730         MOVFF   PRODL, r0x01
00004C 0E04           00731         MOVLW   0x04
00004E 26E1           00732         ADDWF   FSR1L, F
000050 B0D8           00733         BTFSC   STATUS, 0
000052 2AE2           00734         INCF    FSR1H, F
000054 0E01           00735         MOVLW   0x01
Message[1301]: Using default destination of 0 (Access Bank).
000056 6E??           00736         MOVWF   r0x02
000058 0E00           00737         MOVLW   0x00
Message[1301]: Using default destination of 0 (Access Bank).
00005A 6E??           00738         MOVWF   r0x03
00005C 50??           00739         MOVF    r0x00, W
00005E E0??           00740         BZ      _00914_DS_
000060 E6??           00741         BN      _00923_DS_
Message[1301]: Using default destination of 0 (Access Bank).
000062 6CE8           00742         NEGF    WREG
000064 90D8           00743         BCF     STATUS, 0
000066                00744 _00921_DS_:
000066 36??           00745         RLCF    r0x02, F
000068 36??           00746         RLCF    r0x03, F
00006A 0F01           00747         ADDLW   0x01
00006C E3??           00748         BNC     _00921_DS_
00006E D???           00749         BRA     _00914_DS_
000070                00750 _00923_DS_:
gpasm-1.4.0 #1107 (May  9 2015) build/sdcc/pr   12-2-2016  22:31:29         PAGE 16


LOC    OBJECT CODE    LINE  SOURCE TEXT
  VALUE

000070 90D8           00751         BCF     STATUS, 0
000072                00752 _00922_DS_:
000072 32??           00753         RRCF    r0x03, F
000074 32??           00754         RRCF    r0x02, F
000076 0F01           00755         ADDLW   0x01
000078 E3??           00756         BNC     _00922_DS_
00007A                00757 _00920_DS_:
00007A D???           00758         BRA     _00914_DS_
00007C                00759 _00913_DS_:
                      00760 ;       .line   1352; ../../../RF24Network_c/RF24Network_cg.c   return 0;               
Message[1301]: Using default destination of 0 (Access Bank).
00007C 6AF3           00761         CLRF    PRODL
Message[1301]: Using default destination of 0 (Access Bank).
00007E 6AE8           00762         CLRF    WREG
000080 D???           00763         BRA     _00915_DS_
000082                00764 _00914_DS_:
                      00765 ;       .line   1354; ../../../RF24Network_c/RF24Network_cg.c   return levelAddr;
000082 C??? F???      00766         MOVFF   r0x03, PRODL
000086 50??           00767         MOVF    r0x02, W
000088                00768 _00915_DS_:
000088 CFE4 F000      00769         MOVFF   PREINC1, r0x03
00008C CFE4 F000      00770         MOVFF   PREINC1, r0x02
000090 CFE4 F000      00771         MOVFF   PREINC1, r0x01
000094 CFE4 F000      00772         MOVFF   PREINC1, r0x00
000098 CFE4 FFD9      00773         MOVFF   PREINC1, FSR2L
00009C CFE4 FFDA      00774         MOVFF   PREINC1, FSR2H
0000A0 0012           00775         RETURN  
                      00776 
                      00777 ; ; Starting pCode block
                      00778 S_RF24Network_cg__RF24N_multicastLevel  code
000000                00779 _RF24N_multicastLevel:
                      00780 ;       .line   1337; ../../../RF24Network_c/RF24Network_cg.c   void RF24N_multicastLevel(uint8_t level)
                            {
000000 CFDA FFE5      00781         MOVFF   FSR2H, POSTDEC1
000004 CFD9 FFE5      00782         MOVFF   FSR2L, POSTDEC1
000008 CFE2 FFDA      00783         MOVFF   FSR1H, FSR2H
00000C CFE1 FFD9      00784         MOVFF   FSR1L, FSR2L
000010 C??? F???      00785         MOVFF   r0x00, POSTDEC1
000014 C??? F???      00786         MOVFF   r0x01, POSTDEC1
000018 C??? F???      00787         MOVFF   r0x02, POSTDEC1
00001C C??? F???      00788         MOVFF   r0x03, POSTDEC1
000020 C??? F???      00789         MOVFF   r0x04, POSTDEC1
000024 0E03           00790         MOVLW   0x03
000026 CFDB F000      00791         MOVFF   PLUSW2, r0x00
                      00792 ;       .line   1339; ../../../RF24Network_c/RF24Network_cg.c   rn.multicast_level = level;
00002A 50??           00793         MOVF    r0x00, W
00002C ????           00794         BANKSEL (_rn + 48)
00002E 6F??           00795         MOVWF   (_rn + 48), B
                      00796 ;       .line   1341; ../../../RF24Network_c/RF24Network_cg.c   RF24N_pipe_address(RF24N_levelToAddress(
                            level),0,addr);
000030 50??           00797         MOVF    r0x00, W
Message[1301]: Using default destination of 0 (Access Bank).
000032 6EE5           00798         MOVWF   POSTDEC1
gpasm-1.4.0 #1107 (May  9 2015) build/sdcc/pr   12-2-2016  22:31:29         PAGE 17


LOC    OBJECT CODE    LINE  SOURCE TEXT
  VALUE

000034 EC?? F0??      00799         CALL    _RF24N_levelToAddress
Message[1301]: Using default destination of 0 (Access Bank).
000038 6E??           00800         MOVWF   r0x00
00003A CFF3 F000      00801         MOVFF   PRODL, r0x01
00003E 52E6           00802         MOVF    POSTINC1, F
000040 0E??           00803         MOVLW   HIGH(_RF24N_multicastLevel_addr_1_307)
Message[1301]: Using default destination of 0 (Access Bank).
000042 6E??           00804         MOVWF   r0x03
000044 0E??           00805         MOVLW   LOW(_RF24N_multicastLevel_addr_1_307)
Message[1301]: Using default destination of 0 (Access Bank).
000046 6E??           00806         MOVWF   r0x02
000048 0E80           00807         MOVLW   0x80
Message[1301]: Using default destination of 0 (Access Bank).
00004A 6E??           00808         MOVWF   r0x04
00004C 50??           00809         MOVF    r0x04, W
Message[1301]: Using default destination of 0 (Access Bank).
00004E 6EE5           00810         MOVWF   POSTDEC1
000050 50??           00811         MOVF    r0x03, W
Message[1301]: Using default destination of 0 (Access Bank).
000052 6EE5           00812         MOVWF   POSTDEC1
000054 50??           00813         MOVF    r0x02, W
Message[1301]: Using default destination of 0 (Access Bank).
000056 6EE5           00814         MOVWF   POSTDEC1
000058 0E00           00815         MOVLW   0x00
Message[1301]: Using default destination of 0 (Access Bank).
00005A 6EE5           00816         MOVWF   POSTDEC1
00005C 50??           00817         MOVF    r0x01, W
Message[1301]: Using default destination of 0 (Access Bank).
00005E 6EE5           00818         MOVWF   POSTDEC1
000060 50??           00819         MOVF    r0x00, W
Message[1301]: Using default destination of 0 (Access Bank).
000062 6EE5           00820         MOVWF   POSTDEC1
000064 EC?? F0??      00821         CALL    _RF24N_pipe_address
000068 0E06           00822         MOVLW   0x06
00006A 26E1           00823         ADDWF   FSR1L, F
00006C B0D8           00824         BTFSC   STATUS, 0
00006E 2AE2           00825         INCF    FSR1H, F
                      00826 ;       .line   1342; ../../../RF24Network_c/RF24Network_cg.c   RF24_openReadingPipe_d(0,addr);
000070 0E??           00827         MOVLW   HIGH(_RF24N_multicastLevel_addr_1_307)
Message[1301]: Using default destination of 0 (Access Bank).
000072 6E??           00828         MOVWF   r0x01
000074 0E??           00829         MOVLW   LOW(_RF24N_multicastLevel_addr_1_307)
Message[1301]: Using default destination of 0 (Access Bank).
000076 6E??           00830         MOVWF   r0x00
000078 0E80           00831         MOVLW   0x80
Message[1301]: Using default destination of 0 (Access Bank).
00007A 6E??           00832         MOVWF   r0x02
00007C 50??           00833         MOVF    r0x02, W
Message[1301]: Using default destination of 0 (Access Bank).
00007E 6EE5           00834         MOVWF   POSTDEC1
000080 50??           00835         MOVF    r0x01, W
Message[1301]: Using default destination of 0 (Access Bank).
000082 6EE5           00836         MOVWF   POSTDEC1
gpasm-1.4.0 #1107 (May  9 2015) build/sdcc/pr   12-2-2016  22:31:29         PAGE 18


LOC    OBJECT CODE    LINE  SOURCE TEXT
  VALUE

000084 50??           00837         MOVF    r0x00, W
Message[1301]: Using default destination of 0 (Access Bank).
000086 6EE5           00838         MOVWF   POSTDEC1
000088 0E00           00839         MOVLW   0x00
Message[1301]: Using default destination of 0 (Access Bank).
00008A 6EE5           00840         MOVWF   POSTDEC1
00008C EC?? F0??      00841         CALL    _RF24_openReadingPipe_d
000090 0E04           00842         MOVLW   0x04
000092 26E1           00843         ADDWF   FSR1L, F
000094 B0D8           00844         BTFSC   STATUS, 0
000096 2AE2           00845         INCF    FSR1H, F
000098 CFE4 F000      00846         MOVFF   PREINC1, r0x04
00009C CFE4 F000      00847         MOVFF   PREINC1, r0x03
0000A0 CFE4 F000      00848         MOVFF   PREINC1, r0x02
0000A4 CFE4 F000      00849         MOVFF   PREINC1, r0x01
0000A8 CFE4 F000      00850         MOVFF   PREINC1, r0x00
0000AC CFE4 FFD9      00851         MOVFF   PREINC1, FSR2L
0000B0 CFE4 FFDA      00852         MOVFF   PREINC1, FSR2H
0000B4 0012           00853         RETURN  
                      00854 
                      00855 ; ; Starting pCode block
                      00856 S_RF24Network_cg__RF24N_is_valid_address        code
000000                00857 _RF24N_is_valid_address:
                      00858 ;       .line   1312; ../../../RF24Network_c/RF24Network_cg.c   uint8_t RF24N_is_valid_address( uint16_t
                             node )
000000 CFDA FFE5      00859         MOVFF   FSR2H, POSTDEC1
000004 CFD9 FFE5      00860         MOVFF   FSR2L, POSTDEC1
000008 CFE2 FFDA      00861         MOVFF   FSR1H, FSR2H
00000C CFE1 FFD9      00862         MOVFF   FSR1L, FSR2L
000010 C??? F???      00863         MOVFF   r0x00, POSTDEC1
000014 C??? F???      00864         MOVFF   r0x01, POSTDEC1
000018 C??? F???      00865         MOVFF   r0x02, POSTDEC1
00001C C??? F???      00866         MOVFF   r0x03, POSTDEC1
000020 C??? F???      00867         MOVFF   r0x04, POSTDEC1
000024 0E03           00868         MOVLW   0x03
000026 CFDB F000      00869         MOVFF   PLUSW2, r0x00
00002A 0E04           00870         MOVLW   0x04
00002C CFDB F000      00871         MOVFF   PLUSW2, r0x01
                      00872 ;       .line   1314; ../../../RF24Network_c/RF24Network_cg.c   uint8_t result = 1;
000030 0E01           00873         MOVLW   0x01
Message[1301]: Using default destination of 0 (Access Bank).
000032 6E??           00874         MOVWF   r0x02
000034                00875 _00887_DS_:
                      00876 ;       .line   1316; ../../../RF24Network_c/RF24Network_cg.c   while(node)
000034 50??           00877         MOVF    r0x00, W
000036 10??           00878         IORWF   r0x01, W
000038 E0??           00879         BZ      _00889_DS_
                      00880 ;       .line   1318; ../../../RF24Network_c/RF24Network_cg.c   uint8_t digit = node & 0x07;
00003A 0E07           00881         MOVLW   0x07
00003C 14??           00882         ANDWF   r0x00, W
Message[1301]: Using default destination of 0 (Access Bank).
00003E 6E??           00883         MOVWF   r0x03
Message[1301]: Using default destination of 0 (Access Bank).
gpasm-1.4.0 #1107 (May  9 2015) build/sdcc/pr   12-2-2016  22:31:29         PAGE 19


LOC    OBJECT CODE    LINE  SOURCE TEXT
  VALUE

000040 6A??           00884         CLRF    r0x04
                      00885 ;       .line   1322; ../../../RF24Network_c/RF24Network_cg.c   if (/*(digit < 0) ||*/ (digit > 5))     
                            //Allow our out of range multicast address
000042 0E06           00886         MOVLW   0x06
000044 5C??           00887         SUBWF   r0x03, W
000046 E3??           00888         BNC     _00886_DS_
                      00889 ;       .line   1325; ../../../RF24Network_c/RF24Network_cg.c   result = 0;
Message[1301]: Using default destination of 0 (Access Bank).
000048 6A??           00890         CLRF    r0x02
                      00891 ;       .line   1327; ../../../RF24Network_c/RF24Network_cg.c   break;
00004A D???           00892         BRA     _00889_DS_
00004C                00893 _00886_DS_:
                      00894 ;       .line   1329; ../../../RF24Network_c/RF24Network_cg.c   node >>= 3;
00004C 90D8           00895         BCF     STATUS, 0
00004E 32??           00896         RRCF    r0x01, F
000050 32??           00897         RRCF    r0x00, F
000052 90D8           00898         BCF     STATUS, 0
000054 32??           00899         RRCF    r0x01, F
000056 32??           00900         RRCF    r0x00, F
000058 90D8           00901         BCF     STATUS, 0
00005A 32??           00902         RRCF    r0x01, F
00005C 32??           00903         RRCF    r0x00, F
00005E D???           00904         BRA     _00887_DS_
000060                00905 _00889_DS_:
                      00906 ;       .line   1332; ../../../RF24Network_c/RF24Network_cg.c   return result;
000060 50??           00907         MOVF    r0x02, W
000062 CFE4 F000      00908         MOVFF   PREINC1, r0x04
000066 CFE4 F000      00909         MOVFF   PREINC1, r0x03
00006A CFE4 F000      00910         MOVFF   PREINC1, r0x02
00006E CFE4 F000      00911         MOVFF   PREINC1, r0x01
000072 CFE4 F000      00912         MOVFF   PREINC1, r0x00
000076 CFE4 FFD9      00913         MOVFF   PREINC1, FSR2L
00007A CFE4 FFDA      00914         MOVFF   PREINC1, FSR2H
00007E 0012           00915         RETURN  
                      00916 
                      00917 ; ; Starting pCode block
                      00918 S_RF24Network_cg__RF24N_direct_child_route_to   code
000000                00919 _RF24N_direct_child_route_to:
                      00920 ;       .line   1286; ../../../RF24Network_c/RF24Network_cg.c   uint16_t RF24N_direct_child_route_to( ui
                            nt16_t node )
000000 CFDA FFE5      00921         MOVFF   FSR2H, POSTDEC1
000004 CFD9 FFE5      00922         MOVFF   FSR2L, POSTDEC1
000008 CFE2 FFDA      00923         MOVFF   FSR1H, FSR2H
00000C CFE1 FFD9      00924         MOVFF   FSR1L, FSR2L
000010 C??? F???      00925         MOVFF   r0x00, POSTDEC1
000014 C??? F???      00926         MOVFF   r0x01, POSTDEC1
000018 C??? F???      00927         MOVFF   r0x02, POSTDEC1
00001C C??? F???      00928         MOVFF   r0x03, POSTDEC1
000020 0E03           00929         MOVLW   0x03
000022 CFDB F000      00930         MOVFF   PLUSW2, r0x00
000026 0E04           00931         MOVLW   0x04
000028 CFDB F000      00932         MOVFF   PLUSW2, r0x01
00002C ????           00933         BANKSEL (_rn + 57)
gpasm-1.4.0 #1107 (May  9 2015) build/sdcc/pr   12-2-2016  22:31:29         PAGE 20


LOC    OBJECT CODE    LINE  SOURCE TEXT
  VALUE

                      00934 ;       .line   1289; ../../../RF24Network_c/RF24Network_cg.c   uint16_t child_mask = ( rn.node_mask << 
                            3 ) | 0x07;
00002E 51??           00935         MOVF    (_rn + 57), W, B
Message[1301]: Using default destination of 0 (Access Bank).
000030 6E??           00936         MOVWF   r0x02
000032 26??           00937         ADDWF   r0x02, F
000034 ????           00938         BANKSEL (_rn + 58)
000036 35??           00939         RLCF    (_rn + 58), W, B
Message[1301]: Using default destination of 0 (Access Bank).
000038 6E??           00940         MOVWF   r0x03
00003A 90D8           00941         BCF     STATUS, 0
00003C 36??           00942         RLCF    r0x02, F
00003E 36??           00943         RLCF    r0x03, F
000040 90D8           00944         BCF     STATUS, 0
000042 36??           00945         RLCF    r0x02, F
000044 36??           00946         RLCF    r0x03, F
000046 0E07           00947         MOVLW   0x07
000048 12??           00948         IORWF   r0x02, F
                      00949 ;       .line   1290; ../../../RF24Network_c/RF24Network_cg.c   return node & child_mask;
00004A 50??           00950         MOVF    r0x02, W
00004C 16??           00951         ANDWF   r0x00, F
00004E 50??           00952         MOVF    r0x03, W
000050 16??           00953         ANDWF   r0x01, F
000052 C??? F???      00954         MOVFF   r0x01, PRODL
000056 50??           00955         MOVF    r0x00, W
000058 CFE4 F000      00956         MOVFF   PREINC1, r0x03
00005C CFE4 F000      00957         MOVFF   PREINC1, r0x02
000060 CFE4 F000      00958         MOVFF   PREINC1, r0x01
000064 CFE4 F000      00959         MOVFF   PREINC1, r0x00
000068 CFE4 FFD9      00960         MOVFF   PREINC1, FSR2L
00006C CFE4 FFDA      00961         MOVFF   PREINC1, FSR2H
000070 0012           00962         RETURN  
                      00963 
                      00964 ; ; Starting pCode block
                      00965 S_RF24Network_cg__RF24N_addressOfPipe   code
000000                00966 _RF24N_addressOfPipe:
                      00967 ;       .line   1269; ../../../RF24Network_c/RF24Network_cg.c   uint16_t RF24N_addressOfPipe( uint16_t n
                            ode, uint8_t pipeNo )
000000 CFDA FFE5      00968         MOVFF   FSR2H, POSTDEC1
000004 CFD9 FFE5      00969         MOVFF   FSR2L, POSTDEC1
000008 CFE2 FFDA      00970         MOVFF   FSR1H, FSR2H
00000C CFE1 FFD9      00971         MOVFF   FSR1L, FSR2L
000010 C??? F???      00972         MOVFF   r0x00, POSTDEC1
000014 C??? F???      00973         MOVFF   r0x01, POSTDEC1
000018 C??? F???      00974         MOVFF   r0x02, POSTDEC1
00001C C??? F???      00975         MOVFF   r0x03, POSTDEC1
000020 C??? F???      00976         MOVFF   r0x04, POSTDEC1
000024 C??? F???      00977         MOVFF   r0x05, POSTDEC1
000028 C??? F???      00978         MOVFF   r0x06, POSTDEC1
00002C C??? F???      00979         MOVFF   r0x07, POSTDEC1
000030 0E03           00980         MOVLW   0x03
000032 CFDB F000      00981         MOVFF   PLUSW2, r0x00
000036 0E04           00982         MOVLW   0x04
gpasm-1.4.0 #1107 (May  9 2015) build/sdcc/pr   12-2-2016  22:31:29         PAGE 21


LOC    OBJECT CODE    LINE  SOURCE TEXT
  VALUE

000038 CFDB F000      00983         MOVFF   PLUSW2, r0x01
00003C 0E05           00984         MOVLW   0x05
00003E CFDB F000      00985         MOVFF   PLUSW2, r0x02
                      00986 ;       .line   1274; ../../../RF24Network_c/RF24Network_cg.c   uint16_t m = rn.node_mask >> 3;
000042 90D8           00987         BCF     STATUS, 0
000044 ????           00988         BANKSEL (_rn + 58)
000046 31??           00989         RRCF    (_rn + 58), W, B
Message[1301]: Using default destination of 0 (Access Bank).
000048 6E??           00990         MOVWF   r0x04
00004A ????           00991         BANKSEL (_rn + 57)
00004C 31??           00992         RRCF    (_rn + 57), W, B
Message[1301]: Using default destination of 0 (Access Bank).
00004E 6E??           00993         MOVWF   r0x03
000050 90D8           00994         BCF     STATUS, 0
000052 32??           00995         RRCF    r0x04, F
000054 32??           00996         RRCF    r0x03, F
000056 90D8           00997         BCF     STATUS, 0
000058 32??           00998         RRCF    r0x04, F
00005A 32??           00999         RRCF    r0x03, F
                      01000 ;       .line   1277; ../../../RF24Network_c/RF24Network_cg.c   while (m){         //While there are bit
                            s left in the node mask
Message[1301]: Using default destination of 0 (Access Bank).
00005C 6A??           01001         CLRF    r0x05
00005E                01002 _00862_DS_:
00005E 50??           01003         MOVF    r0x03, W
000060 10??           01004         IORWF   r0x04, W
000062 E0??           01005         BZ      _00864_DS_
                      01006 ;       .line   1278; ../../../RF24Network_c/RF24Network_cg.c   m>>=1;     //Shift to the right
000064 90D8           01007         BCF     STATUS, 0
000066 32??           01008         RRCF    r0x04, F
000068 32??           01009         RRCF    r0x03, F
                      01010 ;       .line   1279; ../../../RF24Network_c/RF24Network_cg.c   i++;       //Count the # of increments
00006A 2A??           01011         INCF    r0x05, F
00006C D???           01012         BRA     _00862_DS_
00006E                01013 _00864_DS_:
                      01014 ;       .line   1281; ../../../RF24Network_c/RF24Network_cg.c   return node | (pipeNo << i);    
Message[1301]: Using default destination of 0 (Access Bank).
00006E 6A??           01015         CLRF    r0x03
000070 C??? F???      01016         MOVFF   r0x02, r0x04
000074 C??? F???      01017         MOVFF   r0x03, r0x06
000078 50??           01018         MOVF    r0x05, W
00007A E0??           01019         BZ      _00874_DS_
Message[1301]: Using default destination of 0 (Access Bank).
00007C 6CE8           01020         NEGF    WREG
00007E 90D8           01021         BCF     STATUS, 0
000080                01022 _00875_DS_:
000080 36??           01023         RLCF    r0x04, F
000082 36??           01024         RLCF    r0x06, F
000084 0F01           01025         ADDLW   0x01
000086 E3??           01026         BNC     _00875_DS_
000088                01027 _00874_DS_:
000088 50??           01028         MOVF    r0x04, W
Message[1301]: Using default destination of 0 (Access Bank).
gpasm-1.4.0 #1107 (May  9 2015) build/sdcc/pr   12-2-2016  22:31:29         PAGE 22


LOC    OBJECT CODE    LINE  SOURCE TEXT
  VALUE

00008A 6E??           01029         MOVWF   r0x05
00008C 50??           01030         MOVF    r0x06, W
Message[1301]: Using default destination of 0 (Access Bank).
00008E 6E??           01031         MOVWF   r0x07
000090 50??           01032         MOVF    r0x05, W
000092 12??           01033         IORWF   r0x00, F
000094 50??           01034         MOVF    r0x07, W
000096 12??           01035         IORWF   r0x01, F
000098 C??? F???      01036         MOVFF   r0x01, PRODL
00009C 50??           01037         MOVF    r0x00, W
00009E CFE4 F000      01038         MOVFF   PREINC1, r0x07
0000A2 CFE4 F000      01039         MOVFF   PREINC1, r0x06
0000A6 CFE4 F000      01040         MOVFF   PREINC1, r0x05
0000AA CFE4 F000      01041         MOVFF   PREINC1, r0x04
0000AE CFE4 F000      01042         MOVFF   PREINC1, r0x03
0000B2 CFE4 F000      01043         MOVFF   PREINC1, r0x02
0000B6 CFE4 F000      01044         MOVFF   PREINC1, r0x01
0000BA CFE4 F000      01045         MOVFF   PREINC1, r0x00
0000BE CFE4 FFD9      01046         MOVFF   PREINC1, FSR2L
0000C2 CFE4 FFDA      01047         MOVFF   PREINC1, FSR2H
0000C6 0012           01048         RETURN  
                      01049 
                      01050 ; ; Starting pCode block
                      01051 S_RF24Network_cg__RF24N_setup_address   code
000000                01052 _RF24N_setup_address:
                      01053 ;       .line   1225; ../../../RF24Network_c/RF24Network_cg.c   void RF24N_setup_address(void)
000000 CFDA FFE5      01054         MOVFF   FSR2H, POSTDEC1
000004 CFD9 FFE5      01055         MOVFF   FSR2L, POSTDEC1
000008 CFE2 FFDA      01056         MOVFF   FSR1H, FSR2H
00000C CFE1 FFD9      01057         MOVFF   FSR1L, FSR2L
000010 C??? F???      01058         MOVFF   r0x00, POSTDEC1
000014 C??? F???      01059         MOVFF   r0x01, POSTDEC1
000018 C??? F???      01060         MOVFF   r0x02, POSTDEC1
00001C C??? F???      01061         MOVFF   r0x03, POSTDEC1
000020 C??? F???      01062         MOVFF   r0x04, POSTDEC1
                      01063 ;       .line   1228; ../../../RF24Network_c/RF24Network_cg.c   uint16_t node_mask_check = 0xFFFF;  
000024 0EFF           01064         MOVLW   0xff
Message[1301]: Using default destination of 0 (Access Bank).
000026 6E??           01065         MOVWF   r0x00
Message[1301]: Using default destination of 0 (Access Bank).
000028 6E??           01066         MOVWF   r0x01
                      01067 ;       .line   1236; ../../../RF24Network_c/RF24Network_cg.c   while ( rn.node_address & node_mask_chec
                            k ){
Message[1301]: Using default destination of 0 (Access Bank).
00002A 6A??           01068         CLRF    r0x02
00002C                01069 _00851_DS_:
00002C 50??           01070         MOVF    r0x00, W
00002E ????           01071         BANKSEL (_rn + 49)
000030 15??           01072         ANDWF   (_rn + 49), W, B
Message[1301]: Using default destination of 0 (Access Bank).
000032 6E??           01073         MOVWF   r0x03
000034 50??           01074         MOVF    r0x01, W
000036 ????           01075         BANKSEL (_rn + 50)
gpasm-1.4.0 #1107 (May  9 2015) build/sdcc/pr   12-2-2016  22:31:29         PAGE 23


LOC    OBJECT CODE    LINE  SOURCE TEXT
  VALUE

000038 15??           01076         ANDWF   (_rn + 50), W, B
Message[1301]: Using default destination of 0 (Access Bank).
00003A 6E??           01077         MOVWF   r0x04
00003C 50??           01078         MOVF    r0x03, W
00003E 10??           01079         IORWF   r0x04, W
000040 E0??           01080         BZ      _00853_DS_
                      01081 ;       .line   1237; ../../../RF24Network_c/RF24Network_cg.c   node_mask_check <<= 3;
000042 50??           01082         MOVF    r0x00, W
000044 26??           01083         ADDWF   r0x00, F
000046 36??           01084         RLCF    r0x01, F
000048 90D8           01085         BCF     STATUS, 0
00004A 36??           01086         RLCF    r0x00, F
00004C 36??           01087         RLCF    r0x01, F
00004E 90D8           01088         BCF     STATUS, 0
000050 36??           01089         RLCF    r0x00, F
000052 36??           01090         RLCF    r0x01, F
                      01091 ;       .line   1239; ../../../RF24Network_c/RF24Network_cg.c   count++;
000054 2A??           01092         INCF    r0x02, F
000056 D???           01093         BRA     _00851_DS_
000058                01094 _00853_DS_:
                      01095 ;       .line   1241; ../../../RF24Network_c/RF24Network_cg.c   rn.multicast_level = count;
000058 50??           01096         MOVF    r0x02, W
00005A ????           01097         BANKSEL (_rn + 48)
00005C 6F??           01098         MOVWF   (_rn + 48), B
                      01099 ;       .line   1246; ../../../RF24Network_c/RF24Network_cg.c   rn.node_mask = ~ node_mask_check;
00005E 1E??           01100         COMF    r0x00, F
000060 1E??           01101         COMF    r0x01, F
000062 50??           01102         MOVF    r0x00, W
000064 ????           01103         BANKSEL (_rn + 57)
000066 6F??           01104         MOVWF   (_rn + 57), B
000068 50??           01105         MOVF    r0x01, W
00006A ????           01106         BANKSEL (_rn + 58)
00006C 6F??           01107         MOVWF   (_rn + 58), B
                      01108 ;       .line   1249; ../../../RF24Network_c/RF24Network_cg.c   parent_mask = rn.node_mask >> 3;
00006E 90D8           01109         BCF     STATUS, 0
000070 32??           01110         RRCF    r0x01, F
000072 32??           01111         RRCF    r0x00, F
000074 90D8           01112         BCF     STATUS, 0
000076 32??           01113         RRCF    r0x01, F
000078 32??           01114         RRCF    r0x00, F
00007A 90D8           01115         BCF     STATUS, 0
00007C 32??           01116         RRCF    r0x01, F
00007E 32??           01117         RRCF    r0x00, F
                      01118 ;       .line   1252; ../../../RF24Network_c/RF24Network_cg.c   rn.parent_node = rn.node_address & paren
                            t_mask;
000080 50??           01119         MOVF    r0x00, W
000082 ????           01120         BANKSEL (_rn + 49)
000084 15??           01121         ANDWF   (_rn + 49), W, B
Message[1301]: Using default destination of 0 (Access Bank).
000086 6E??           01122         MOVWF   r0x02
000088 50??           01123         MOVF    r0x01, W
00008A ????           01124         BANKSEL (_rn + 50)
00008C 15??           01125         ANDWF   (_rn + 50), W, B
gpasm-1.4.0 #1107 (May  9 2015) build/sdcc/pr   12-2-2016  22:31:29         PAGE 24


LOC    OBJECT CODE    LINE  SOURCE TEXT
  VALUE

Message[1301]: Using default destination of 0 (Access Bank).
00008E 6E??           01126         MOVWF   r0x03
000090 50??           01127         MOVF    r0x02, W
000092 ????           01128         BANKSEL (_rn + 54)
000094 6F??           01129         MOVWF   (_rn + 54), B
000096 50??           01130         MOVF    r0x03, W
000098 ????           01131         BANKSEL (_rn + 55)
00009A 6F??           01132         MOVWF   (_rn + 55), B
                      01133 ;       .line   1255; ../../../RF24Network_c/RF24Network_cg.c   i = rn.node_address;
00009C C??? F???      01134         MOVFF   (_rn + 49), r0x02
0000A0 C??? F???      01135         MOVFF   (_rn + 50), r0x03
0000A4                01136 _00854_DS_:
                      01137 ;       .line   1257; ../../../RF24Network_c/RF24Network_cg.c   while (m)
0000A4 50??           01138         MOVF    r0x00, W
0000A6 10??           01139         IORWF   r0x01, W
0000A8 E0??           01140         BZ      _00856_DS_
                      01141 ;       .line   1259; ../../../RF24Network_c/RF24Network_cg.c   i >>= 3;
0000AA 90D8           01142         BCF     STATUS, 0
0000AC 32??           01143         RRCF    r0x03, F
0000AE 32??           01144         RRCF    r0x02, F
0000B0 90D8           01145         BCF     STATUS, 0
0000B2 32??           01146         RRCF    r0x03, F
0000B4 32??           01147         RRCF    r0x02, F
0000B6 90D8           01148         BCF     STATUS, 0
0000B8 32??           01149         RRCF    r0x03, F
0000BA 32??           01150         RRCF    r0x02, F
                      01151 ;       .line   1260; ../../../RF24Network_c/RF24Network_cg.c   m >>= 3;
0000BC 90D8           01152         BCF     STATUS, 0
0000BE 32??           01153         RRCF    r0x01, F
0000C0 32??           01154         RRCF    r0x00, F
0000C2 90D8           01155         BCF     STATUS, 0
0000C4 32??           01156         RRCF    r0x01, F
0000C6 32??           01157         RRCF    r0x00, F
0000C8 90D8           01158         BCF     STATUS, 0
0000CA 32??           01159         RRCF    r0x01, F
0000CC 32??           01160         RRCF    r0x00, F
0000CE D???           01161         BRA     _00854_DS_
0000D0                01162 _00856_DS_:
                      01163 ;       .line   1262; ../../../RF24Network_c/RF24Network_cg.c   rn.parent_pipe = i;
0000D0 50??           01164         MOVF    r0x02, W
0000D2 ????           01165         BANKSEL (_rn + 56)
0000D4 6F??           01166         MOVWF   (_rn + 56), B
0000D6 CFE4 F000      01167         MOVFF   PREINC1, r0x04
0000DA CFE4 F000      01168         MOVFF   PREINC1, r0x03
0000DE CFE4 F000      01169         MOVFF   PREINC1, r0x02
0000E2 CFE4 F000      01170         MOVFF   PREINC1, r0x01
0000E6 CFE4 F000      01171         MOVFF   PREINC1, r0x00
0000EA CFE4 FFD9      01172         MOVFF   PREINC1, FSR2L
0000EE CFE4 FFDA      01173         MOVFF   PREINC1, FSR2H
0000F2 0012           01174         RETURN  
                      01175 
                      01176 ; ; Starting pCode block
                      01177 S_RF24Network_cg__RF24N_is_descendant   code
gpasm-1.4.0 #1107 (May  9 2015) build/sdcc/pr   12-2-2016  22:31:29         PAGE 25


LOC    OBJECT CODE    LINE  SOURCE TEXT
  VALUE

000000                01178 _RF24N_is_descendant:
                      01179 ;       .line   1218; ../../../RF24Network_c/RF24Network_cg.c   uint8_t RF24N_is_descendant( uint16_t no
                            de )
000000 CFDA FFE5      01180         MOVFF   FSR2H, POSTDEC1
000004 CFD9 FFE5      01181         MOVFF   FSR2L, POSTDEC1
000008 CFE2 FFDA      01182         MOVFF   FSR1H, FSR2H
00000C CFE1 FFD9      01183         MOVFF   FSR1L, FSR2L
000010 C??? F???      01184         MOVFF   r0x00, POSTDEC1
000014 C??? F???      01185         MOVFF   r0x01, POSTDEC1
000018 0E03           01186         MOVLW   0x03
00001A CFDB F000      01187         MOVFF   PLUSW2, r0x00
00001E 0E04           01188         MOVLW   0x04
000020 CFDB F000      01189         MOVFF   PLUSW2, r0x01
000024 ????           01190         BANKSEL (_rn + 57)
                      01191 ;       .line   1220; ../../../RF24Network_c/RF24Network_cg.c   return ( node & rn.node_mask ) == rn.nod
                            e_address;
000026 51??           01192         MOVF    (_rn + 57), W, B
000028 16??           01193         ANDWF   r0x00, F
00002A ????           01194         BANKSEL (_rn + 58)
00002C 51??           01195         MOVF    (_rn + 58), W, B
00002E 16??           01196         ANDWF   r0x01, F
000030 50??           01197         MOVF    r0x00, W
000032 ????           01198         BANKSEL (_rn + 49)
000034 19??           01199         XORWF   (_rn + 49), W, B
000036 E1??           01200         BNZ     _00845_DS_
000038 50??           01201         MOVF    r0x01, W
00003A ????           01202         BANKSEL (_rn + 50)
00003C 19??           01203         XORWF   (_rn + 50), W, B
00003E E1??           01204         BNZ     _00845_DS_
Message[1301]: Using default destination of 0 (Access Bank).
000040 6A??           01205         CLRF    r0x00
000042 2A??           01206         INCF    r0x00, F
000044 D???           01207         BRA     _00846_DS_
000046                01208 _00845_DS_:
Message[1301]: Using default destination of 0 (Access Bank).
000046 6A??           01209         CLRF    r0x00
000048                01210 _00846_DS_:
000048 50??           01211         MOVF    r0x00, W
00004A CFE4 F000      01212         MOVFF   PREINC1, r0x01
00004E CFE4 F000      01213         MOVFF   PREINC1, r0x00
000052 CFE4 FFD9      01214         MOVFF   PREINC1, FSR2L
000056 CFE4 FFDA      01215         MOVFF   PREINC1, FSR2H
00005A 0012           01216         RETURN  
                      01217 
                      01218 ; ; Starting pCode block
                      01219 S_RF24Network_cg__RF24N_is_direct_child code
000000                01220 _RF24N_is_direct_child:
                      01221 ;       .line   1196; ../../../RF24Network_c/RF24Network_cg.c   uint8_t RF24N_is_direct_child( uint16_t 
                            node )
000000 CFDA FFE5      01222         MOVFF   FSR2H, POSTDEC1
000004 CFD9 FFE5      01223         MOVFF   FSR2L, POSTDEC1
000008 CFE2 FFDA      01224         MOVFF   FSR1H, FSR2H
00000C CFE1 FFD9      01225         MOVFF   FSR1L, FSR2L
gpasm-1.4.0 #1107 (May  9 2015) build/sdcc/pr   12-2-2016  22:31:29         PAGE 26


LOC    OBJECT CODE    LINE  SOURCE TEXT
  VALUE

000010 C??? F???      01226         MOVFF   r0x00, POSTDEC1
000014 C??? F???      01227         MOVFF   r0x01, POSTDEC1
000018 C??? F???      01228         MOVFF   r0x02, POSTDEC1
00001C C??? F???      01229         MOVFF   r0x03, POSTDEC1
000020 C??? F???      01230         MOVFF   r0x04, POSTDEC1
000024 C??? F???      01231         MOVFF   r0x05, POSTDEC1
000028 C??? F???      01232         MOVFF   r0x06, POSTDEC1
00002C 0E03           01233         MOVLW   0x03
00002E CFDB F000      01234         MOVFF   PLUSW2, r0x00
000032 0E04           01235         MOVLW   0x04
000034 CFDB F000      01236         MOVFF   PLUSW2, r0x01
                      01237 ;       .line   1198; ../../../RF24Network_c/RF24Network_cg.c   uint8_t result = 0;
Message[1301]: Using default destination of 0 (Access Bank).
000038 6A??           01238         CLRF    r0x02
                      01239 ;       .line   1207; ../../../RF24Network_c/RF24Network_cg.c   if ( RF24N_is_descendant(node) )
00003A 50??           01240         MOVF    r0x01, W
Message[1301]: Using default destination of 0 (Access Bank).
00003C 6EE5           01241         MOVWF   POSTDEC1
00003E 50??           01242         MOVF    r0x00, W
Message[1301]: Using default destination of 0 (Access Bank).
000040 6EE5           01243         MOVWF   POSTDEC1
000042 EC?? F0??      01244         CALL    _RF24N_is_descendant
Message[1301]: Using default destination of 0 (Access Bank).
000046 6E??           01245         MOVWF   r0x03
000048 52E6           01246         MOVF    POSTINC1, F
00004A 52E6           01247         MOVF    POSTINC1, F
00004C 50??           01248         MOVF    r0x03, W
00004E E0??           01249         BZ      _00829_DS_
000050 ????           01250         BANKSEL (_rn + 57)
                      01251 ;       .line   1210; ../../../RF24Network_c/RF24Network_cg.c   uint16_t child_node_mask = ( ~ rn.node_m
                            ask ) << 3;
000052 1D??           01252         COMF    (_rn + 57), W, B
Message[1301]: Using default destination of 0 (Access Bank).
000054 6E??           01253         MOVWF   r0x03
000056 ????           01254         BANKSEL (_rn + 58)
000058 1D??           01255         COMF    (_rn + 58), W, B
Message[1301]: Using default destination of 0 (Access Bank).
00005A 6E??           01256         MOVWF   r0x04
00005C 50??           01257         MOVF    r0x03, W
Message[1301]: Using default destination of 0 (Access Bank).
00005E 6E??           01258         MOVWF   r0x05
000060 26??           01259         ADDWF   r0x05, F
000062 34??           01260         RLCF    r0x04, W
Message[1301]: Using default destination of 0 (Access Bank).
000064 6E??           01261         MOVWF   r0x06
000066 90D8           01262         BCF     STATUS, 0
000068 36??           01263         RLCF    r0x05, F
00006A 36??           01264         RLCF    r0x06, F
00006C 90D8           01265         BCF     STATUS, 0
00006E 36??           01266         RLCF    r0x05, F
000070 36??           01267         RLCF    r0x06, F
                      01268 ;       .line   1211; ../../../RF24Network_c/RF24Network_cg.c   result = ( node & child_node_mask ) == 0
                             ;
gpasm-1.4.0 #1107 (May  9 2015) build/sdcc/pr   12-2-2016  22:31:29         PAGE 27


LOC    OBJECT CODE    LINE  SOURCE TEXT
  VALUE

000072 50??           01269         MOVF    r0x05, W
000074 16??           01270         ANDWF   r0x00, F
000076 50??           01271         MOVF    r0x06, W
000078 16??           01272         ANDWF   r0x01, F
Message[1301]: Using default destination of 0 (Access Bank).
00007A 6A??           01273         CLRF    r0x02
00007C 50??           01274         MOVF    r0x00, W
00007E E1??           01275         BNZ     _00829_DS_
000080 50??           01276         MOVF    r0x01, W
000082 E1??           01277         BNZ     _00829_DS_
000084 2A??           01278         INCF    r0x02, F
000086                01279 _00829_DS_:
                      01280 ;       .line   1213; ../../../RF24Network_c/RF24Network_cg.c   return result;
000086 50??           01281         MOVF    r0x02, W
000088 CFE4 F000      01282         MOVFF   PREINC1, r0x06
00008C CFE4 F000      01283         MOVFF   PREINC1, r0x05
000090 CFE4 F000      01284         MOVFF   PREINC1, r0x04
000094 CFE4 F000      01285         MOVFF   PREINC1, r0x03
000098 CFE4 F000      01286         MOVFF   PREINC1, r0x02
00009C CFE4 F000      01287         MOVFF   PREINC1, r0x01
0000A0 CFE4 F000      01288         MOVFF   PREINC1, r0x00
0000A4 CFE4 FFD9      01289         MOVFF   PREINC1, FSR2L
0000A8 CFE4 FFDA      01290         MOVFF   PREINC1, FSR2H
0000AC 0012           01291         RETURN  
                      01292 
                      01293 ; ; Starting pCode block
                      01294 S_RF24Network_cg__RF24N_write_to_pipe   code
000000                01295 _RF24N_write_to_pipe:
                      01296 ;       .line   1143; ../../../RF24Network_c/RF24Network_cg.c   uint8_t RF24N_write_to_pipe( uint16_t no
                            de, uint8_t pipe, uint8_t multicast )
000000 CFDA FFE5      01297         MOVFF   FSR2H, POSTDEC1
000004 CFD9 FFE5      01298         MOVFF   FSR2L, POSTDEC1
000008 CFE2 FFDA      01299         MOVFF   FSR1H, FSR2H
00000C CFE1 FFD9      01300         MOVFF   FSR1L, FSR2L
000010 C??? F???      01301         MOVFF   r0x00, POSTDEC1
000014 C??? F???      01302         MOVFF   r0x01, POSTDEC1
000018 C??? F???      01303         MOVFF   r0x02, POSTDEC1
00001C C??? F???      01304         MOVFF   r0x03, POSTDEC1
000020 C??? F???      01305         MOVFF   r0x04, POSTDEC1
000024 C??? F???      01306         MOVFF   r0x05, POSTDEC1
000028 C??? F???      01307         MOVFF   r0x06, POSTDEC1
00002C 0E03           01308         MOVLW   0x03
00002E CFDB F000      01309         MOVFF   PLUSW2, r0x00
000032 0E04           01310         MOVLW   0x04
000034 CFDB F000      01311         MOVFF   PLUSW2, r0x01
000038 0E05           01312         MOVLW   0x05
00003A CFDB F000      01313         MOVFF   PLUSW2, r0x02
00003E 0E06           01314         MOVLW   0x06
000040 CFDB F000      01315         MOVFF   PLUSW2, r0x03
                      01316 ;       .line   1147; ../../../RF24Network_c/RF24Network_cg.c   RF24N_pipe_address( node, pipe, out_pipe
                            );
000044 0E??           01317         MOVLW   HIGH(_RF24N_write_to_pipe_out_pipe_1_283)
Message[1301]: Using default destination of 0 (Access Bank).
gpasm-1.4.0 #1107 (May  9 2015) build/sdcc/pr   12-2-2016  22:31:29         PAGE 28


LOC    OBJECT CODE    LINE  SOURCE TEXT
  VALUE

000046 6E??           01318         MOVWF   r0x05
000048 0E??           01319         MOVLW   LOW(_RF24N_write_to_pipe_out_pipe_1_283)
Message[1301]: Using default destination of 0 (Access Bank).
00004A 6E??           01320         MOVWF   r0x04
00004C 0E80           01321         MOVLW   0x80
Message[1301]: Using default destination of 0 (Access Bank).
00004E 6E??           01322         MOVWF   r0x06
000050 50??           01323         MOVF    r0x06, W
Message[1301]: Using default destination of 0 (Access Bank).
000052 6EE5           01324         MOVWF   POSTDEC1
000054 50??           01325         MOVF    r0x05, W
Message[1301]: Using default destination of 0 (Access Bank).
000056 6EE5           01326         MOVWF   POSTDEC1
000058 50??           01327         MOVF    r0x04, W
Message[1301]: Using default destination of 0 (Access Bank).
00005A 6EE5           01328         MOVWF   POSTDEC1
00005C 50??           01329         MOVF    r0x02, W
Message[1301]: Using default destination of 0 (Access Bank).
00005E 6EE5           01330         MOVWF   POSTDEC1
000060 50??           01331         MOVF    r0x01, W
Message[1301]: Using default destination of 0 (Access Bank).
000062 6EE5           01332         MOVWF   POSTDEC1
000064 50??           01333         MOVF    r0x00, W
Message[1301]: Using default destination of 0 (Access Bank).
000066 6EE5           01334         MOVWF   POSTDEC1
000068 EC?? F0??      01335         CALL    _RF24N_pipe_address
00006C 0E06           01336         MOVLW   0x06
00006E 26E1           01337         ADDWF   FSR1L, F
000070 B0D8           01338         BTFSC   STATUS, 0
000072 2AE2           01339         INCF    FSR1H, F
000074 ????           01340         BANKSEL (_rn + 43)
                      01341 ;       .line   1153; ../../../RF24Network_c/RF24Network_cg.c   if(!(rn.networkFlags & FLAG_FAST_FRAG)){
000076 B4??           01342         BTFSC   (_rn + 43), 2
000078 D???           01343         BRA     _00805_DS_
                      01344 ;       .line   1154; ../../../RF24Network_c/RF24Network_cg.c   RF24_stopListening();
00007A EC?? F0??      01345         CALL    _RF24_stopListening
00007E                01346 _00805_DS_:
                      01347 ;       .line   1157; ../../../RF24Network_c/RF24Network_cg.c   if(multicast){ RF24_setAutoAck_p(0,0);}e
                            lse{RF24_setAutoAck_p(0,1);}
00007E 50??           01348         MOVF    r0x03, W
000080 E0??           01349         BZ      _00807_DS_
000082 0E00           01350         MOVLW   0x00
Message[1301]: Using default destination of 0 (Access Bank).
000084 6EE5           01351         MOVWF   POSTDEC1
000086 0E00           01352         MOVLW   0x00
Message[1301]: Using default destination of 0 (Access Bank).
000088 6EE5           01353         MOVWF   POSTDEC1
00008A EC?? F0??      01354         CALL    _RF24_setAutoAck_p
00008E 52E6           01355         MOVF    POSTINC1, F
000090 52E6           01356         MOVF    POSTINC1, F
000092 D???           01357         BRA     _00808_DS_
000094                01358 _00807_DS_:
000094 0E01           01359         MOVLW   0x01
gpasm-1.4.0 #1107 (May  9 2015) build/sdcc/pr   12-2-2016  22:31:29         PAGE 29


LOC    OBJECT CODE    LINE  SOURCE TEXT
  VALUE

Message[1301]: Using default destination of 0 (Access Bank).
000096 6EE5           01360         MOVWF   POSTDEC1
000098 0E00           01361         MOVLW   0x00
Message[1301]: Using default destination of 0 (Access Bank).
00009A 6EE5           01362         MOVWF   POSTDEC1
00009C EC?? F0??      01363         CALL    _RF24_setAutoAck_p
0000A0 52E6           01364         MOVF    POSTINC1, F
0000A2 52E6           01365         MOVF    POSTINC1, F
0000A4                01366 _00808_DS_:
                      01367 ;       .line   1159; ../../../RF24Network_c/RF24Network_cg.c   RF24_openWritingPipe_d(out_pipe);
0000A4 0E??           01368         MOVLW   HIGH(_RF24N_write_to_pipe_out_pipe_1_283)
Message[1301]: Using default destination of 0 (Access Bank).
0000A6 6E??           01369         MOVWF   r0x01
0000A8 0E??           01370         MOVLW   LOW(_RF24N_write_to_pipe_out_pipe_1_283)
Message[1301]: Using default destination of 0 (Access Bank).
0000AA 6E??           01371         MOVWF   r0x00
0000AC 0E80           01372         MOVLW   0x80
Message[1301]: Using default destination of 0 (Access Bank).
0000AE 6E??           01373         MOVWF   r0x02
0000B0 50??           01374         MOVF    r0x02, W
Message[1301]: Using default destination of 0 (Access Bank).
0000B2 6EE5           01375         MOVWF   POSTDEC1
0000B4 50??           01376         MOVF    r0x01, W
Message[1301]: Using default destination of 0 (Access Bank).
0000B6 6EE5           01377         MOVWF   POSTDEC1
0000B8 50??           01378         MOVF    r0x00, W
Message[1301]: Using default destination of 0 (Access Bank).
0000BA 6EE5           01379         MOVWF   POSTDEC1
0000BC EC?? F0??      01380         CALL    _RF24_openWritingPipe_d
0000C0 0E03           01381         MOVLW   0x03
0000C2 26E1           01382         ADDWF   FSR1L, F
0000C4 B0D8           01383         BTFSC   STATUS, 0
0000C6 2AE2           01384         INCF    FSR1H, F
                      01385 ;       .line   1161; ../../../RF24Network_c/RF24Network_cg.c   ok = RF24_writeFast_m(rn.frame_buffer, r
                            n.frame_size,0);
0000C8 0E??           01386         MOVLW   HIGH(_rn + 7)
Message[1301]: Using default destination of 0 (Access Bank).
0000CA 6E??           01387         MOVWF   r0x01
0000CC 0E??           01388         MOVLW   LOW(_rn + 7)
Message[1301]: Using default destination of 0 (Access Bank).
0000CE 6E??           01389         MOVWF   r0x00
0000D0 0E80           01390         MOVLW   0x80
Message[1301]: Using default destination of 0 (Access Bank).
0000D2 6E??           01391         MOVWF   r0x02
0000D4 0E00           01392         MOVLW   0x00
Message[1301]: Using default destination of 0 (Access Bank).
0000D6 6EE5           01393         MOVWF   POSTDEC1
0000D8 ????           01394         BANKSEL (_rn + 51)
0000DA 51??           01395         MOVF    (_rn + 51), W, B
Message[1301]: Using default destination of 0 (Access Bank).
0000DC 6EE5           01396         MOVWF   POSTDEC1
0000DE 50??           01397         MOVF    r0x02, W
Message[1301]: Using default destination of 0 (Access Bank).
gpasm-1.4.0 #1107 (May  9 2015) build/sdcc/pr   12-2-2016  22:31:29         PAGE 30


LOC    OBJECT CODE    LINE  SOURCE TEXT
  VALUE

0000E0 6EE5           01398         MOVWF   POSTDEC1
0000E2 50??           01399         MOVF    r0x01, W
Message[1301]: Using default destination of 0 (Access Bank).
0000E4 6EE5           01400         MOVWF   POSTDEC1
0000E6 50??           01401         MOVF    r0x00, W
Message[1301]: Using default destination of 0 (Access Bank).
0000E8 6EE5           01402         MOVWF   POSTDEC1
0000EA EC?? F0??      01403         CALL    _RF24_writeFast_m
Message[1301]: Using default destination of 0 (Access Bank).
0000EE 6E??           01404         MOVWF   r0x00
0000F0 0E05           01405         MOVLW   0x05
0000F2 26E1           01406         ADDWF   FSR1L, F
0000F4 B0D8           01407         BTFSC   STATUS, 0
0000F6 2AE2           01408         INCF    FSR1H, F
0000F8 ????           01409         BANKSEL (_rn + 43)
                      01410 ;       .line   1163; ../../../RF24Network_c/RF24Network_cg.c   if(!(rn.networkFlags & FLAG_FAST_FRAG)){
0000FA B4??           01411         BTFSC   (_rn + 43), 2
0000FC D???           01412         BRA     _00810_DS_
                      01413 ;       .line   1164; ../../../RF24Network_c/RF24Network_cg.c   ok = RF24_txStandBy_t(rn.txTimeout,0);
0000FE 0E00           01414         MOVLW   0x00
Message[1301]: Using default destination of 0 (Access Bank).
000100 6EE5           01415         MOVWF   POSTDEC1
000102 ????           01416         BANKSEL (_rn + 4)
000104 51??           01417         MOVF    (_rn + 4), W, B
Message[1301]: Using default destination of 0 (Access Bank).
000106 6EE5           01418         MOVWF   POSTDEC1
000108 ????           01419         BANKSEL (_rn + 3)
00010A 51??           01420         MOVF    (_rn + 3), W, B
Message[1301]: Using default destination of 0 (Access Bank).
00010C 6EE5           01421         MOVWF   POSTDEC1
00010E ????           01422         BANKSEL (_rn + 2)
000110 51??           01423         MOVF    (_rn + 2), W, B
Message[1301]: Using default destination of 0 (Access Bank).
000112 6EE5           01424         MOVWF   POSTDEC1
000114 ????           01425         BANKSEL (_rn + 1)
000116 51??           01426         MOVF    (_rn + 1), W, B
Message[1301]: Using default destination of 0 (Access Bank).
000118 6EE5           01427         MOVWF   POSTDEC1
00011A EC?? F0??      01428         CALL    _RF24_txStandBy_t
Message[1301]: Using default destination of 0 (Access Bank).
00011E 6E??           01429         MOVWF   r0x00
000120 0E05           01430         MOVLW   0x05
000122 26E1           01431         ADDWF   FSR1L, F
000124 B0D8           01432         BTFSC   STATUS, 0
000126 2AE2           01433         INCF    FSR1H, F
                      01434 ;       .line   1165; ../../../RF24Network_c/RF24Network_cg.c   RF24_setAutoAck_p(0,0);
000128 0E00           01435         MOVLW   0x00
Message[1301]: Using default destination of 0 (Access Bank).
00012A 6EE5           01436         MOVWF   POSTDEC1
00012C 0E00           01437         MOVLW   0x00
Message[1301]: Using default destination of 0 (Access Bank).
00012E 6EE5           01438         MOVWF   POSTDEC1
000130 EC?? F0??      01439         CALL    _RF24_setAutoAck_p
gpasm-1.4.0 #1107 (May  9 2015) build/sdcc/pr   12-2-2016  22:31:29         PAGE 31


LOC    OBJECT CODE    LINE  SOURCE TEXT
  VALUE

000134 52E6           01440         MOVF    POSTINC1, F
000136 52E6           01441         MOVF    POSTINC1, F
000138                01442 _00810_DS_:
                      01443 ;       .line   1181; ../../../RF24Network_c/RF24Network_cg.c   return ok;
000138 50??           01444         MOVF    r0x00, W
00013A CFE4 F000      01445         MOVFF   PREINC1, r0x06
00013E CFE4 F000      01446         MOVFF   PREINC1, r0x05
000142 CFE4 F000      01447         MOVFF   PREINC1, r0x04
000146 CFE4 F000      01448         MOVFF   PREINC1, r0x03
00014A CFE4 F000      01449         MOVFF   PREINC1, r0x02
00014E CFE4 F000      01450         MOVFF   PREINC1, r0x01
000152 CFE4 F000      01451         MOVFF   PREINC1, r0x00
000156 CFE4 FFD9      01452         MOVFF   PREINC1, FSR2L
00015A CFE4 FFDA      01453         MOVFF   PREINC1, FSR2H
00015E 0012           01454         RETURN  
                      01455 
                      01456 ; ; Starting pCode block
                      01457 S_RF24Network_cg__RF24N_logicalToPhysicalAddress        code
000000                01458 _RF24N_logicalToPhysicalAddress:
                      01459 ;       .line   1093; ../../../RF24Network_c/RF24Network_cg.c   uint8_t RF24N_logicalToPhysicalAddress( 
                            logicalToPhysicalStruct *conversionInfo){
000000 CFDA FFE5      01460         MOVFF   FSR2H, POSTDEC1
000004 CFD9 FFE5      01461         MOVFF   FSR2L, POSTDEC1
000008 CFE2 FFDA      01462         MOVFF   FSR1H, FSR2H
00000C CFE1 FFD9      01463         MOVFF   FSR1L, FSR2L
000010 C??? F???      01464         MOVFF   r0x00, POSTDEC1
000014 C??? F???      01465         MOVFF   r0x01, POSTDEC1
000018 C??? F???      01466         MOVFF   r0x02, POSTDEC1
00001C C??? F???      01467         MOVFF   r0x03, POSTDEC1
000020 C??? F???      01468         MOVFF   r0x04, POSTDEC1
000024 C??? F???      01469         MOVFF   r0x05, POSTDEC1
000028 C??? F???      01470         MOVFF   r0x06, POSTDEC1
00002C C??? F???      01471         MOVFF   r0x07, POSTDEC1
000030 C??? F???      01472         MOVFF   r0x08, POSTDEC1
000034 C??? F???      01473         MOVFF   r0x09, POSTDEC1
000038 C??? F???      01474         MOVFF   r0x0a, POSTDEC1
00003C C??? F???      01475         MOVFF   r0x0b, POSTDEC1
000040 C??? F???      01476         MOVFF   r0x0c, POSTDEC1
000044 C??? F???      01477         MOVFF   r0x0d, POSTDEC1
000048 C??? F???      01478         MOVFF   r0x0e, POSTDEC1
00004C C??? F???      01479         MOVFF   r0x0f, POSTDEC1
000050 0E03           01480         MOVLW   0x03
000052 CFDB F000      01481         MOVFF   PLUSW2, r0x00
000056 0E04           01482         MOVLW   0x04
000058 CFDB F000      01483         MOVFF   PLUSW2, r0x01
00005C 0E05           01484         MOVLW   0x05
00005E CFDB F000      01485         MOVFF   PLUSW2, r0x02
                      01486 ;       .line   1098; ../../../RF24Network_c/RF24Network_cg.c   uint16_t *to_node = &conversionInfo->sen
                            d_node;
000062 C??? F???      01487         MOVFF   r0x00, r0x03
000066 C??? F???      01488         MOVFF   r0x01, r0x04
00006A C??? F???      01489         MOVFF   r0x02, r0x05
                      01490 ;       .line   1099; ../../../RF24Network_c/RF24Network_cg.c   uint8_t *directTo = &conversionInfo->sen
gpasm-1.4.0 #1107 (May  9 2015) build/sdcc/pr   12-2-2016  22:31:29         PAGE 32


LOC    OBJECT CODE    LINE  SOURCE TEXT
  VALUE

                            d_pipe;
00006E 50??           01491         MOVF    r0x00, W
000070 0F02           01492         ADDLW   0x02
Message[1301]: Using default destination of 0 (Access Bank).
000072 6E??           01493         MOVWF   r0x06
000074 0E00           01494         MOVLW   0x00
000076 20??           01495         ADDWFC  r0x01, W
Message[1301]: Using default destination of 0 (Access Bank).
000078 6E??           01496         MOVWF   r0x07
00007A 0E00           01497         MOVLW   0x00
00007C 20??           01498         ADDWFC  r0x02, W
Message[1301]: Using default destination of 0 (Access Bank).
00007E 6E??           01499         MOVWF   r0x08
                      01500 ;       .line   1100; ../../../RF24Network_c/RF24Network_cg.c   uint8_t *multicast = &conversionInfo->mu
                            lticast;    
000080 50??           01501         MOVF    r0x00, W
000082 0F03           01502         ADDLW   0x03
Message[1301]: Using default destination of 0 (Access Bank).
000084 6E??           01503         MOVWF   r0x09
000086 0E00           01504         MOVLW   0x00
000088 20??           01505         ADDWFC  r0x01, W
Message[1301]: Using default destination of 0 (Access Bank).
00008A 6E??           01506         MOVWF   r0x0a
00008C 0E00           01507         MOVLW   0x00
00008E 20??           01508         ADDWFC  r0x02, W
Message[1301]: Using default destination of 0 (Access Bank).
000090 6E??           01509         MOVWF   r0x0b
                      01510 ;       .line   1103; ../../../RF24Network_c/RF24Network_cg.c   uint16_t pre_conversion_send_node = rn.p
                            arent_node; 
000092 C??? F???      01511         MOVFF   (_rn + 54), r0x0c
000096 C??? F???      01512         MOVFF   (_rn + 55), r0x0d
                      01513 ;       .line   1106; ../../../RF24Network_c/RF24Network_cg.c   uint8_t pre_conversion_send_pipe = rn.pa
                            rent_pipe;
00009A C??? F???      01514         MOVFF   (_rn + 56), r0x0e
                      01515 ;       .line   1108; ../../../RF24Network_c/RF24Network_cg.c   if(*directTo > TX_ROUTED ){    
00009E C??? F???      01516         MOVFF   r0x06, FSR0L
0000A2 C??? F???      01517         MOVFF   r0x07, PRODL
0000A6 50??           01518         MOVF    r0x08, W
0000A8 EC?? F0??      01519         CALL    __gptrget1
Message[1301]: Using default destination of 0 (Access Bank).
0000AC 6E??           01520         MOVWF   r0x0f
0000AE 0E02           01521         MOVLW   0x02
0000B0 5C??           01522         SUBWF   r0x0f, W
0000B2 E3??           01523         BNC     _00786_DS_
                      01524 ;       .line   1109; ../../../RF24Network_c/RF24Network_cg.c   pre_conversion_send_node = *to_node;
0000B4 C??? F???      01525         MOVFF   r0x00, FSR0L
0000B8 C??? F???      01526         MOVFF   r0x01, PRODL
0000BC 50??           01527         MOVF    r0x02, W
0000BE EC?? F0??      01528         CALL    __gptrget2
Message[1301]: Using default destination of 0 (Access Bank).
0000C2 6E??           01529         MOVWF   r0x0c
0000C4 CFF3 F000      01530         MOVFF   PRODL, r0x0d
                      01531 ;       .line   1110; ../../../RF24Network_c/RF24Network_cg.c   *multicast = 1;
gpasm-1.4.0 #1107 (May  9 2015) build/sdcc/pr   12-2-2016  22:31:29         PAGE 33


LOC    OBJECT CODE    LINE  SOURCE TEXT
  VALUE

0000C8 0E01           01532         MOVLW   0x01
Message[1301]: Using default destination of 0 (Access Bank).
0000CA 6EE5           01533         MOVWF   POSTDEC1
0000CC C??? F???      01534         MOVFF   r0x09, FSR0L
0000D0 C??? F???      01535         MOVFF   r0x0a, PRODL
0000D4 50??           01536         MOVF    r0x0b, W
0000D6 EC?? F0??      01537         CALL    __gptrput1
                      01538 ;       .line   1112; ../../../RF24Network_c/RF24Network_cg.c   pre_conversion_send_pipe=0;
Message[1301]: Using default destination of 0 (Access Bank).
0000DA 6A??           01539         CLRF    r0x0e
0000DC D???           01540         BRA     _00787_DS_
0000DE                01541 _00786_DS_:
                      01542 ;       .line   1117; ../../../RF24Network_c/RF24Network_cg.c   if ( RF24N_is_direct_child(*to_node) )
0000DE C??? F???      01543         MOVFF   r0x00, FSR0L
0000E2 C??? F???      01544         MOVFF   r0x01, PRODL
0000E6 50??           01545         MOVF    r0x02, W
0000E8 EC?? F0??      01546         CALL    __gptrget2
Message[1301]: Using default destination of 0 (Access Bank).
0000EC 6E??           01547         MOVWF   r0x09
0000EE CFF3 F000      01548         MOVFF   PRODL, r0x0a
0000F2 50??           01549         MOVF    r0x0a, W
Message[1301]: Using default destination of 0 (Access Bank).
0000F4 6EE5           01550         MOVWF   POSTDEC1
0000F6 50??           01551         MOVF    r0x09, W
Message[1301]: Using default destination of 0 (Access Bank).
0000F8 6EE5           01552         MOVWF   POSTDEC1
0000FA EC?? F0??      01553         CALL    _RF24N_is_direct_child
Message[1301]: Using default destination of 0 (Access Bank).
0000FE 6E??           01554         MOVWF   r0x09
000100 52E6           01555         MOVF    POSTINC1, F
000102 52E6           01556         MOVF    POSTINC1, F
000104 50??           01557         MOVF    r0x09, W
000106 E0??           01558         BZ      _00783_DS_
                      01559 ;       .line   1120; ../../../RF24Network_c/RF24Network_cg.c   pre_conversion_send_node = *to_node;
000108 C??? F???      01560         MOVFF   r0x00, FSR0L
00010C C??? F???      01561         MOVFF   r0x01, PRODL
000110 50??           01562         MOVF    r0x02, W
000112 EC?? F0??      01563         CALL    __gptrget2
Message[1301]: Using default destination of 0 (Access Bank).
000116 6E??           01564         MOVWF   r0x0c
000118 CFF3 F000      01565         MOVFF   PRODL, r0x0d
                      01566 ;       .line   1122; ../../../RF24Network_c/RF24Network_cg.c   pre_conversion_send_pipe = 5;
00011C 0E05           01567         MOVLW   0x05
Message[1301]: Using default destination of 0 (Access Bank).
00011E 6E??           01568         MOVWF   r0x0e
000120 D???           01569         BRA     _00787_DS_
000122                01570 _00783_DS_:
                      01571 ;       .line   1127; ../../../RF24Network_c/RF24Network_cg.c   else if ( RF24N_is_descendant(*to_node) 
                            )
000122 C??? F???      01572         MOVFF   r0x00, FSR0L
000126 C??? F???      01573         MOVFF   r0x01, PRODL
00012A 50??           01574         MOVF    r0x02, W
00012C EC?? F0??      01575         CALL    __gptrget2
gpasm-1.4.0 #1107 (May  9 2015) build/sdcc/pr   12-2-2016  22:31:29         PAGE 34


LOC    OBJECT CODE    LINE  SOURCE TEXT
  VALUE

Message[1301]: Using default destination of 0 (Access Bank).
000130 6E??           01576         MOVWF   r0x09
000132 CFF3 F000      01577         MOVFF   PRODL, r0x0a
000136 50??           01578         MOVF    r0x0a, W
Message[1301]: Using default destination of 0 (Access Bank).
000138 6EE5           01579         MOVWF   POSTDEC1
00013A 50??           01580         MOVF    r0x09, W
Message[1301]: Using default destination of 0 (Access Bank).
00013C 6EE5           01581         MOVWF   POSTDEC1
00013E EC?? F0??      01582         CALL    _RF24N_is_descendant
Message[1301]: Using default destination of 0 (Access Bank).
000142 6E??           01583         MOVWF   r0x09
000144 52E6           01584         MOVF    POSTINC1, F
000146 52E6           01585         MOVF    POSTINC1, F
000148 50??           01586         MOVF    r0x09, W
00014A E0??           01587         BZ      _00787_DS_
                      01588 ;       .line   1129; ../../../RF24Network_c/RF24Network_cg.c   pre_conversion_send_node = RF24N_direct_
                            child_route_to(*to_node);
00014C C??? F???      01589         MOVFF   r0x00, FSR0L
000150 C??? F???      01590         MOVFF   r0x01, PRODL
000154 50??           01591         MOVF    r0x02, W
000156 EC?? F0??      01592         CALL    __gptrget2
Message[1301]: Using default destination of 0 (Access Bank).
00015A 6E??           01593         MOVWF   r0x00
00015C CFF3 F000      01594         MOVFF   PRODL, r0x01
000160 50??           01595         MOVF    r0x01, W
Message[1301]: Using default destination of 0 (Access Bank).
000162 6EE5           01596         MOVWF   POSTDEC1
000164 50??           01597         MOVF    r0x00, W
Message[1301]: Using default destination of 0 (Access Bank).
000166 6EE5           01598         MOVWF   POSTDEC1
000168 EC?? F0??      01599         CALL    _RF24N_direct_child_route_to
Message[1301]: Using default destination of 0 (Access Bank).
00016C 6E??           01600         MOVWF   r0x0c
00016E CFF3 F000      01601         MOVFF   PRODL, r0x0d
000172 52E6           01602         MOVF    POSTINC1, F
000174 52E6           01603         MOVF    POSTINC1, F
                      01604 ;       .line   1130; ../../../RF24Network_c/RF24Network_cg.c   pre_conversion_send_pipe = 5;
000176 0E05           01605         MOVLW   0x05
Message[1301]: Using default destination of 0 (Access Bank).
000178 6E??           01606         MOVWF   r0x0e
00017A                01607 _00787_DS_:
                      01608 ;       .line   1133; ../../../RF24Network_c/RF24Network_cg.c   *to_node = pre_conversion_send_node;
00017A C??? F???      01609         MOVFF   r0x0c, POSTDEC1
00017E C??? F???      01610         MOVFF   r0x0d, PRODH
000182 C??? F???      01611         MOVFF   r0x03, FSR0L
000186 C??? F???      01612         MOVFF   r0x04, PRODL
00018A 50??           01613         MOVF    r0x05, W
00018C EC?? F0??      01614         CALL    __gptrput2
                      01615 ;       .line   1134; ../../../RF24Network_c/RF24Network_cg.c   *directTo = pre_conversion_send_pipe;
000190 C??? F???      01616         MOVFF   r0x0e, POSTDEC1
000194 C??? F???      01617         MOVFF   r0x06, FSR0L
000198 C??? F???      01618         MOVFF   r0x07, PRODL
gpasm-1.4.0 #1107 (May  9 2015) build/sdcc/pr   12-2-2016  22:31:29         PAGE 35


LOC    OBJECT CODE    LINE  SOURCE TEXT
  VALUE

00019C 50??           01619         MOVF    r0x08, W
00019E EC?? F0??      01620         CALL    __gptrput1
                      01621 ;       .line   1136; ../../../RF24Network_c/RF24Network_cg.c   return 1;
0001A2 0E01           01622         MOVLW   0x01
0001A4 CFE4 F000      01623         MOVFF   PREINC1, r0x0f
0001A8 CFE4 F000      01624         MOVFF   PREINC1, r0x0e
0001AC CFE4 F000      01625         MOVFF   PREINC1, r0x0d
0001B0 CFE4 F000      01626         MOVFF   PREINC1, r0x0c
0001B4 CFE4 F000      01627         MOVFF   PREINC1, r0x0b
0001B8 CFE4 F000      01628         MOVFF   PREINC1, r0x0a
0001BC CFE4 F000      01629         MOVFF   PREINC1, r0x09
0001C0 CFE4 F000      01630         MOVFF   PREINC1, r0x08
0001C4 CFE4 F000      01631         MOVFF   PREINC1, r0x07
0001C8 CFE4 F000      01632         MOVFF   PREINC1, r0x06
0001CC CFE4 F000      01633         MOVFF   PREINC1, r0x05
0001D0 CFE4 F000      01634         MOVFF   PREINC1, r0x04
0001D4 CFE4 F000      01635         MOVFF   PREINC1, r0x03
0001D8 CFE4 F000      01636         MOVFF   PREINC1, r0x02
0001DC CFE4 F000      01637         MOVFF   PREINC1, r0x01
0001E0 CFE4 F000      01638         MOVFF   PREINC1, r0x00
0001E4 CFE4 FFD9      01639         MOVFF   PREINC1, FSR2L
0001E8 CFE4 FFDA      01640         MOVFF   PREINC1, FSR2H
0001EC 0012           01641         RETURN  
                      01642 
                      01643 ; ; Starting pCode block
                      01644 S_RF24Network_cg__RF24N_write   code
000000                01645 _RF24N_write:
                      01646 ;       .line   981; ../../../RF24Network_c/RF24Network_cg.c    uint8_t RF24N_write( uint16_t to_node, u
                            int8_t directTo)  // Direct To: 0 = First Payload, standard routing, 1=routed payload, 2=directRoute to 
                            host, 3=directRoute to Route
000000 CFDA FFE5      01647         MOVFF   FSR2H, POSTDEC1
000004 CFD9 FFE5      01648         MOVFF   FSR2L, POSTDEC1
000008 CFE2 FFDA      01649         MOVFF   FSR1H, FSR2H
00000C CFE1 FFD9      01650         MOVFF   FSR1L, FSR2L
000010 C??? F???      01651         MOVFF   r0x00, POSTDEC1
000014 C??? F???      01652         MOVFF   r0x01, POSTDEC1
000018 C??? F???      01653         MOVFF   r0x02, POSTDEC1
00001C C??? F???      01654         MOVFF   r0x03, POSTDEC1
000020 C??? F???      01655         MOVFF   r0x04, POSTDEC1
000024 C??? F???      01656         MOVFF   r0x05, POSTDEC1
000028 C??? F???      01657         MOVFF   r0x06, POSTDEC1
00002C C??? F???      01658         MOVFF   r0x07, POSTDEC1
000030 C??? F???      01659         MOVFF   r0x08, POSTDEC1
000034 C??? F???      01660         MOVFF   r0x09, POSTDEC1
000038 C??? F???      01661         MOVFF   r0x0a, POSTDEC1
00003C C??? F???      01662         MOVFF   r0x0b, POSTDEC1
000040 C??? F???      01663         MOVFF   r0x0c, POSTDEC1
000044 0E03           01664         MOVLW   0x03
000046 CFDB F000      01665         MOVFF   PLUSW2, r0x00
00004A 0E04           01666         MOVLW   0x04
00004C CFDB F000      01667         MOVFF   PLUSW2, r0x01
000050 0E05           01668         MOVLW   0x05
000052 CFDB F000      01669         MOVFF   PLUSW2, r0x02
gpasm-1.4.0 #1107 (May  9 2015) build/sdcc/pr   12-2-2016  22:31:29         PAGE 36


LOC    OBJECT CODE    LINE  SOURCE TEXT
  VALUE

                      01670 ;       .line   984; ../../../RF24Network_c/RF24Network_cg.c    uint8_t isAckType = 0;
Message[1301]: Using default destination of 0 (Access Bank).
000056 6A??           01671         CLRF    r0x03
                      01672 ;       .line   988; ../../../RF24Network_c/RF24Network_cg.c    if(rn.frame_buffer[6] > 64 && rn.frame_b
                            uffer[6] < 192 ){ isAckType=1; }
000058 C??? F???      01673         MOVFF   (_rn + 13), r0x04
00005C 0E41           01674         MOVLW   0x41
00005E 5C??           01675         SUBWF   r0x04, W
000060 E3??           01676         BNC     _00686_DS_
000062 0EC0           01677         MOVLW   0xc0
000064 5C??           01678         SUBWF   r0x04, W
000066 E2??           01679         BC      _00686_DS_
000068 0E01           01680         MOVLW   0x01
Message[1301]: Using default destination of 0 (Access Bank).
00006A 6E??           01681         MOVWF   r0x03
00006C                01682 _00686_DS_:
                      01683 ;       .line   995; ../../../RF24Network_c/RF24Network_cg.c    if ( !RF24N_is_valid_address(to_node) )
00006C 50??           01684         MOVF    r0x01, W
Message[1301]: Using default destination of 0 (Access Bank).
00006E 6EE5           01685         MOVWF   POSTDEC1
000070 50??           01686         MOVF    r0x00, W
Message[1301]: Using default destination of 0 (Access Bank).
000072 6EE5           01687         MOVWF   POSTDEC1
000074 EC?? F0??      01688         CALL    _RF24N_is_valid_address
Message[1301]: Using default destination of 0 (Access Bank).
000078 6E??           01689         MOVWF   r0x04
00007A 52E6           01690         MOVF    POSTINC1, F
00007C 52E6           01691         MOVF    POSTINC1, F
00007E 50??           01692         MOVF    r0x04, W
000080 E1??           01693         BNZ     _00689_DS_
                      01694 ;       .line   996; ../../../RF24Network_c/RF24Network_cg.c    return 0;  
Message[1301]: Using default destination of 0 (Access Bank).
000082 6AE8           01695         CLRF    WREG
000084 D???           01696         BRA     _00710_DS_
000086                01697 _00689_DS_:
                      01698 ;       .line   999; ../../../RF24Network_c/RF24Network_cg.c    conversion.send_node= to_node;
000086 50??           01699         MOVF    r0x00, W
000088 ????           01700         BANKSEL _RF24N_write_conversion_1_268
00008A 6F??           01701         MOVWF   _RF24N_write_conversion_1_268, B
00008C 50??           01702         MOVF    r0x01, W
00008E ????           01703         BANKSEL (_RF24N_write_conversion_1_268 + 1)
000090 6F??           01704         MOVWF   (_RF24N_write_conversion_1_268 + 1), B
                      01705 ;       .line   1000; ../../../RF24Network_c/RF24Network_cg.c   conversion.send_pipe=directTo;
000092 50??           01706         MOVF    r0x02, W
000094 ????           01707         BANKSEL (_RF24N_write_conversion_1_268 + 2)
000096 6F??           01708         MOVWF   (_RF24N_write_conversion_1_268 + 2), B
000098 ????           01709         BANKSEL (_RF24N_write_conversion_1_268 + 3)
                      01710 ;       .line   1001; ../../../RF24Network_c/RF24Network_cg.c   conversion.multicast=0;
00009A 6B??           01711         CLRF    (_RF24N_write_conversion_1_268 + 3), B
                      01712 ;       .line   1002; ../../../RF24Network_c/RF24Network_cg.c   RF24N_logicalToPhysicalAddress( &convers
                            ion);
00009C 0E??           01713         MOVLW   HIGH(_RF24N_write_conversion_1_268)
Message[1301]: Using default destination of 0 (Access Bank).
gpasm-1.4.0 #1107 (May  9 2015) build/sdcc/pr   12-2-2016  22:31:29         PAGE 37


LOC    OBJECT CODE    LINE  SOURCE TEXT
  VALUE

00009E 6E??           01714         MOVWF   r0x05
0000A0 0E??           01715         MOVLW   LOW(_RF24N_write_conversion_1_268)
Message[1301]: Using default destination of 0 (Access Bank).
0000A2 6E??           01716         MOVWF   r0x04
0000A4 0E80           01717         MOVLW   0x80
Message[1301]: Using default destination of 0 (Access Bank).
0000A6 6E??           01718         MOVWF   r0x06
0000A8 50??           01719         MOVF    r0x06, W
Message[1301]: Using default destination of 0 (Access Bank).
0000AA 6EE5           01720         MOVWF   POSTDEC1
0000AC 50??           01721         MOVF    r0x05, W
Message[1301]: Using default destination of 0 (Access Bank).
0000AE 6EE5           01722         MOVWF   POSTDEC1
0000B0 50??           01723         MOVF    r0x04, W
Message[1301]: Using default destination of 0 (Access Bank).
0000B2 6EE5           01724         MOVWF   POSTDEC1
0000B4 EC?? F0??      01725         CALL    _RF24N_logicalToPhysicalAddress
0000B8 0E03           01726         MOVLW   0x03
0000BA 26E1           01727         ADDWF   FSR1L, F
0000BC B0D8           01728         BTFSC   STATUS, 0
0000BE 2AE2           01729         INCF    FSR1H, F
0000C0 ????           01730         BANKSEL (_RF24N_write_conversion_1_268 + 3)
                      01731 ;       .line   1010; ../../../RF24Network_c/RF24Network_cg.c   ok=RF24N_write_to_pipe(conversion.send_n
                            ode, conversion.send_pipe, conversion.multicast);       
0000C2 51??           01732         MOVF    (_RF24N_write_conversion_1_268 + 3), W, B
Message[1301]: Using default destination of 0 (Access Bank).
0000C4 6EE5           01733         MOVWF   POSTDEC1
0000C6 ????           01734         BANKSEL (_RF24N_write_conversion_1_268 + 2)
0000C8 51??           01735         MOVF    (_RF24N_write_conversion_1_268 + 2), W, B
Message[1301]: Using default destination of 0 (Access Bank).
0000CA 6EE5           01736         MOVWF   POSTDEC1
0000CC ????           01737         BANKSEL (_RF24N_write_conversion_1_268 + 1)
0000CE 51??           01738         MOVF    (_RF24N_write_conversion_1_268 + 1), W, B
Message[1301]: Using default destination of 0 (Access Bank).
0000D0 6EE5           01739         MOVWF   POSTDEC1
0000D2 ????           01740         BANKSEL _RF24N_write_conversion_1_268
0000D4 51??           01741         MOVF    _RF24N_write_conversion_1_268, W, B
Message[1301]: Using default destination of 0 (Access Bank).
0000D6 6EE5           01742         MOVWF   POSTDEC1
0000D8 EC?? F0??      01743         CALL    _RF24N_write_to_pipe
Message[1301]: Using default destination of 0 (Access Bank).
0000DC 6E??           01744         MOVWF   r0x04
0000DE 0E04           01745         MOVLW   0x04
0000E0 26E1           01746         ADDWF   FSR1L, F
0000E2 B0D8           01747         BTFSC   STATUS, 0
0000E4 2AE2           01748         INCF    FSR1H, F
                      01749 ;       .line   1022; ../../../RF24Network_c/RF24Network_cg.c   if( directTo == TX_ROUTED && ok && conve
                            rsion.send_node == to_node && isAckType){
0000E6 50??           01750         MOVF    r0x02, W
0000E8 0A01           01751         XORLW   0x01
0000EA E0??           01752         BZ      _00763_DS_
0000EC D???           01753         BRA     _00691_DS_
0000EE                01754 _00763_DS_:
gpasm-1.4.0 #1107 (May  9 2015) build/sdcc/pr   12-2-2016  22:31:29         PAGE 38


LOC    OBJECT CODE    LINE  SOURCE TEXT
  VALUE

0000EE 50??           01755         MOVF    r0x04, W
0000F0 B4D8           01756         BTFSC   STATUS, 2
0000F2 D???           01757         BRA     _00691_DS_
0000F4 ????           01758         BANKSEL _RF24N_write_conversion_1_268
0000F6 51??           01759         MOVF    _RF24N_write_conversion_1_268, W, B
0000F8 18??           01760         XORWF   r0x00, W
0000FA E1??           01761         BNZ     _00764_DS_
0000FC ????           01762         BANKSEL (_RF24N_write_conversion_1_268 + 1)
0000FE 51??           01763         MOVF    (_RF24N_write_conversion_1_268 + 1), W, B
000100 18??           01764         XORWF   r0x01, W
000102 E0??           01765         BZ      _00765_DS_
000104                01766 _00764_DS_:
000104 D???           01767         BRA     _00691_DS_
000106                01768 _00765_DS_:
000106 50??           01769         MOVF    r0x03, W
000108 B4D8           01770         BTFSC   STATUS, 2
00010A D???           01771         BRA     _00691_DS_
                      01772 ;       .line   1024; ../../../RF24Network_c/RF24Network_cg.c   RF24NetworkHeader* header = (RF24Network
                            Header*)rn.frame_buffer;
00010C 0E??           01773         MOVLW   LOW(_rn + 7)
Message[1301]: Using default destination of 0 (Access Bank).
00010E 6E??           01774         MOVWF   r0x05
000110 0E??           01775         MOVLW   HIGH(_rn + 7)
Message[1301]: Using default destination of 0 (Access Bank).
000112 6E??           01776         MOVWF   r0x06
000114 50??           01777         MOVF    r0x06, W
Message[1301]: Using default destination of 0 (Access Bank).
000116 6E??           01778         MOVWF   r0x06
000118 50??           01779         MOVF    r0x05, W
Message[1301]: Using default destination of 0 (Access Bank).
00011A 6E??           01780         MOVWF   r0x05
00011C 0E80           01781         MOVLW   0x80
Message[1301]: Using default destination of 0 (Access Bank).
00011E 6E??           01782         MOVWF   r0x07
                      01783 ;       .line   1025; ../../../RF24Network_c/RF24Network_cg.c   header->type = NETWORK_ACK;             
                                                // Set the payload type to NETWORK_ACK                      
000120 50??           01784         MOVF    r0x05, W
000122 0F06           01785         ADDLW   0x06
Message[1301]: Using default destination of 0 (Access Bank).
000124 6E??           01786         MOVWF   r0x08
000126 0E00           01787         MOVLW   0x00
000128 20??           01788         ADDWFC  r0x06, W
Message[1301]: Using default destination of 0 (Access Bank).
00012A 6E??           01789         MOVWF   r0x09
00012C 0E00           01790         MOVLW   0x00
00012E 20??           01791         ADDWFC  r0x07, W
Message[1301]: Using default destination of 0 (Access Bank).
000130 6E??           01792         MOVWF   r0x0a
000132 0EC1           01793         MOVLW   0xc1
Message[1301]: Using default destination of 0 (Access Bank).
000134 6EE5           01794         MOVWF   POSTDEC1
000136 C??? F???      01795         MOVFF   r0x08, FSR0L
00013A C??? F???      01796         MOVFF   r0x09, PRODL
gpasm-1.4.0 #1107 (May  9 2015) build/sdcc/pr   12-2-2016  22:31:29         PAGE 39


LOC    OBJECT CODE    LINE  SOURCE TEXT
  VALUE

00013E 50??           01797         MOVF    r0x0a, W
000140 EC?? F0??      01798         CALL    __gptrput1
                      01799 ;       .line   1026; ../../../RF24Network_c/RF24Network_cg.c   header->to_node = header->from_node;    
                                  // Change the 'to' address to the 'from' address                  
000144 50??           01800         MOVF    r0x05, W
000146 0F02           01801         ADDLW   0x02
Message[1301]: Using default destination of 0 (Access Bank).
000148 6E??           01802         MOVWF   r0x08
00014A 0E00           01803         MOVLW   0x00
00014C 20??           01804         ADDWFC  r0x06, W
Message[1301]: Using default destination of 0 (Access Bank).
00014E 6E??           01805         MOVWF   r0x09
000150 0E00           01806         MOVLW   0x00
000152 20??           01807         ADDWFC  r0x07, W
Message[1301]: Using default destination of 0 (Access Bank).
000154 6E??           01808         MOVWF   r0x0a
000156 C??? F???      01809         MOVFF   r0x05, FSR0L
00015A C??? F???      01810         MOVFF   r0x06, PRODL
00015E 50??           01811         MOVF    r0x07, W
000160 EC?? F0??      01812         CALL    __gptrget2
Message[1301]: Using default destination of 0 (Access Bank).
000164 6E??           01813         MOVWF   r0x0b
000166 CFF3 F000      01814         MOVFF   PRODL, r0x0c
00016A C??? F???      01815         MOVFF   r0x0b, POSTDEC1
00016E C??? F???      01816         MOVFF   r0x0c, PRODH
000172 C??? F???      01817         MOVFF   r0x08, FSR0L
000176 C??? F???      01818         MOVFF   r0x09, PRODL
00017A 50??           01819         MOVF    r0x0a, W
00017C EC?? F0??      01820         CALL    __gptrput2
                      01821 ;       .line   1028; ../../../RF24Network_c/RF24Network_cg.c   conversion.send_node = header->from_node
                            ;
000180 C??? F???      01822         MOVFF   r0x05, FSR0L
000184 C??? F???      01823         MOVFF   r0x06, PRODL
000188 50??           01824         MOVF    r0x07, W
00018A EC?? F0??      01825         CALL    __gptrget2
Message[1301]: Using default destination of 0 (Access Bank).
00018E 6E??           01826         MOVWF   r0x05
000190 CFF3 F000      01827         MOVFF   PRODL, r0x06
000194 50??           01828         MOVF    r0x05, W
000196 ????           01829         BANKSEL _RF24N_write_conversion_1_268
000198 6F??           01830         MOVWF   _RF24N_write_conversion_1_268, B
00019A 50??           01831         MOVF    r0x06, W
00019C ????           01832         BANKSEL (_RF24N_write_conversion_1_268 + 1)
00019E 6F??           01833         MOVWF   (_RF24N_write_conversion_1_268 + 1), B
                      01834 ;       .line   1029; ../../../RF24Network_c/RF24Network_cg.c   conversion.send_pipe = TX_ROUTED;
0001A0 0E01           01835         MOVLW   0x01
0001A2 ????           01836         BANKSEL (_RF24N_write_conversion_1_268 + 2)
0001A4 6F??           01837         MOVWF   (_RF24N_write_conversion_1_268 + 2), B
0001A6 ????           01838         BANKSEL (_RF24N_write_conversion_1_268 + 3)
                      01839 ;       .line   1030; ../../../RF24Network_c/RF24Network_cg.c   conversion.multicast = 0;
0001A8 6B??           01840         CLRF    (_RF24N_write_conversion_1_268 + 3), B
                      01841 ;       .line   1031; ../../../RF24Network_c/RF24Network_cg.c   RF24N_logicalToPhysicalAddress(&conversi
                            on);
gpasm-1.4.0 #1107 (May  9 2015) build/sdcc/pr   12-2-2016  22:31:29         PAGE 40


LOC    OBJECT CODE    LINE  SOURCE TEXT
  VALUE

0001AA 0E??           01842         MOVLW   HIGH(_RF24N_write_conversion_1_268)
Message[1301]: Using default destination of 0 (Access Bank).
0001AC 6E??           01843         MOVWF   r0x06
0001AE 0E??           01844         MOVLW   LOW(_RF24N_write_conversion_1_268)
Message[1301]: Using default destination of 0 (Access Bank).
0001B0 6E??           01845         MOVWF   r0x05
0001B2 0E80           01846         MOVLW   0x80
Message[1301]: Using default destination of 0 (Access Bank).
0001B4 6E??           01847         MOVWF   r0x07
0001B6 50??           01848         MOVF    r0x07, W
Message[1301]: Using default destination of 0 (Access Bank).
0001B8 6EE5           01849         MOVWF   POSTDEC1
0001BA 50??           01850         MOVF    r0x06, W
Message[1301]: Using default destination of 0 (Access Bank).
0001BC 6EE5           01851         MOVWF   POSTDEC1
0001BE 50??           01852         MOVF    r0x05, W
Message[1301]: Using default destination of 0 (Access Bank).
0001C0 6EE5           01853         MOVWF   POSTDEC1
0001C2 EC?? F0??      01854         CALL    _RF24N_logicalToPhysicalAddress
0001C6 0E03           01855         MOVLW   0x03
0001C8 26E1           01856         ADDWF   FSR1L, F
0001CA B0D8           01857         BTFSC   STATUS, 0
0001CC 2AE2           01858         INCF    FSR1H, F
                      01859 ;       .line   1034; ../../../RF24Network_c/RF24Network_cg.c   rn.frame_size = sizeof(RF24NetworkHeader
                            );
0001CE 0E08           01860         MOVLW   0x08
0001D0 ????           01861         BANKSEL (_rn + 51)
0001D2 6F??           01862         MOVWF   (_rn + 51), B
0001D4 ????           01863         BANKSEL (_RF24N_write_conversion_1_268 + 3)
                      01864 ;       .line   1035; ../../../RF24Network_c/RF24Network_cg.c   RF24N_write_to_pipe(conversion.send_node
                            , conversion.send_pipe, conversion.multicast);
0001D6 51??           01865         MOVF    (_RF24N_write_conversion_1_268 + 3), W, B
Message[1301]: Using default destination of 0 (Access Bank).
0001D8 6EE5           01866         MOVWF   POSTDEC1
0001DA ????           01867         BANKSEL (_RF24N_write_conversion_1_268 + 2)
0001DC 51??           01868         MOVF    (_RF24N_write_conversion_1_268 + 2), W, B
Message[1301]: Using default destination of 0 (Access Bank).
0001DE 6EE5           01869         MOVWF   POSTDEC1
0001E0 ????           01870         BANKSEL (_RF24N_write_conversion_1_268 + 1)
0001E2 51??           01871         MOVF    (_RF24N_write_conversion_1_268 + 1), W, B
Message[1301]: Using default destination of 0 (Access Bank).
0001E4 6EE5           01872         MOVWF   POSTDEC1
0001E6 ????           01873         BANKSEL _RF24N_write_conversion_1_268
0001E8 51??           01874         MOVF    _RF24N_write_conversion_1_268, W, B
Message[1301]: Using default destination of 0 (Access Bank).
0001EA 6EE5           01875         MOVWF   POSTDEC1
0001EC EC?? F0??      01876         CALL    _RF24N_write_to_pipe
0001F0 0E04           01877         MOVLW   0x04
0001F2 26E1           01878         ADDWF   FSR1L, F
0001F4 B0D8           01879         BTFSC   STATUS, 0
0001F6 2AE2           01880         INCF    FSR1H, F
0001F8                01881 _00691_DS_:
                      01882 ;       .line   1047; ../../../RF24Network_c/RF24Network_cg.c   if( ok && conversion.send_node != to_nod
gpasm-1.4.0 #1107 (May  9 2015) build/sdcc/pr   12-2-2016  22:31:29         PAGE 41


LOC    OBJECT CODE    LINE  SOURCE TEXT
  VALUE

                            e && (directTo==0 || directTo==3) && isAckType){
0001F8 50??           01883         MOVF    r0x04, W
0001FA B4D8           01884         BTFSC   STATUS, 2
0001FC D???           01885         BRA     _00703_DS_
0001FE ????           01886         BANKSEL _RF24N_write_conversion_1_268
000200 51??           01887         MOVF    _RF24N_write_conversion_1_268, W, B
000202 18??           01888         XORWF   r0x00, W
000204 E1??           01889         BNZ     _00767_DS_
000206 ????           01890         BANKSEL (_RF24N_write_conversion_1_268 + 1)
000208 51??           01891         MOVF    (_RF24N_write_conversion_1_268 + 1), W, B
00020A 18??           01892         XORWF   r0x01, W
00020C E1??           01893         BNZ     _00767_DS_
00020E D???           01894         BRA     _00703_DS_
000210                01895 _00767_DS_:
000210 50??           01896         MOVF    r0x02, W
000212 E0??           01897         BZ      _00707_DS_
000214 50??           01898         MOVF    r0x02, W
000216 0A03           01899         XORLW   0x03
000218 E0??           01900         BZ      _00707_DS_
00021A D???           01901         BRA     _00703_DS_
00021C                01902 _00707_DS_:
00021C 50??           01903         MOVF    r0x03, W
00021E B4D8           01904         BTFSC   STATUS, 2
000220 D???           01905         BRA     _00703_DS_
000222 ????           01906         BANKSEL (_rn + 43)
                      01907 ;       .line   1050; ../../../RF24Network_c/RF24Network_cg.c   if(rn.networkFlags & FLAG_FAST_FRAG){
000224 A4??           01908         BTFSS   (_rn + 43), 2
000226 D???           01909         BRA     _00696_DS_
                      01910 ;       .line   1051; ../../../RF24Network_c/RF24Network_cg.c   RF24_txStandBy_t(rn.txTimeout,0);
000228 0E00           01911         MOVLW   0x00
Message[1301]: Using default destination of 0 (Access Bank).
00022A 6EE5           01912         MOVWF   POSTDEC1
00022C ????           01913         BANKSEL (_rn + 4)
00022E 51??           01914         MOVF    (_rn + 4), W, B
Message[1301]: Using default destination of 0 (Access Bank).
000230 6EE5           01915         MOVWF   POSTDEC1
000232 ????           01916         BANKSEL (_rn + 3)
000234 51??           01917         MOVF    (_rn + 3), W, B
Message[1301]: Using default destination of 0 (Access Bank).
000236 6EE5           01918         MOVWF   POSTDEC1
000238 ????           01919         BANKSEL (_rn + 2)
00023A 51??           01920         MOVF    (_rn + 2), W, B
Message[1301]: Using default destination of 0 (Access Bank).
00023C 6EE5           01921         MOVWF   POSTDEC1
00023E ????           01922         BANKSEL (_rn + 1)
000240 51??           01923         MOVF    (_rn + 1), W, B
Message[1301]: Using default destination of 0 (Access Bank).
000242 6EE5           01924         MOVWF   POSTDEC1
000244 EC?? F0??      01925         CALL    _RF24_txStandBy_t
000248 0E05           01926         MOVLW   0x05
00024A 26E1           01927         ADDWF   FSR1L, F
00024C B0D8           01928         BTFSC   STATUS, 0
00024E 2AE2           01929         INCF    FSR1H, F
gpasm-1.4.0 #1107 (May  9 2015) build/sdcc/pr   12-2-2016  22:31:29         PAGE 42


LOC    OBJECT CODE    LINE  SOURCE TEXT
  VALUE

                      01930 ;       .line   1052; ../../../RF24Network_c/RF24Network_cg.c   rn.networkFlags &= ~FLAG_FAST_FRAG;
000250 0EFB           01931         MOVLW   0xfb
000252 ????           01932         BANKSEL (_rn + 43)
000254 15??           01933         ANDWF   (_rn + 43), W, B
Message[1301]: Using default destination of 0 (Access Bank).
000256 6E??           01934         MOVWF   r0x00
000258 50??           01935         MOVF    r0x00, W
00025A ????           01936         BANKSEL (_rn + 43)
00025C 6F??           01937         MOVWF   (_rn + 43), B
                      01938 ;       .line   1053; ../../../RF24Network_c/RF24Network_cg.c   RF24_setAutoAck_p(0,0); 
00025E 0E00           01939         MOVLW   0x00
Message[1301]: Using default destination of 0 (Access Bank).
000260 6EE5           01940         MOVWF   POSTDEC1
000262 0E00           01941         MOVLW   0x00
Message[1301]: Using default destination of 0 (Access Bank).
000264 6EE5           01942         MOVWF   POSTDEC1
000266 EC?? F0??      01943         CALL    _RF24_setAutoAck_p
00026A 52E6           01944         MOVF    POSTINC1, F
00026C 52E6           01945         MOVF    POSTINC1, F
00026E                01946 _00696_DS_:
                      01947 ;       .line   1055; ../../../RF24Network_c/RF24Network_cg.c   RF24_startListening();
00026E EC?? F0??      01948         CALL    _RF24_startListening
                      01949 ;       .line   1057; ../../../RF24Network_c/RF24Network_cg.c   reply_time = millis(); 
000272 EC?? F0??      01950         CALL    _millis
Message[1301]: Using default destination of 0 (Access Bank).
000276 6E??           01951         MOVWF   r0x00
000278 CFF3 F000      01952         MOVFF   PRODL, r0x01
00027C CFF4 F000      01953         MOVFF   PRODH, r0x02
000280 CFE9 F000      01954         MOVFF   FSR0L, r0x03
000284                01955 _00699_DS_:
                      01956 ;       .line   1059; ../../../RF24Network_c/RF24Network_cg.c   while( RF24N_update() != NETWORK_ACK){
000284 EC?? F0??      01957         CALL    _RF24N_update
Message[1301]: Using default destination of 0 (Access Bank).
000288 6E??           01958         MOVWF   r0x05
00028A 50??           01959         MOVF    r0x05, W
00028C 0AC1           01960         XORLW   0xc1
00028E E0??           01961         BZ      _00703_DS_
                      01962 ;       .line   1063; ../../../RF24Network_c/RF24Network_cg.c   if(millis() - reply_time > rn.routeTimeo
                            ut){
000290 EC?? F0??      01963         CALL    _millis
Message[1301]: Using default destination of 0 (Access Bank).
000294 6E??           01964         MOVWF   r0x05
000296 CFF3 F000      01965         MOVFF   PRODL, r0x06
00029A CFF4 F000      01966         MOVFF   PRODH, r0x07
00029E CFE9 F000      01967         MOVFF   FSR0L, r0x08
0002A2 50??           01968         MOVF    r0x00, W
0002A4 5E??           01969         SUBWF   r0x05, F
0002A6 50??           01970         MOVF    r0x01, W
0002A8 5A??           01971         SUBWFB  r0x06, F
0002AA 50??           01972         MOVF    r0x02, W
0002AC 5A??           01973         SUBWFB  r0x07, F
0002AE 50??           01974         MOVF    r0x03, W
0002B0 5A??           01975         SUBWFB  r0x08, F
gpasm-1.4.0 #1107 (May  9 2015) build/sdcc/pr   12-2-2016  22:31:29         PAGE 43


LOC    OBJECT CODE    LINE  SOURCE TEXT
  VALUE

0002B2 C??? F???      01976         MOVFF   (_rn + 5), r0x09
0002B6 C??? F???      01977         MOVFF   (_rn + 6), r0x0a
Message[1301]: Using default destination of 0 (Access Bank).
0002BA 6A??           01978         CLRF    r0x0b
Message[1301]: Using default destination of 0 (Access Bank).
0002BC 6A??           01979         CLRF    r0x0c
0002BE 50??           01980         MOVF    r0x08, W
0002C0 5C??           01981         SUBWF   r0x0c, W
0002C2 E1??           01982         BNZ     _00774_DS_
0002C4 50??           01983         MOVF    r0x07, W
0002C6 5C??           01984         SUBWF   r0x0b, W
0002C8 E1??           01985         BNZ     _00774_DS_
0002CA 50??           01986         MOVF    r0x06, W
0002CC 5C??           01987         SUBWF   r0x0a, W
0002CE E1??           01988         BNZ     _00774_DS_
0002D0 50??           01989         MOVF    r0x05, W
0002D2 5C??           01990         SUBWF   r0x09, W
0002D4                01991 _00774_DS_:
0002D4 E2??           01992         BC      _00699_DS_
                      01993 ;       .line   1069; ../../../RF24Network_c/RF24Network_cg.c   ok=0;
Message[1301]: Using default destination of 0 (Access Bank).
0002D6 6A??           01994         CLRF    r0x04
0002D8                01995 _00703_DS_:
0002D8 ????           01996         BANKSEL (_rn + 43)
                      01997 ;       .line   1074; ../../../RF24Network_c/RF24Network_cg.c   if( !(rn.networkFlags & FLAG_FAST_FRAG) 
                            ){
0002DA B4??           01998         BTFSC   (_rn + 43), 2
0002DC D???           01999         BRA     _00709_DS_
                      02000 ;       .line   1077; ../../../RF24Network_c/RF24Network_cg.c   RF24_startListening();
0002DE EC?? F0??      02001         CALL    _RF24_startListening
0002E2                02002 _00709_DS_:
                      02003 ;       .line   1087; ../../../RF24Network_c/RF24Network_cg.c   return ok;
0002E2 50??           02004         MOVF    r0x04, W
0002E4                02005 _00710_DS_:
0002E4 CFE4 F000      02006         MOVFF   PREINC1, r0x0c
0002E8 CFE4 F000      02007         MOVFF   PREINC1, r0x0b
0002EC CFE4 F000      02008         MOVFF   PREINC1, r0x0a
0002F0 CFE4 F000      02009         MOVFF   PREINC1, r0x09
0002F4 CFE4 F000      02010         MOVFF   PREINC1, r0x08
0002F8 CFE4 F000      02011         MOVFF   PREINC1, r0x07
0002FC CFE4 F000      02012         MOVFF   PREINC1, r0x06
000300 CFE4 F000      02013         MOVFF   PREINC1, r0x05
000304 CFE4 F000      02014         MOVFF   PREINC1, r0x04
000308 CFE4 F000      02015         MOVFF   PREINC1, r0x03
00030C CFE4 F000      02016         MOVFF   PREINC1, r0x02
000310 CFE4 F000      02017         MOVFF   PREINC1, r0x01
000314 CFE4 F000      02018         MOVFF   PREINC1, r0x00
000318 CFE4 FFD9      02019         MOVFF   PREINC1, FSR2L
00031C CFE4 FFDA      02020         MOVFF   PREINC1, FSR2H
000320 0012           02021         RETURN  
                      02022 
                      02023 ; ; Starting pCode block
                      02024 S_RF24Network_cg__RF24N__write  code
gpasm-1.4.0 #1107 (May  9 2015) build/sdcc/pr   12-2-2016  22:31:29         PAGE 44


LOC    OBJECT CODE    LINE  SOURCE TEXT
  VALUE

000000                02025 _RF24N__write:
                      02026 ;       .line   925; ../../../RF24Network_c/RF24Network_cg.c    uint8_t RF24N__write(RF24NetworkHeader *
                             header,const void* message, uint16_t len, uint16_t writeDirect)
000000 CFDA FFE5      02027         MOVFF   FSR2H, POSTDEC1
000004 CFD9 FFE5      02028         MOVFF   FSR2L, POSTDEC1
000008 CFE2 FFDA      02029         MOVFF   FSR1H, FSR2H
00000C CFE1 FFD9      02030         MOVFF   FSR1L, FSR2L
000010 C??? F???      02031         MOVFF   r0x00, POSTDEC1
000014 C??? F???      02032         MOVFF   r0x01, POSTDEC1
000018 C??? F???      02033         MOVFF   r0x02, POSTDEC1
00001C C??? F???      02034         MOVFF   r0x03, POSTDEC1
000020 C??? F???      02035         MOVFF   r0x04, POSTDEC1
000024 C??? F???      02036         MOVFF   r0x05, POSTDEC1
000028 C??? F???      02037         MOVFF   r0x06, POSTDEC1
00002C C??? F???      02038         MOVFF   r0x07, POSTDEC1
000030 C??? F???      02039         MOVFF   r0x08, POSTDEC1
000034 C??? F???      02040         MOVFF   r0x09, POSTDEC1
000038 C??? F???      02041         MOVFF   r0x0a, POSTDEC1
00003C C??? F???      02042         MOVFF   r0x0b, POSTDEC1
000040 C??? F???      02043         MOVFF   r0x0c, POSTDEC1
000044 C??? F???      02044         MOVFF   r0x0d, POSTDEC1
000048 C??? F???      02045         MOVFF   r0x0e, POSTDEC1
00004C C??? F???      02046         MOVFF   r0x0f, POSTDEC1
000050 0E03           02047         MOVLW   0x03
000052 CFDB F000      02048         MOVFF   PLUSW2, r0x00
000056 0E04           02049         MOVLW   0x04
000058 CFDB F000      02050         MOVFF   PLUSW2, r0x01
00005C 0E05           02051         MOVLW   0x05
00005E CFDB F000      02052         MOVFF   PLUSW2, r0x02
000062 0E06           02053         MOVLW   0x06
000064 CFDB F000      02054         MOVFF   PLUSW2, r0x03
000068 0E07           02055         MOVLW   0x07
00006A CFDB F000      02056         MOVFF   PLUSW2, r0x04
00006E 0E08           02057         MOVLW   0x08
000070 CFDB F000      02058         MOVFF   PLUSW2, r0x05
000074 0E09           02059         MOVLW   0x09
000076 CFDB F000      02060         MOVFF   PLUSW2, r0x06
00007A 0E0A           02061         MOVLW   0x0a
00007C CFDB F000      02062         MOVFF   PLUSW2, r0x07
000080 0E0B           02063         MOVLW   0x0b
000082 CFDB F000      02064         MOVFF   PLUSW2, r0x08
000086 0E0C           02065         MOVLW   0x0c
000088 CFDB F000      02066         MOVFF   PLUSW2, r0x09
                      02067 ;       .line   928; ../../../RF24Network_c/RF24Network_cg.c    header->from_node = rn.node_address;
00008C C??? F???      02068         MOVFF   (_rn + 49), r0x0a
000090 C??? F???      02069         MOVFF   (_rn + 50), r0x0b
000094 C??? F???      02070         MOVFF   r0x0a, POSTDEC1
000098 C??? F???      02071         MOVFF   r0x0b, PRODH
00009C C??? F???      02072         MOVFF   r0x00, FSR0L
0000A0 C??? F???      02073         MOVFF   r0x01, PRODL
0000A4 50??           02074         MOVF    r0x02, W
0000A6 EC?? F0??      02075         CALL    __gptrput2
                      02076 ;       .line   931; ../../../RF24Network_c/RF24Network_cg.c    memcpy(rn.frame_buffer,header,sizeof(RF2
gpasm-1.4.0 #1107 (May  9 2015) build/sdcc/pr   12-2-2016  22:31:29         PAGE 45


LOC    OBJECT CODE    LINE  SOURCE TEXT
  VALUE

                            4NetworkHeader));
0000AA 0E??           02077         MOVLW   HIGH(_rn + 7)
Message[1301]: Using default destination of 0 (Access Bank).
0000AC 6E??           02078         MOVWF   r0x0b
0000AE 0E??           02079         MOVLW   LOW(_rn + 7)
Message[1301]: Using default destination of 0 (Access Bank).
0000B0 6E??           02080         MOVWF   r0x0a
0000B2 0E80           02081         MOVLW   0x80
Message[1301]: Using default destination of 0 (Access Bank).
0000B4 6E??           02082         MOVWF   r0x0c
0000B6 50??           02083         MOVF    r0x02, W
Message[1301]: Using default destination of 0 (Access Bank).
0000B8 6E??           02084         MOVWF   r0x0f
0000BA 50??           02085         MOVF    r0x01, W
Message[1301]: Using default destination of 0 (Access Bank).
0000BC 6E??           02086         MOVWF   r0x0e
0000BE 50??           02087         MOVF    r0x00, W
Message[1301]: Using default destination of 0 (Access Bank).
0000C0 6E??           02088         MOVWF   r0x0d
0000C2 0E00           02089         MOVLW   0x00
Message[1301]: Using default destination of 0 (Access Bank).
0000C4 6EE5           02090         MOVWF   POSTDEC1
0000C6 0E08           02091         MOVLW   0x08
Message[1301]: Using default destination of 0 (Access Bank).
0000C8 6EE5           02092         MOVWF   POSTDEC1
0000CA 50??           02093         MOVF    r0x0f, W
Message[1301]: Using default destination of 0 (Access Bank).
0000CC 6EE5           02094         MOVWF   POSTDEC1
0000CE 50??           02095         MOVF    r0x0e, W
Message[1301]: Using default destination of 0 (Access Bank).
0000D0 6EE5           02096         MOVWF   POSTDEC1
0000D2 50??           02097         MOVF    r0x0d, W
Message[1301]: Using default destination of 0 (Access Bank).
0000D4 6EE5           02098         MOVWF   POSTDEC1
0000D6 50??           02099         MOVF    r0x0c, W
Message[1301]: Using default destination of 0 (Access Bank).
0000D8 6EE5           02100         MOVWF   POSTDEC1
0000DA 50??           02101         MOVF    r0x0b, W
Message[1301]: Using default destination of 0 (Access Bank).
0000DC 6EE5           02102         MOVWF   POSTDEC1
0000DE 50??           02103         MOVF    r0x0a, W
Message[1301]: Using default destination of 0 (Access Bank).
0000E0 6EE5           02104         MOVWF   POSTDEC1
0000E2 EC?? F0??      02105         CALL    _memcpy
0000E6 0E08           02106         MOVLW   0x08
0000E8 26E1           02107         ADDWF   FSR1L, F
0000EA B0D8           02108         BTFSC   STATUS, 0
0000EC 2AE2           02109         INCF    FSR1H, F
                      02110 ;       .line   938; ../../../RF24Network_c/RF24Network_cg.c    if (len){
0000EE 50??           02111         MOVF    r0x06, W
0000F0 10??           02112         IORWF   r0x07, W
0000F2 E0??           02113         BZ      _00654_DS_
                      02114 ;       .line   945; ../../../RF24Network_c/RF24Network_cg.c    memcpy(rn.frame_buffer + sizeof(RF24Netw
gpasm-1.4.0 #1107 (May  9 2015) build/sdcc/pr   12-2-2016  22:31:29         PAGE 46


LOC    OBJECT CODE    LINE  SOURCE TEXT
  VALUE

                            orkHeader),message,len);
0000F4 0E??           02115         MOVLW   HIGH(_rn + 15)
Message[1301]: Using default destination of 0 (Access Bank).
0000F6 6E??           02116         MOVWF   r0x0b
0000F8 0E??           02117         MOVLW   LOW(_rn + 15)
Message[1301]: Using default destination of 0 (Access Bank).
0000FA 6E??           02118         MOVWF   r0x0a
0000FC 0E80           02119         MOVLW   0x80
Message[1301]: Using default destination of 0 (Access Bank).
0000FE 6E??           02120         MOVWF   r0x0c
000100 50??           02121         MOVF    r0x07, W
Message[1301]: Using default destination of 0 (Access Bank).
000102 6EE5           02122         MOVWF   POSTDEC1
000104 50??           02123         MOVF    r0x06, W
Message[1301]: Using default destination of 0 (Access Bank).
000106 6EE5           02124         MOVWF   POSTDEC1
000108 50??           02125         MOVF    r0x05, W
Message[1301]: Using default destination of 0 (Access Bank).
00010A 6EE5           02126         MOVWF   POSTDEC1
00010C 50??           02127         MOVF    r0x04, W
Message[1301]: Using default destination of 0 (Access Bank).
00010E 6EE5           02128         MOVWF   POSTDEC1
000110 50??           02129         MOVF    r0x03, W
Message[1301]: Using default destination of 0 (Access Bank).
000112 6EE5           02130         MOVWF   POSTDEC1
000114 50??           02131         MOVF    r0x0c, W
Message[1301]: Using default destination of 0 (Access Bank).
000116 6EE5           02132         MOVWF   POSTDEC1
000118 50??           02133         MOVF    r0x0b, W
Message[1301]: Using default destination of 0 (Access Bank).
00011A 6EE5           02134         MOVWF   POSTDEC1
00011C 50??           02135         MOVF    r0x0a, W
Message[1301]: Using default destination of 0 (Access Bank).
00011E 6EE5           02136         MOVWF   POSTDEC1
000120 EC?? F0??      02137         CALL    _memcpy
000124 0E08           02138         MOVLW   0x08
000126 26E1           02139         ADDWF   FSR1L, F
000128 B0D8           02140         BTFSC   STATUS, 0
00012A 2AE2           02141         INCF    FSR1H, F
00012C                02142 _00654_DS_:
                      02143 ;       .line   964; ../../../RF24Network_c/RF24Network_cg.c    if(writeDirect != 070){         
00012C 50??           02144         MOVF    r0x08, W
00012E 0A38           02145         XORLW   0x38
000130 E1??           02146         BNZ     _00676_DS_
000132 50??           02147         MOVF    r0x09, W
000134 E0??           02148         BZ      _00660_DS_
000136                02149 _00676_DS_:
                      02150 ;       .line   965; ../../../RF24Network_c/RF24Network_cg.c    uint8_t sendType = USER_TX_TO_LOGICAL_AD
                            DRESS; // Payload is multicast to the first node, and routed normally to the next
000136 0E03           02151         MOVLW   0x03
Message[1301]: Using default destination of 0 (Access Bank).
000138 6E??           02152         MOVWF   r0x03
                      02153 ;       .line   967; ../../../RF24Network_c/RF24Network_cg.c    if(header->to_node == 0100){
gpasm-1.4.0 #1107 (May  9 2015) build/sdcc/pr   12-2-2016  22:31:29         PAGE 47


LOC    OBJECT CODE    LINE  SOURCE TEXT
  VALUE

00013A 50??           02154         MOVF    r0x00, W
00013C 0F02           02155         ADDLW   0x02
Message[1301]: Using default destination of 0 (Access Bank).
00013E 6E??           02156         MOVWF   r0x04
000140 0E00           02157         MOVLW   0x00
000142 20??           02158         ADDWFC  r0x01, W
Message[1301]: Using default destination of 0 (Access Bank).
000144 6E??           02159         MOVWF   r0x05
000146 0E00           02160         MOVLW   0x00
000148 20??           02161         ADDWFC  r0x02, W
Message[1301]: Using default destination of 0 (Access Bank).
00014A 6E??           02162         MOVWF   r0x06
00014C C??? F???      02163         MOVFF   r0x04, FSR0L
000150 C??? F???      02164         MOVFF   r0x05, PRODL
000154 50??           02165         MOVF    r0x06, W
000156 EC?? F0??      02166         CALL    __gptrget2
Message[1301]: Using default destination of 0 (Access Bank).
00015A 6E??           02167         MOVWF   r0x04
00015C CFF3 F000      02168         MOVFF   PRODL, r0x05
000160 50??           02169         MOVF    r0x04, W
000162 0A40           02170         XORLW   0x40
000164 E1??           02171         BNZ     _00677_DS_
000166 50??           02172         MOVF    r0x05, W
000168 E0??           02173         BZ      _00678_DS_
00016A                02174 _00677_DS_:
00016A D???           02175         BRA     _00656_DS_
00016C                02176 _00678_DS_:
                      02177 ;       .line   968; ../../../RF24Network_c/RF24Network_cg.c    sendType = USER_TX_MULTICAST;
00016C 0E04           02178         MOVLW   0x04
Message[1301]: Using default destination of 0 (Access Bank).
00016E 6E??           02179         MOVWF   r0x03
000170                02180 _00656_DS_:
                      02181 ;       .line   970; ../../../RF24Network_c/RF24Network_cg.c    if(header->to_node == writeDirect){
000170 50??           02182         MOVF    r0x04, W
000172 18??           02183         XORWF   r0x08, W
000174 E1??           02184         BNZ     _00679_DS_
000176 50??           02185         MOVF    r0x05, W
000178 18??           02186         XORWF   r0x09, W
00017A E0??           02187         BZ      _00680_DS_
00017C                02188 _00679_DS_:
00017C D???           02189         BRA     _00658_DS_
00017E                02190 _00680_DS_:
                      02191 ;       .line   971; ../../../RF24Network_c/RF24Network_cg.c    sendType = USER_TX_TO_PHYSICAL_ADDRESS; 
                            // Payload is multicast to the first node, which is the recipient
00017E 0E02           02192         MOVLW   0x02
Message[1301]: Using default destination of 0 (Access Bank).
000180 6E??           02193         MOVWF   r0x03
000182                02194 _00658_DS_:
                      02195 ;       .line   973; ../../../RF24Network_c/RF24Network_cg.c    return RF24N_write(writeDirect,sendType)
                            ;                               
000182 50??           02196         MOVF    r0x03, W
Message[1301]: Using default destination of 0 (Access Bank).
000184 6EE5           02197         MOVWF   POSTDEC1
gpasm-1.4.0 #1107 (May  9 2015) build/sdcc/pr   12-2-2016  22:31:29         PAGE 48


LOC    OBJECT CODE    LINE  SOURCE TEXT
  VALUE

000186 50??           02198         MOVF    r0x09, W
Message[1301]: Using default destination of 0 (Access Bank).
000188 6EE5           02199         MOVWF   POSTDEC1
00018A 50??           02200         MOVF    r0x08, W
Message[1301]: Using default destination of 0 (Access Bank).
00018C 6EE5           02201         MOVWF   POSTDEC1
00018E EC?? F0??      02202         CALL    _RF24N_write
Message[1301]: Using default destination of 0 (Access Bank).
000192 6E??           02203         MOVWF   r0x03
000194 0E03           02204         MOVLW   0x03
000196 26E1           02205         ADDWF   FSR1L, F
000198 B0D8           02206         BTFSC   STATUS, 0
00019A 2AE2           02207         INCF    FSR1H, F
00019C 50??           02208         MOVF    r0x03, W
00019E D???           02209         BRA     _00661_DS_
0001A0                02210 _00660_DS_:
                      02211 ;       .line   975; ../../../RF24Network_c/RF24Network_cg.c    return RF24N_write(header->to_node,TX_NO
                            RMAL);
0001A0 0E02           02212         MOVLW   0x02
0001A2 26??           02213         ADDWF   r0x00, F
0001A4 0E00           02214         MOVLW   0x00
0001A6 22??           02215         ADDWFC  r0x01, F
0001A8 22??           02216         ADDWFC  r0x02, F
0001AA C??? F???      02217         MOVFF   r0x00, FSR0L
0001AE C??? F???      02218         MOVFF   r0x01, PRODL
0001B2 50??           02219         MOVF    r0x02, W
0001B4 EC?? F0??      02220         CALL    __gptrget2
Message[1301]: Using default destination of 0 (Access Bank).
0001B8 6E??           02221         MOVWF   r0x00
0001BA CFF3 F000      02222         MOVFF   PRODL, r0x01
0001BE 0E00           02223         MOVLW   0x00
Message[1301]: Using default destination of 0 (Access Bank).
0001C0 6EE5           02224         MOVWF   POSTDEC1
0001C2 50??           02225         MOVF    r0x01, W
Message[1301]: Using default destination of 0 (Access Bank).
0001C4 6EE5           02226         MOVWF   POSTDEC1
0001C6 50??           02227         MOVF    r0x00, W
Message[1301]: Using default destination of 0 (Access Bank).
0001C8 6EE5           02228         MOVWF   POSTDEC1
0001CA EC?? F0??      02229         CALL    _RF24N_write
Message[1301]: Using default destination of 0 (Access Bank).
0001CE 6E??           02230         MOVWF   r0x00
0001D0 0E03           02231         MOVLW   0x03
0001D2 26E1           02232         ADDWF   FSR1L, F
0001D4 B0D8           02233         BTFSC   STATUS, 0
0001D6 2AE2           02234         INCF    FSR1H, F
0001D8 50??           02235         MOVF    r0x00, W
0001DA                02236 _00661_DS_:
0001DA CFE4 F000      02237         MOVFF   PREINC1, r0x0f
0001DE CFE4 F000      02238         MOVFF   PREINC1, r0x0e
0001E2 CFE4 F000      02239         MOVFF   PREINC1, r0x0d
0001E6 CFE4 F000      02240         MOVFF   PREINC1, r0x0c
0001EA CFE4 F000      02241         MOVFF   PREINC1, r0x0b
gpasm-1.4.0 #1107 (May  9 2015) build/sdcc/pr   12-2-2016  22:31:29         PAGE 49


LOC    OBJECT CODE    LINE  SOURCE TEXT
  VALUE

0001EE CFE4 F000      02242         MOVFF   PREINC1, r0x0a
0001F2 CFE4 F000      02243         MOVFF   PREINC1, r0x09
0001F6 CFE4 F000      02244         MOVFF   PREINC1, r0x08
0001FA CFE4 F000      02245         MOVFF   PREINC1, r0x07
0001FE CFE4 F000      02246         MOVFF   PREINC1, r0x06
000202 CFE4 F000      02247         MOVFF   PREINC1, r0x05
000206 CFE4 F000      02248         MOVFF   PREINC1, r0x04
00020A CFE4 F000      02249         MOVFF   PREINC1, r0x03
00020E CFE4 F000      02250         MOVFF   PREINC1, r0x02
000212 CFE4 F000      02251         MOVFF   PREINC1, r0x01
000216 CFE4 F000      02252         MOVFF   PREINC1, r0x00
00021A CFE4 FFD9      02253         MOVFF   PREINC1, FSR2L
00021E CFE4 FFDA      02254         MOVFF   PREINC1, FSR2H
000222 0012           02255         RETURN  
                      02256 
                      02257 ; ; Starting pCode block
                      02258 S_RF24Network_cg__RF24N_write_  code
000000                02259 _RF24N_write_:
                      02260 ;       .line   795; ../../../RF24Network_c/RF24Network_cg.c    uint8_t RF24N_write_( RF24NetworkHeader*
                             header,const void* message, uint16_t len, uint16_t writeDirect){
000000 CFDA FFE5      02261         MOVFF   FSR2H, POSTDEC1
000004 CFD9 FFE5      02262         MOVFF   FSR2L, POSTDEC1
000008 CFE2 FFDA      02263         MOVFF   FSR1H, FSR2H
00000C CFE1 FFD9      02264         MOVFF   FSR1L, FSR2L
000010 C??? F???      02265         MOVFF   r0x00, POSTDEC1
000014 C??? F???      02266         MOVFF   r0x01, POSTDEC1
000018 C??? F???      02267         MOVFF   r0x02, POSTDEC1
00001C C??? F???      02268         MOVFF   r0x03, POSTDEC1
000020 C??? F???      02269         MOVFF   r0x04, POSTDEC1
000024 C??? F???      02270         MOVFF   r0x05, POSTDEC1
000028 C??? F???      02271         MOVFF   r0x06, POSTDEC1
00002C C??? F???      02272         MOVFF   r0x07, POSTDEC1
000030 C??? F???      02273         MOVFF   r0x08, POSTDEC1
000034 C??? F???      02274         MOVFF   r0x09, POSTDEC1
000038 C??? F???      02275         MOVFF   r0x0a, POSTDEC1
00003C C??? F???      02276         MOVFF   r0x0b, POSTDEC1
000040 C??? F???      02277         MOVFF   r0x0c, POSTDEC1
000044 C??? F???      02278         MOVFF   r0x0d, POSTDEC1
000048 C??? F???      02279         MOVFF   r0x0e, POSTDEC1
00004C C??? F???      02280         MOVFF   r0x0f, POSTDEC1
000050 C??? F???      02281         MOVFF   r0x10, POSTDEC1
000054 C??? F???      02282         MOVFF   r0x11, POSTDEC1
000058 C??? F???      02283         MOVFF   r0x12, POSTDEC1
00005C C??? F???      02284         MOVFF   r0x13, POSTDEC1
000060 C??? F???      02285         MOVFF   r0x14, POSTDEC1
000064 C??? F???      02286         MOVFF   r0x15, POSTDEC1
000068 C??? F???      02287         MOVFF   r0x16, POSTDEC1
00006C C??? F???      02288         MOVFF   r0x17, POSTDEC1
000070 C??? F???      02289         MOVFF   r0x18, POSTDEC1
000074 C??? F???      02290         MOVFF   r0x19, POSTDEC1
000078 C??? F???      02291         MOVFF   r0x1a, POSTDEC1
00007C 0E03           02292         MOVLW   0x03
00007E CFDB F000      02293         MOVFF   PLUSW2, r0x00
gpasm-1.4.0 #1107 (May  9 2015) build/sdcc/pr   12-2-2016  22:31:29         PAGE 50


LOC    OBJECT CODE    LINE  SOURCE TEXT
  VALUE

000082 0E04           02294         MOVLW   0x04
000084 CFDB F000      02295         MOVFF   PLUSW2, r0x01
000088 0E05           02296         MOVLW   0x05
00008A CFDB F000      02297         MOVFF   PLUSW2, r0x02
00008E 0E06           02298         MOVLW   0x06
000090 CFDB F000      02299         MOVFF   PLUSW2, r0x03
000094 0E07           02300         MOVLW   0x07
000096 CFDB F000      02301         MOVFF   PLUSW2, r0x04
00009A 0E08           02302         MOVLW   0x08
00009C CFDB F000      02303         MOVFF   PLUSW2, r0x05
0000A0 0E09           02304         MOVLW   0x09
0000A2 CFDB F000      02305         MOVFF   PLUSW2, r0x06
0000A6 0E0A           02306         MOVLW   0x0a
0000A8 CFDB F000      02307         MOVFF   PLUSW2, r0x07
0000AC 0E0B           02308         MOVLW   0x0b
0000AE CFDB F000      02309         MOVFF   PLUSW2, r0x08
0000B2 0E0C           02310         MOVLW   0x0c
0000B4 CFDB F000      02311         MOVFF   PLUSW2, r0x09
0000B8                02312 _00547_DS_:
                      02313 ;       .line   803; ../../../RF24Network_c/RF24Network_cg.c    while(millis()-rn.txTime < 25){ if(RF24N
                            _update() > 127){break;} }
0000B8 EC?? F0??      02314         CALL    _millis
Message[1301]: Using default destination of 0 (Access Bank).
0000BC 6E??           02315         MOVWF   r0x0a
0000BE CFF3 F000      02316         MOVFF   PRODL, r0x0b
0000C2 CFF4 F000      02317         MOVFF   PRODH, r0x0c
0000C6 CFE9 F000      02318         MOVFF   FSR0L, r0x0d
0000CA ????           02319         BANKSEL (_rn + 44)
0000CC 51??           02320         MOVF    (_rn + 44), W, B
0000CE 5E??           02321         SUBWF   r0x0a, F
0000D0 ????           02322         BANKSEL (_rn + 45)
0000D2 51??           02323         MOVF    (_rn + 45), W, B
0000D4 5A??           02324         SUBWFB  r0x0b, F
0000D6 ????           02325         BANKSEL (_rn + 46)
0000D8 51??           02326         MOVF    (_rn + 46), W, B
0000DA 5A??           02327         SUBWFB  r0x0c, F
0000DC ????           02328         BANKSEL (_rn + 47)
0000DE 51??           02329         MOVF    (_rn + 47), W, B
0000E0 5A??           02330         SUBWFB  r0x0d, F
0000E2 0E00           02331         MOVLW   0x00
0000E4 5C??           02332         SUBWF   r0x0d, W
0000E6 E1??           02333         BNZ     _00637_DS_
0000E8 0E00           02334         MOVLW   0x00
0000EA 5C??           02335         SUBWF   r0x0c, W
0000EC E1??           02336         BNZ     _00637_DS_
0000EE 0E00           02337         MOVLW   0x00
0000F0 5C??           02338         SUBWF   r0x0b, W
0000F2 E1??           02339         BNZ     _00637_DS_
0000F4 0E19           02340         MOVLW   0x19
0000F6 5C??           02341         SUBWF   r0x0a, W
0000F8                02342 _00637_DS_:
0000F8 E2??           02343         BC      _00549_DS_
0000FA EC?? F0??      02344         CALL    _RF24N_update
gpasm-1.4.0 #1107 (May  9 2015) build/sdcc/pr   12-2-2016  22:31:29         PAGE 51


LOC    OBJECT CODE    LINE  SOURCE TEXT
  VALUE

Message[1301]: Using default destination of 0 (Access Bank).
0000FE 6E??           02345         MOVWF   r0x0a
000100 0E80           02346         MOVLW   0x80
000102 5C??           02347         SUBWF   r0x0a, W
000104 E3??           02348         BNC     _00547_DS_
000106                02349 _00549_DS_:
                      02350 ;       .line   804; ../../../RF24Network_c/RF24Network_cg.c    delayMicroseconds(200);
000106 0EC8           02351         MOVLW   0xc8
Message[1301]: Using default destination of 0 (Access Bank).
000108 6EE5           02352         MOVWF   POSTDEC1
00010A EC?? F0??      02353         CALL    _delayMicroseconds
00010E 52E6           02354         MOVF    POSTINC1, F
                      02355 ;       .line   812; ../../../RF24Network_c/RF24Network_cg.c    if(len <= rn.max_frame_payload_size){
000110 C??? F???      02356         MOVFF   (_rn + 52), r0x0a
000114 C??? F???      02357         MOVFF   (_rn + 53), r0x0b
000118 50??           02358         MOVF    r0x07, W
00011A 5C??           02359         SUBWF   r0x0b, W
00011C E1??           02360         BNZ     _00639_DS_
00011E 50??           02361         MOVF    r0x06, W
000120 5C??           02362         SUBWF   r0x0a, W
000122                02363 _00639_DS_:
000122 A0D8           02364         BTFSS   STATUS, 0
000124 D???           02365         BRA     _00553_DS_
                      02366 ;       .line   814; ../../../RF24Network_c/RF24Network_cg.c    rn.frame_size = len + sizeof(RF24Network
                            Header);
000126 50??           02367         MOVF    r0x06, W
Message[1301]: Using default destination of 0 (Access Bank).
000128 6E??           02368         MOVWF   r0x0c
00012A 0E08           02369         MOVLW   0x08
00012C 26??           02370         ADDWF   r0x0c, F
00012E 50??           02371         MOVF    r0x0c, W
000130 ????           02372         BANKSEL (_rn + 51)
000132 6F??           02373         MOVWF   (_rn + 51), B
                      02374 ;       .line   815; ../../../RF24Network_c/RF24Network_cg.c    if(RF24N__write(header,message,len,write
                            Direct)){
000134 50??           02375         MOVF    r0x09, W
Message[1301]: Using default destination of 0 (Access Bank).
000136 6EE5           02376         MOVWF   POSTDEC1
000138 50??           02377         MOVF    r0x08, W
Message[1301]: Using default destination of 0 (Access Bank).
00013A 6EE5           02378         MOVWF   POSTDEC1
00013C 50??           02379         MOVF    r0x07, W
Message[1301]: Using default destination of 0 (Access Bank).
00013E 6EE5           02380         MOVWF   POSTDEC1
000140 50??           02381         MOVF    r0x06, W
Message[1301]: Using default destination of 0 (Access Bank).
000142 6EE5           02382         MOVWF   POSTDEC1
000144 50??           02383         MOVF    r0x05, W
Message[1301]: Using default destination of 0 (Access Bank).
000146 6EE5           02384         MOVWF   POSTDEC1
000148 50??           02385         MOVF    r0x04, W
Message[1301]: Using default destination of 0 (Access Bank).
00014A 6EE5           02386         MOVWF   POSTDEC1
gpasm-1.4.0 #1107 (May  9 2015) build/sdcc/pr   12-2-2016  22:31:29         PAGE 52


LOC    OBJECT CODE    LINE  SOURCE TEXT
  VALUE

00014C 50??           02387         MOVF    r0x03, W
Message[1301]: Using default destination of 0 (Access Bank).
00014E 6EE5           02388         MOVWF   POSTDEC1
000150 50??           02389         MOVF    r0x02, W
Message[1301]: Using default destination of 0 (Access Bank).
000152 6EE5           02390         MOVWF   POSTDEC1
000154 50??           02391         MOVF    r0x01, W
Message[1301]: Using default destination of 0 (Access Bank).
000156 6EE5           02392         MOVWF   POSTDEC1
000158 50??           02393         MOVF    r0x00, W
Message[1301]: Using default destination of 0 (Access Bank).
00015A 6EE5           02394         MOVWF   POSTDEC1
00015C EC?? F0??      02395         CALL    _RF24N__write
Message[1301]: Using default destination of 0 (Access Bank).
000160 6E??           02396         MOVWF   r0x0c
000162 0E0A           02397         MOVLW   0x0a
000164 26E1           02398         ADDWF   FSR1L, F
000166 B0D8           02399         BTFSC   STATUS, 0
000168 2AE2           02400         INCF    FSR1H, F
00016A 50??           02401         MOVF    r0x0c, W
00016C E0??           02402         BZ      _00551_DS_
                      02403 ;       .line   816; ../../../RF24Network_c/RF24Network_cg.c    return 1;
00016E 0E01           02404         MOVLW   0x01
000170 D???           02405         BRA     _00579_DS_
000172                02406 _00551_DS_:
                      02407 ;       .line   818; ../../../RF24Network_c/RF24Network_cg.c    rn.txTime = millis();
000172 EC?? F0??      02408         CALL    _millis
Message[1301]: Using default destination of 0 (Access Bank).
000176 6E??           02409         MOVWF   r0x0c
000178 CFF3 F000      02410         MOVFF   PRODL, r0x0d
00017C CFF4 F000      02411         MOVFF   PRODH, r0x0e
000180 CFE9 F000      02412         MOVFF   FSR0L, r0x0f
000184 50??           02413         MOVF    r0x0c, W
000186 ????           02414         BANKSEL (_rn + 44)
000188 6F??           02415         MOVWF   (_rn + 44), B
00018A 50??           02416         MOVF    r0x0d, W
00018C ????           02417         BANKSEL (_rn + 45)
00018E 6F??           02418         MOVWF   (_rn + 45), B
000190 50??           02419         MOVF    r0x0e, W
000192 ????           02420         BANKSEL (_rn + 46)
000194 6F??           02421         MOVWF   (_rn + 46), B
000196 50??           02422         MOVF    r0x0f, W
000198 ????           02423         BANKSEL (_rn + 47)
00019A 6F??           02424         MOVWF   (_rn + 47), B
                      02425 ;       .line   819; ../../../RF24Network_c/RF24Network_cg.c    return 0;
Message[1301]: Using default destination of 0 (Access Bank).
00019C 6AE8           02426         CLRF    WREG
00019E D???           02427         BRA     _00579_DS_
0001A0                02428 _00553_DS_:
                      02429 ;       .line   822; ../../../RF24Network_c/RF24Network_cg.c    if (len > MAX_PAYLOAD_SIZE) {
0001A0 0E00           02430         MOVLW   0x00
0001A2 5C??           02431         SUBWF   r0x07, W
0001A4 E1??           02432         BNZ     _00640_DS_
gpasm-1.4.0 #1107 (May  9 2015) build/sdcc/pr   12-2-2016  22:31:29         PAGE 53


LOC    OBJECT CODE    LINE  SOURCE TEXT
  VALUE

0001A6 0E91           02433         MOVLW   0x91
0001A8 5C??           02434         SUBWF   r0x06, W
0001AA                02435 _00640_DS_:
0001AA E3??           02436         BNC     _00555_DS_
                      02437 ;       .line   824; ../../../RF24Network_c/RF24Network_cg.c    return 0;
Message[1301]: Using default destination of 0 (Access Bank).
0001AC 6AE8           02438         CLRF    WREG
0001AE D???           02439         BRA     _00579_DS_
0001B0                02440 _00555_DS_:
                      02441 ;       .line   828; ../../../RF24Network_c/RF24Network_cg.c    fragment_id = (len % rn.max_frame_payloa
                            d_size != 0) + ((len ) / rn.max_frame_payload_size);  //the number of fragments to send = ceil(len/max_f
                            rame_payload_size)
0001B0 50??           02442         MOVF    r0x0b, W
Message[1301]: Using default destination of 0 (Access Bank).
0001B2 6EE5           02443         MOVWF   POSTDEC1
0001B4 50??           02444         MOVF    r0x0a, W
Message[1301]: Using default destination of 0 (Access Bank).
0001B6 6EE5           02445         MOVWF   POSTDEC1
0001B8 50??           02446         MOVF    r0x07, W
Message[1301]: Using default destination of 0 (Access Bank).
0001BA 6EE5           02447         MOVWF   POSTDEC1
0001BC 50??           02448         MOVF    r0x06, W
Message[1301]: Using default destination of 0 (Access Bank).
0001BE 6EE5           02449         MOVWF   POSTDEC1
0001C0 EC?? F0??      02450         CALL    __moduint
Message[1301]: Using default destination of 0 (Access Bank).
0001C4 6E??           02451         MOVWF   r0x0c
0001C6 CFF3 F000      02452         MOVFF   PRODL, r0x0d
0001CA 0E04           02453         MOVLW   0x04
0001CC 26E1           02454         ADDWF   FSR1L, F
0001CE B0D8           02455         BTFSC   STATUS, 0
0001D0 2AE2           02456         INCF    FSR1H, F
0001D2 50??           02457         MOVF    r0x0c, W
0001D4 10??           02458         IORWF   r0x0d, W
0001D6 E0??           02459         BZ      _00581_DS_
0001D8 0E01           02460         MOVLW   0x01
Message[1301]: Using default destination of 0 (Access Bank).
0001DA 6E??           02461         MOVWF   r0x0c
0001DC D???           02462         BRA     _00582_DS_
0001DE                02463 _00581_DS_:
Message[1301]: Using default destination of 0 (Access Bank).
0001DE 6A??           02464         CLRF    r0x0c
0001E0                02465 _00582_DS_:
0001E0 50??           02466         MOVF    r0x0b, W
Message[1301]: Using default destination of 0 (Access Bank).
0001E2 6EE5           02467         MOVWF   POSTDEC1
0001E4 50??           02468         MOVF    r0x0a, W
Message[1301]: Using default destination of 0 (Access Bank).
0001E6 6EE5           02469         MOVWF   POSTDEC1
0001E8 50??           02470         MOVF    r0x07, W
Message[1301]: Using default destination of 0 (Access Bank).
0001EA 6EE5           02471         MOVWF   POSTDEC1
0001EC 50??           02472         MOVF    r0x06, W
gpasm-1.4.0 #1107 (May  9 2015) build/sdcc/pr   12-2-2016  22:31:29         PAGE 54


LOC    OBJECT CODE    LINE  SOURCE TEXT
  VALUE

Message[1301]: Using default destination of 0 (Access Bank).
0001EE 6EE5           02473         MOVWF   POSTDEC1
0001F0 EC?? F0??      02474         CALL    __divuint
Message[1301]: Using default destination of 0 (Access Bank).
0001F4 6E??           02475         MOVWF   r0x0a
0001F6 CFF3 F000      02476         MOVFF   PRODL, r0x0b
0001FA 0E04           02477         MOVLW   0x04
0001FC 26E1           02478         ADDWF   FSR1L, F
0001FE B0D8           02479         BTFSC   STATUS, 0
000200 2AE2           02480         INCF    FSR1H, F
000202 50??           02481         MOVF    r0x0c, W
000204 26??           02482         ADDWF   r0x0a, F
                      02483 ;       .line   834; ../../../RF24Network_c/RF24Network_cg.c    if(header->to_node != 0100){
000206 50??           02484         MOVF    r0x00, W
000208 0F02           02485         ADDLW   0x02
Message[1301]: Using default destination of 0 (Access Bank).
00020A 6E??           02486         MOVWF   r0x0b
00020C 0E00           02487         MOVLW   0x00
00020E 20??           02488         ADDWFC  r0x01, W
Message[1301]: Using default destination of 0 (Access Bank).
000210 6E??           02489         MOVWF   r0x0c
000212 0E00           02490         MOVLW   0x00
000214 20??           02491         ADDWFC  r0x02, W
Message[1301]: Using default destination of 0 (Access Bank).
000216 6E??           02492         MOVWF   r0x0d
000218 C??? F???      02493         MOVFF   r0x0b, FSR0L
00021C C??? F???      02494         MOVFF   r0x0c, PRODL
000220 50??           02495         MOVF    r0x0d, W
000222 EC?? F0??      02496         CALL    __gptrget2
Message[1301]: Using default destination of 0 (Access Bank).
000226 6E??           02497         MOVWF   r0x0b
000228 CFF3 F000      02498         MOVFF   PRODL, r0x0c
00022C 50??           02499         MOVF    r0x0b, W
00022E 0A40           02500         XORLW   0x40
000230 E1??           02501         BNZ     _00642_DS_
000232 50??           02502         MOVF    r0x0c, W
000234 E0??           02503         BZ      _00557_DS_
000236                02504 _00642_DS_:
                      02505 ;       .line   835; ../../../RF24Network_c/RF24Network_cg.c    rn.networkFlags |= FLAG_FAST_FRAG;
000236 0E04           02506         MOVLW   0x04
000238 ????           02507         BANKSEL (_rn + 43)
00023A 11??           02508         IORWF   (_rn + 43), W, B
Message[1301]: Using default destination of 0 (Access Bank).
00023C 6E??           02509         MOVWF   r0x0b
00023E 50??           02510         MOVF    r0x0b, W
000240 ????           02511         BANKSEL (_rn + 43)
000242 6F??           02512         MOVWF   (_rn + 43), B
                      02513 ;       .line   837; ../../../RF24Network_c/RF24Network_cg.c    RF24_stopListening();
000244 EC?? F0??      02514         CALL    _RF24_stopListening
000248                02515 _00557_DS_:
                      02516 ;       .line   841; ../../../RF24Network_c/RF24Network_cg.c    retriesPerFrag = 0;
Message[1301]: Using default destination of 0 (Access Bank).
000248 6A??           02517         CLRF    r0x0b
gpasm-1.4.0 #1107 (May  9 2015) build/sdcc/pr   12-2-2016  22:31:29         PAGE 55


LOC    OBJECT CODE    LINE  SOURCE TEXT
  VALUE

                      02518 ;       .line   842; ../../../RF24Network_c/RF24Network_cg.c    type = header->type;
00024A 50??           02519         MOVF    r0x00, W
00024C 0F06           02520         ADDLW   0x06
Message[1301]: Using default destination of 0 (Access Bank).
00024E 6E??           02521         MOVWF   r0x0c
000250 0E00           02522         MOVLW   0x00
000252 20??           02523         ADDWFC  r0x01, W
Message[1301]: Using default destination of 0 (Access Bank).
000254 6E??           02524         MOVWF   r0x0d
000256 0E00           02525         MOVLW   0x00
000258 20??           02526         ADDWFC  r0x02, W
Message[1301]: Using default destination of 0 (Access Bank).
00025A 6E??           02527         MOVWF   r0x0e
00025C C??? F???      02528         MOVFF   r0x0c, FSR0L
000260 C??? F???      02529         MOVFF   r0x0d, PRODL
000264 50??           02530         MOVF    r0x0e, W
000266 EC?? F0??      02531         CALL    __gptrget1
Message[1301]: Using default destination of 0 (Access Bank).
00026A 6E??           02532         MOVWF   r0x0f
                      02533 ;       .line   843; ../../../RF24Network_c/RF24Network_cg.c    ok = 0;
Message[1301]: Using default destination of 0 (Access Bank).
00026C 6A??           02534         CLRF    r0x10
                      02535 ;       .line   845; ../../../RF24Network_c/RF24Network_cg.c    while (fragment_id > 0) {
00026E C??? F???      02536         MOVFF   r0x0a, r0x11
Message[1301]: Using default destination of 0 (Access Bank).
000272 6A??           02537         CLRF    r0x12
000274                02538 _00570_DS_:
000274 50??           02539         MOVF    r0x11, W
000276 B4D8           02540         BTFSC   STATUS, 2
000278 D???           02541         BRA     _00602_DS_
                      02542 ;       .line   851; ../../../RF24Network_c/RF24Network_cg.c    header->reserved = fragment_id;
00027A 50??           02543         MOVF    r0x00, W
00027C 0F07           02544         ADDLW   0x07
Message[1301]: Using default destination of 0 (Access Bank).
00027E 6E??           02545         MOVWF   r0x13
000280 0E00           02546         MOVLW   0x00
000282 20??           02547         ADDWFC  r0x01, W
Message[1301]: Using default destination of 0 (Access Bank).
000284 6E??           02548         MOVWF   r0x14
000286 0E00           02549         MOVLW   0x00
000288 20??           02550         ADDWFC  r0x02, W
Message[1301]: Using default destination of 0 (Access Bank).
00028A 6E??           02551         MOVWF   r0x15
00028C C??? F???      02552         MOVFF   r0x11, POSTDEC1
000290 C??? F???      02553         MOVFF   r0x13, FSR0L
000294 C??? F???      02554         MOVFF   r0x14, PRODL
000298 50??           02555         MOVF    r0x15, W
00029A EC?? F0??      02556         CALL    __gptrput1
                      02557 ;       .line   853; ../../../RF24Network_c/RF24Network_cg.c    if (fragment_id == 1) {
00029E 50??           02558         MOVF    r0x11, W
0002A0 0A01           02559         XORLW   0x01
0002A2 E1??           02560         BNZ     _00562_DS_
                      02561 ;       .line   854; ../../../RF24Network_c/RF24Network_cg.c    header->type = NETWORK_LAST_FRAGMENT;  /
gpasm-1.4.0 #1107 (May  9 2015) build/sdcc/pr   12-2-2016  22:31:29         PAGE 56


LOC    OBJECT CODE    LINE  SOURCE TEXT
  VALUE

                            /Set the last fragment flag to indicate the last fragment
0002A4 0E96           02562         MOVLW   0x96
Message[1301]: Using default destination of 0 (Access Bank).
0002A6 6EE5           02563         MOVWF   POSTDEC1
0002A8 C??? F???      02564         MOVFF   r0x0c, FSR0L
0002AC C??? F???      02565         MOVFF   r0x0d, PRODL
0002B0 50??           02566         MOVF    r0x0e, W
0002B2 EC?? F0??      02567         CALL    __gptrput1
                      02568 ;       .line   855; ../../../RF24Network_c/RF24Network_cg.c    header->reserved = type; //The reserved 
                            field is used to transmit the header type
0002B6 C??? F???      02569         MOVFF   r0x0f, POSTDEC1
0002BA C??? F???      02570         MOVFF   r0x13, FSR0L
0002BE C??? F???      02571         MOVFF   r0x14, PRODL
0002C2 50??           02572         MOVF    r0x15, W
0002C4 EC?? F0??      02573         CALL    __gptrput1
0002C8 D???           02574         BRA     _00563_DS_
0002CA                02575 _00562_DS_:
                      02576 ;       .line   857; ../../../RF24Network_c/RF24Network_cg.c    if (msgCount == 0) {
0002CA 50??           02577         MOVF    r0x12, W
0002CC E1??           02578         BNZ     _00559_DS_
                      02579 ;       .line   858; ../../../RF24Network_c/RF24Network_cg.c    header->type = NETWORK_FIRST_FRAGMENT;
0002CE 0E94           02580         MOVLW   0x94
Message[1301]: Using default destination of 0 (Access Bank).
0002D0 6EE5           02581         MOVWF   POSTDEC1
0002D2 C??? F???      02582         MOVFF   r0x0c, FSR0L
0002D6 C??? F???      02583         MOVFF   r0x0d, PRODL
0002DA 50??           02584         MOVF    r0x0e, W
0002DC EC?? F0??      02585         CALL    __gptrput1
0002E0 D???           02586         BRA     _00563_DS_
0002E2                02587 _00559_DS_:
                      02588 ;       .line   860; ../../../RF24Network_c/RF24Network_cg.c    header->type = NETWORK_MORE_FRAGMENTS; /
                            /Set the more fragments flag to indicate a fragmented frame
0002E2 0E95           02589         MOVLW   0x95
Message[1301]: Using default destination of 0 (Access Bank).
0002E4 6EE5           02590         MOVWF   POSTDEC1
0002E6 C??? F???      02591         MOVFF   r0x0c, FSR0L
0002EA C??? F???      02592         MOVFF   r0x0d, PRODL
0002EE 50??           02593         MOVF    r0x0e, W
0002F0 EC?? F0??      02594         CALL    __gptrput1
0002F4                02595 _00563_DS_:
                      02596 ;       .line   864; ../../../RF24Network_c/RF24Network_cg.c    offset = msgCount*rn.max_frame_payload_s
                            ize;
0002F4 C??? F???      02597         MOVFF   (_rn + 52), r0x13
0002F8 C??? F???      02598         MOVFF   (_rn + 53), r0x14
0002FC C??? F???      02599         MOVFF   r0x12, r0x15
Message[1301]: Using default destination of 0 (Access Bank).
000300 6A??           02600         CLRF    r0x16
000302 50??           02601         MOVF    r0x14, W
Message[1301]: Using default destination of 0 (Access Bank).
000304 6EE5           02602         MOVWF   POSTDEC1
000306 50??           02603         MOVF    r0x13, W
Message[1301]: Using default destination of 0 (Access Bank).
000308 6EE5           02604         MOVWF   POSTDEC1
gpasm-1.4.0 #1107 (May  9 2015) build/sdcc/pr   12-2-2016  22:31:29         PAGE 57


LOC    OBJECT CODE    LINE  SOURCE TEXT
  VALUE

00030A 50??           02605         MOVF    r0x16, W
Message[1301]: Using default destination of 0 (Access Bank).
00030C 6EE5           02606         MOVWF   POSTDEC1
00030E 50??           02607         MOVF    r0x15, W
Message[1301]: Using default destination of 0 (Access Bank).
000310 6EE5           02608         MOVWF   POSTDEC1
000312 EC?? F0??      02609         CALL    __mulint
Message[1301]: Using default destination of 0 (Access Bank).
000316 6E??           02610         MOVWF   r0x15
000318 CFF3 F000      02611         MOVFF   PRODL, r0x16
00031C 0E04           02612         MOVLW   0x04
00031E 26E1           02613         ADDWF   FSR1L, F
000320 B0D8           02614         BTFSC   STATUS, 0
000322 2AE2           02615         INCF    FSR1H, F
                      02616 ;       .line   865; ../../../RF24Network_c/RF24Network_cg.c    fragmentLen = rf24_min((uint16_t)(len-of
                            fset),rn.max_frame_payload_size);
000324 50??           02617         MOVF    r0x15, W
000326 5C??           02618         SUBWF   r0x06, W
Message[1301]: Using default destination of 0 (Access Bank).
000328 6E??           02619         MOVWF   r0x17
00032A 50??           02620         MOVF    r0x16, W
00032C 58??           02621         SUBWFB  r0x07, W
Message[1301]: Using default destination of 0 (Access Bank).
00032E 6E??           02622         MOVWF   r0x18
000330 50??           02623         MOVF    r0x14, W
000332 5C??           02624         SUBWF   r0x18, W
000334 E1??           02625         BNZ     _00646_DS_
000336 50??           02626         MOVF    r0x13, W
000338 5C??           02627         SUBWF   r0x17, W
00033A                02628 _00646_DS_:
00033A E3??           02629         BNC     _00584_DS_
00033C C??? F???      02630         MOVFF   r0x13, r0x17
000340 C??? F???      02631         MOVFF   r0x14, r0x18
000344                02632 _00584_DS_:
                      02633 ;       .line   868; ../../../RF24Network_c/RF24Network_cg.c    rn.frame_size = sizeof(RF24NetworkHeader
                            )+fragmentLen;
000344 50??           02634         MOVF    r0x17, W
Message[1301]: Using default destination of 0 (Access Bank).
000346 6E??           02635         MOVWF   r0x13
000348 0E08           02636         MOVLW   0x08
00034A 26??           02637         ADDWF   r0x13, F
00034C 50??           02638         MOVF    r0x13, W
00034E ????           02639         BANKSEL (_rn + 51)
000350 6F??           02640         MOVWF   (_rn + 51), B
                      02641 ;       .line   869; ../../../RF24Network_c/RF24Network_cg.c    ok = RF24N__write(header,((char *)messag
                            e)+offset,fragmentLen,writeDirect);
000352 50??           02642         MOVF    r0x05, W
Message[1301]: Using default destination of 0 (Access Bank).
000354 6E??           02643         MOVWF   r0x19
000356 50??           02644         MOVF    r0x04, W
Message[1301]: Using default destination of 0 (Access Bank).
000358 6E??           02645         MOVWF   r0x14
00035A 50??           02646         MOVF    r0x03, W
gpasm-1.4.0 #1107 (May  9 2015) build/sdcc/pr   12-2-2016  22:31:29         PAGE 58


LOC    OBJECT CODE    LINE  SOURCE TEXT
  VALUE

Message[1301]: Using default destination of 0 (Access Bank).
00035C 6E??           02647         MOVWF   r0x13
Message[1301]: Using default destination of 0 (Access Bank).
00035E 6A??           02648         CLRF    r0x1a
000360 50??           02649         MOVF    r0x13, W
000362 26??           02650         ADDWF   r0x15, F
000364 50??           02651         MOVF    r0x14, W
000366 22??           02652         ADDWFC  r0x16, F
000368 50??           02653         MOVF    r0x19, W
00036A 22??           02654         ADDWFC  r0x1a, F
00036C 50??           02655         MOVF    r0x1a, W
Message[1301]: Using default destination of 0 (Access Bank).
00036E 6E??           02656         MOVWF   r0x1a
000370 50??           02657         MOVF    r0x16, W
Message[1301]: Using default destination of 0 (Access Bank).
000372 6E??           02658         MOVWF   r0x16
000374 50??           02659         MOVF    r0x15, W
Message[1301]: Using default destination of 0 (Access Bank).
000376 6E??           02660         MOVWF   r0x15
000378 50??           02661         MOVF    r0x09, W
Message[1301]: Using default destination of 0 (Access Bank).
00037A 6EE5           02662         MOVWF   POSTDEC1
00037C 50??           02663         MOVF    r0x08, W
Message[1301]: Using default destination of 0 (Access Bank).
00037E 6EE5           02664         MOVWF   POSTDEC1
000380 50??           02665         MOVF    r0x18, W
Message[1301]: Using default destination of 0 (Access Bank).
000382 6EE5           02666         MOVWF   POSTDEC1
000384 50??           02667         MOVF    r0x17, W
Message[1301]: Using default destination of 0 (Access Bank).
000386 6EE5           02668         MOVWF   POSTDEC1
000388 50??           02669         MOVF    r0x1a, W
Message[1301]: Using default destination of 0 (Access Bank).
00038A 6EE5           02670         MOVWF   POSTDEC1
00038C 50??           02671         MOVF    r0x16, W
Message[1301]: Using default destination of 0 (Access Bank).
00038E 6EE5           02672         MOVWF   POSTDEC1
000390 50??           02673         MOVF    r0x15, W
Message[1301]: Using default destination of 0 (Access Bank).
000392 6EE5           02674         MOVWF   POSTDEC1
000394 50??           02675         MOVF    r0x02, W
Message[1301]: Using default destination of 0 (Access Bank).
000396 6EE5           02676         MOVWF   POSTDEC1
000398 50??           02677         MOVF    r0x01, W
Message[1301]: Using default destination of 0 (Access Bank).
00039A 6EE5           02678         MOVWF   POSTDEC1
00039C 50??           02679         MOVF    r0x00, W
Message[1301]: Using default destination of 0 (Access Bank).
00039E 6EE5           02680         MOVWF   POSTDEC1
0003A0 EC?? F0??      02681         CALL    _RF24N__write
Message[1301]: Using default destination of 0 (Access Bank).
0003A4 6E??           02682         MOVWF   r0x10
0003A6 0E0A           02683         MOVLW   0x0a
gpasm-1.4.0 #1107 (May  9 2015) build/sdcc/pr   12-2-2016  22:31:29         PAGE 59


LOC    OBJECT CODE    LINE  SOURCE TEXT
  VALUE

0003A8 26E1           02684         ADDWF   FSR1L, F
0003AA B0D8           02685         BTFSC   STATUS, 0
0003AC 2AE2           02686         INCF    FSR1H, F
                      02687 ;       .line   871; ../../../RF24Network_c/RF24Network_cg.c    if (!ok) {
0003AE 50??           02688         MOVF    r0x10, W
0003B0 E1??           02689         BNZ     _00565_DS_
                      02690 ;       .line   872; ../../../RF24Network_c/RF24Network_cg.c    delay(2);
0003B2 0E00           02691         MOVLW   0x00
Message[1301]: Using default destination of 0 (Access Bank).
0003B4 6EE5           02692         MOVWF   POSTDEC1
0003B6 0E02           02693         MOVLW   0x02
Message[1301]: Using default destination of 0 (Access Bank).
0003B8 6EE5           02694         MOVWF   POSTDEC1
0003BA EC?? F0??      02695         CALL    _delay
0003BE 52E6           02696         MOVF    POSTINC1, F
0003C0 52E6           02697         MOVF    POSTINC1, F
                      02698 ;       .line   873; ../../../RF24Network_c/RF24Network_cg.c    ++retriesPerFrag;
0003C2 2A??           02699         INCF    r0x0b, F
0003C4 D???           02700         BRA     _00566_DS_
0003C6                02701 _00565_DS_:
                      02702 ;       .line   876; ../../../RF24Network_c/RF24Network_cg.c    retriesPerFrag = 0;
Message[1301]: Using default destination of 0 (Access Bank).
0003C6 6A??           02703         CLRF    r0x0b
                      02704 ;       .line   877; ../../../RF24Network_c/RF24Network_cg.c    fragment_id--;
0003C8 06??           02705         DECF    r0x11, F
                      02706 ;       .line   878; ../../../RF24Network_c/RF24Network_cg.c    msgCount++;
0003CA 2A??           02707         INCF    r0x12, F
0003CC                02708 _00566_DS_:
                      02709 ;       .line   883; ../../../RF24Network_c/RF24Network_cg.c    if (!ok && retriesPerFrag >= 3) {
0003CC 50??           02710         MOVF    r0x10, W
0003CE A4D8           02711         BTFSS   STATUS, 2
0003D0 D???           02712         BRA     _00570_DS_
0003D2 0E03           02713         MOVLW   0x03
0003D4 5C??           02714         SUBWF   r0x0b, W
0003D6 A0D8           02715         BTFSS   STATUS, 0
0003D8 D???           02716         BRA     _00570_DS_
0003DA                02717 _00602_DS_:
                      02718 ;       .line   885; ../../../RF24Network_c/RF24Network_cg.c    break;
0003DA C??? F???      02719         MOVFF   r0x11, r0x0a
                      02720 ;       .line   896; ../../../RF24Network_c/RF24Network_cg.c    header->type = type;
0003DE C??? F???      02721         MOVFF   r0x0f, POSTDEC1
0003E2 C??? F???      02722         MOVFF   r0x0c, FSR0L
0003E6 C??? F???      02723         MOVFF   r0x0d, PRODL
0003EA 50??           02724         MOVF    r0x0e, W
0003EC EC?? F0??      02725         CALL    __gptrput1
0003F0 ????           02726         BANKSEL (_rn + 43)
                      02727 ;       .line   898; ../../../RF24Network_c/RF24Network_cg.c    if(rn.networkFlags & FLAG_FAST_FRAG){   
0003F2 A4??           02728         BTFSS   (_rn + 43), 2
0003F4 D???           02729         BRA     _00574_DS_
                      02730 ;       .line   899; ../../../RF24Network_c/RF24Network_cg.c    ok = RF24_txStandBy_t(rn.txTimeout,0);  
0003F6 0E00           02731         MOVLW   0x00
Message[1301]: Using default destination of 0 (Access Bank).
0003F8 6EE5           02732         MOVWF   POSTDEC1
gpasm-1.4.0 #1107 (May  9 2015) build/sdcc/pr   12-2-2016  22:31:29         PAGE 60


LOC    OBJECT CODE    LINE  SOURCE TEXT
  VALUE

0003FA ????           02733         BANKSEL (_rn + 4)
0003FC 51??           02734         MOVF    (_rn + 4), W, B
Message[1301]: Using default destination of 0 (Access Bank).
0003FE 6EE5           02735         MOVWF   POSTDEC1
000400 ????           02736         BANKSEL (_rn + 3)
000402 51??           02737         MOVF    (_rn + 3), W, B
Message[1301]: Using default destination of 0 (Access Bank).
000404 6EE5           02738         MOVWF   POSTDEC1
000406 ????           02739         BANKSEL (_rn + 2)
000408 51??           02740         MOVF    (_rn + 2), W, B
Message[1301]: Using default destination of 0 (Access Bank).
00040A 6EE5           02741         MOVWF   POSTDEC1
00040C ????           02742         BANKSEL (_rn + 1)
00040E 51??           02743         MOVF    (_rn + 1), W, B
Message[1301]: Using default destination of 0 (Access Bank).
000410 6EE5           02744         MOVWF   POSTDEC1
000412 EC?? F0??      02745         CALL    _RF24_txStandBy_t
Message[1301]: Using default destination of 0 (Access Bank).
000416 6E??           02746         MOVWF   r0x10
000418 0E05           02747         MOVLW   0x05
00041A 26E1           02748         ADDWF   FSR1L, F
00041C B0D8           02749         BTFSC   STATUS, 0
00041E 2AE2           02750         INCF    FSR1H, F
                      02751 ;       .line   900; ../../../RF24Network_c/RF24Network_cg.c    RF24_startListening();
000420 EC?? F0??      02752         CALL    _RF24_startListening
                      02753 ;       .line   901; ../../../RF24Network_c/RF24Network_cg.c    RF24_setAutoAck_p(0,0);
000424 0E00           02754         MOVLW   0x00
Message[1301]: Using default destination of 0 (Access Bank).
000426 6EE5           02755         MOVWF   POSTDEC1
000428 0E00           02756         MOVLW   0x00
Message[1301]: Using default destination of 0 (Access Bank).
00042A 6EE5           02757         MOVWF   POSTDEC1
00042C EC?? F0??      02758         CALL    _RF24_setAutoAck_p
000430 52E6           02759         MOVF    POSTINC1, F
000432 52E6           02760         MOVF    POSTINC1, F
000434                02761 _00574_DS_:
                      02762 ;       .line   903; ../../../RF24Network_c/RF24Network_cg.c    rn.networkFlags &= ~FLAG_FAST_FRAG;
000434 0EFB           02763         MOVLW   0xfb
000436 ????           02764         BANKSEL (_rn + 43)
000438 15??           02765         ANDWF   (_rn + 43), W, B
Message[1301]: Using default destination of 0 (Access Bank).
00043A 6E??           02766         MOVWF   r0x00
00043C 50??           02767         MOVF    r0x00, W
00043E ????           02768         BANKSEL (_rn + 43)
000440 6F??           02769         MOVWF   (_rn + 43), B
                      02770 ;       .line   905; ../../../RF24Network_c/RF24Network_cg.c    if(!ok){
000442 50??           02771         MOVF    r0x10, W
000444 E1??           02772         BNZ     _00576_DS_
                      02773 ;       .line   906; ../../../RF24Network_c/RF24Network_cg.c    return 0;
Message[1301]: Using default destination of 0 (Access Bank).
000446 6AE8           02774         CLRF    WREG
000448 D???           02775         BRA     _00579_DS_
00044A                02776 _00576_DS_:
gpasm-1.4.0 #1107 (May  9 2015) build/sdcc/pr   12-2-2016  22:31:29         PAGE 61


LOC    OBJECT CODE    LINE  SOURCE TEXT
  VALUE

                      02777 ;       .line   915; ../../../RF24Network_c/RF24Network_cg.c    if(fragment_id > 0){
00044A 50??           02778         MOVF    r0x0a, W
00044C E0??           02779         BZ      _00578_DS_
                      02780 ;       .line   916; ../../../RF24Network_c/RF24Network_cg.c    rn.txTime = millis();
00044E EC?? F0??      02781         CALL    _millis
Message[1301]: Using default destination of 0 (Access Bank).
000452 6E??           02782         MOVWF   r0x00
000454 CFF3 F000      02783         MOVFF   PRODL, r0x01
000458 CFF4 F000      02784         MOVFF   PRODH, r0x02
00045C CFE9 F000      02785         MOVFF   FSR0L, r0x03
000460 50??           02786         MOVF    r0x00, W
000462 ????           02787         BANKSEL (_rn + 44)
000464 6F??           02788         MOVWF   (_rn + 44), B
000466 50??           02789         MOVF    r0x01, W
000468 ????           02790         BANKSEL (_rn + 45)
00046A 6F??           02791         MOVWF   (_rn + 45), B
00046C 50??           02792         MOVF    r0x02, W
00046E ????           02793         BANKSEL (_rn + 46)
000470 6F??           02794         MOVWF   (_rn + 46), B
000472 50??           02795         MOVF    r0x03, W
000474 ????           02796         BANKSEL (_rn + 47)
000476 6F??           02797         MOVWF   (_rn + 47), B
                      02798 ;       .line   917; ../../../RF24Network_c/RF24Network_cg.c    return 0;
Message[1301]: Using default destination of 0 (Access Bank).
000478 6AE8           02799         CLRF    WREG
00047A D???           02800         BRA     _00579_DS_
00047C                02801 _00578_DS_:
                      02802 ;       .line   919; ../../../RF24Network_c/RF24Network_cg.c    return 1;
00047C 0E01           02803         MOVLW   0x01
00047E                02804 _00579_DS_:
00047E CFE4 F000      02805         MOVFF   PREINC1, r0x1a
000482 CFE4 F000      02806         MOVFF   PREINC1, r0x19
000486 CFE4 F000      02807         MOVFF   PREINC1, r0x18
00048A CFE4 F000      02808         MOVFF   PREINC1, r0x17
00048E CFE4 F000      02809         MOVFF   PREINC1, r0x16
000492 CFE4 F000      02810         MOVFF   PREINC1, r0x15
000496 CFE4 F000      02811         MOVFF   PREINC1, r0x14
00049A CFE4 F000      02812         MOVFF   PREINC1, r0x13
00049E CFE4 F000      02813         MOVFF   PREINC1, r0x12
0004A2 CFE4 F000      02814         MOVFF   PREINC1, r0x11
0004A6 CFE4 F000      02815         MOVFF   PREINC1, r0x10
0004AA CFE4 F000      02816         MOVFF   PREINC1, r0x0f
0004AE CFE4 F000      02817         MOVFF   PREINC1, r0x0e
0004B2 CFE4 F000      02818         MOVFF   PREINC1, r0x0d
0004B6 CFE4 F000      02819         MOVFF   PREINC1, r0x0c
0004BA CFE4 F000      02820         MOVFF   PREINC1, r0x0b
0004BE CFE4 F000      02821         MOVFF   PREINC1, r0x0a
0004C2 CFE4 F000      02822         MOVFF   PREINC1, r0x09
0004C6 CFE4 F000      02823         MOVFF   PREINC1, r0x08
0004CA CFE4 F000      02824         MOVFF   PREINC1, r0x07
0004CE CFE4 F000      02825         MOVFF   PREINC1, r0x06
0004D2 CFE4 F000      02826         MOVFF   PREINC1, r0x05
0004D6 CFE4 F000      02827         MOVFF   PREINC1, r0x04
gpasm-1.4.0 #1107 (May  9 2015) build/sdcc/pr   12-2-2016  22:31:29         PAGE 62


LOC    OBJECT CODE    LINE  SOURCE TEXT
  VALUE

0004DA CFE4 F000      02828         MOVFF   PREINC1, r0x03
0004DE CFE4 F000      02829         MOVFF   PREINC1, r0x02
0004E2 CFE4 F000      02830         MOVFF   PREINC1, r0x01
0004E6 CFE4 F000      02831         MOVFF   PREINC1, r0x00
0004EA CFE4 FFD9      02832         MOVFF   PREINC1, FSR2L
0004EE CFE4 FFDA      02833         MOVFF   PREINC1, FSR2H
0004F2 0012           02834         RETURN  
                      02835 
                      02836 ; ; Starting pCode block
                      02837 S_RF24Network_cg__RF24N_write_m code
000000                02838 _RF24N_write_m:
                      02839 ;       .line   791; ../../../RF24Network_c/RF24Network_cg.c    uint8_t RF24N_write_m(RF24NetworkHeader*
                             header,const void* message, uint16_t len){    
000000 CFDA FFE5      02840         MOVFF   FSR2H, POSTDEC1
000004 CFD9 FFE5      02841         MOVFF   FSR2L, POSTDEC1
000008 CFE2 FFDA      02842         MOVFF   FSR1H, FSR2H
00000C CFE1 FFD9      02843         MOVFF   FSR1L, FSR2L
000010 C??? F???      02844         MOVFF   r0x00, POSTDEC1
000014 C??? F???      02845         MOVFF   r0x01, POSTDEC1
000018 C??? F???      02846         MOVFF   r0x02, POSTDEC1
00001C C??? F???      02847         MOVFF   r0x03, POSTDEC1
000020 C??? F???      02848         MOVFF   r0x04, POSTDEC1
000024 C??? F???      02849         MOVFF   r0x05, POSTDEC1
000028 C??? F???      02850         MOVFF   r0x06, POSTDEC1
00002C C??? F???      02851         MOVFF   r0x07, POSTDEC1
000030 0E03           02852         MOVLW   0x03
000032 CFDB F000      02853         MOVFF   PLUSW2, r0x00
000036 0E04           02854         MOVLW   0x04
000038 CFDB F000      02855         MOVFF   PLUSW2, r0x01
00003C 0E05           02856         MOVLW   0x05
00003E CFDB F000      02857         MOVFF   PLUSW2, r0x02
000042 0E06           02858         MOVLW   0x06
000044 CFDB F000      02859         MOVFF   PLUSW2, r0x03
000048 0E07           02860         MOVLW   0x07
00004A CFDB F000      02861         MOVFF   PLUSW2, r0x04
00004E 0E08           02862         MOVLW   0x08
000050 CFDB F000      02863         MOVFF   PLUSW2, r0x05
000054 0E09           02864         MOVLW   0x09
000056 CFDB F000      02865         MOVFF   PLUSW2, r0x06
00005A 0E0A           02866         MOVLW   0x0a
00005C CFDB F000      02867         MOVFF   PLUSW2, r0x07
                      02868 ;       .line   792; ../../../RF24Network_c/RF24Network_cg.c    return RF24N_write_(header,message,len,0
                            70);
000060 0E00           02869         MOVLW   0x00
Message[1301]: Using default destination of 0 (Access Bank).
000062 6EE5           02870         MOVWF   POSTDEC1
000064 0E38           02871         MOVLW   0x38
Message[1301]: Using default destination of 0 (Access Bank).
000066 6EE5           02872         MOVWF   POSTDEC1
000068 50??           02873         MOVF    r0x07, W
Message[1301]: Using default destination of 0 (Access Bank).
00006A 6EE5           02874         MOVWF   POSTDEC1
00006C 50??           02875         MOVF    r0x06, W
gpasm-1.4.0 #1107 (May  9 2015) build/sdcc/pr   12-2-2016  22:31:29         PAGE 63


LOC    OBJECT CODE    LINE  SOURCE TEXT
  VALUE

Message[1301]: Using default destination of 0 (Access Bank).
00006E 6EE5           02876         MOVWF   POSTDEC1
000070 50??           02877         MOVF    r0x05, W
Message[1301]: Using default destination of 0 (Access Bank).
000072 6EE5           02878         MOVWF   POSTDEC1
000074 50??           02879         MOVF    r0x04, W
Message[1301]: Using default destination of 0 (Access Bank).
000076 6EE5           02880         MOVWF   POSTDEC1
000078 50??           02881         MOVF    r0x03, W
Message[1301]: Using default destination of 0 (Access Bank).
00007A 6EE5           02882         MOVWF   POSTDEC1
00007C 50??           02883         MOVF    r0x02, W
Message[1301]: Using default destination of 0 (Access Bank).
00007E 6EE5           02884         MOVWF   POSTDEC1
000080 50??           02885         MOVF    r0x01, W
Message[1301]: Using default destination of 0 (Access Bank).
000082 6EE5           02886         MOVWF   POSTDEC1
000084 50??           02887         MOVF    r0x00, W
Message[1301]: Using default destination of 0 (Access Bank).
000086 6EE5           02888         MOVWF   POSTDEC1
000088 EC?? F0??      02889         CALL    _RF24N_write_
Message[1301]: Using default destination of 0 (Access Bank).
00008C 6E??           02890         MOVWF   r0x00
00008E 0E0A           02891         MOVLW   0x0a
000090 26E1           02892         ADDWF   FSR1L, F
000092 B0D8           02893         BTFSC   STATUS, 0
000094 2AE2           02894         INCF    FSR1H, F
000096 50??           02895         MOVF    r0x00, W
000098 CFE4 F000      02896         MOVFF   PREINC1, r0x07
00009C CFE4 F000      02897         MOVFF   PREINC1, r0x06
0000A0 CFE4 F000      02898         MOVFF   PREINC1, r0x05
0000A4 CFE4 F000      02899         MOVFF   PREINC1, r0x04
0000A8 CFE4 F000      02900         MOVFF   PREINC1, r0x03
0000AC CFE4 F000      02901         MOVFF   PREINC1, r0x02
0000B0 CFE4 F000      02902         MOVFF   PREINC1, r0x01
0000B4 CFE4 F000      02903         MOVFF   PREINC1, r0x00
0000B8 CFE4 FFD9      02904         MOVFF   PREINC1, FSR2L
0000BC CFE4 FFDA      02905         MOVFF   PREINC1, FSR2H
0000C0 0012           02906         RETURN  
                      02907 
                      02908 ; ; Starting pCode block
                      02909 S_RF24Network_cg__RF24N_multicast       code
000000                02910 _RF24N_multicast:
                      02911 ;       .line   782; ../../../RF24Network_c/RF24Network_cg.c    uint8_t RF24N_multicast(RF24NetworkHeade
                            r* header,const void* message, uint16_t len, uint8_t level){
000000 CFDA FFE5      02912         MOVFF   FSR2H, POSTDEC1
000004 CFD9 FFE5      02913         MOVFF   FSR2L, POSTDEC1
000008 CFE2 FFDA      02914         MOVFF   FSR1H, FSR2H
00000C CFE1 FFD9      02915         MOVFF   FSR1L, FSR2L
000010 C??? F???      02916         MOVFF   r0x00, POSTDEC1
000014 C??? F???      02917         MOVFF   r0x01, POSTDEC1
000018 C??? F???      02918         MOVFF   r0x02, POSTDEC1
00001C C??? F???      02919         MOVFF   r0x03, POSTDEC1
gpasm-1.4.0 #1107 (May  9 2015) build/sdcc/pr   12-2-2016  22:31:29         PAGE 64


LOC    OBJECT CODE    LINE  SOURCE TEXT
  VALUE

000020 C??? F???      02920         MOVFF   r0x04, POSTDEC1
000024 C??? F???      02921         MOVFF   r0x05, POSTDEC1
000028 C??? F???      02922         MOVFF   r0x06, POSTDEC1
00002C C??? F???      02923         MOVFF   r0x07, POSTDEC1
000030 C??? F???      02924         MOVFF   r0x08, POSTDEC1
000034 C??? F???      02925         MOVFF   r0x09, POSTDEC1
000038 C??? F???      02926         MOVFF   r0x0a, POSTDEC1
00003C C??? F???      02927         MOVFF   r0x0b, POSTDEC1
000040 0E03           02928         MOVLW   0x03
000042 CFDB F000      02929         MOVFF   PLUSW2, r0x00
000046 0E04           02930         MOVLW   0x04
000048 CFDB F000      02931         MOVFF   PLUSW2, r0x01
00004C 0E05           02932         MOVLW   0x05
00004E CFDB F000      02933         MOVFF   PLUSW2, r0x02
000052 0E06           02934         MOVLW   0x06
000054 CFDB F000      02935         MOVFF   PLUSW2, r0x03
000058 0E07           02936         MOVLW   0x07
00005A CFDB F000      02937         MOVFF   PLUSW2, r0x04
00005E 0E08           02938         MOVLW   0x08
000060 CFDB F000      02939         MOVFF   PLUSW2, r0x05
000064 0E09           02940         MOVLW   0x09
000066 CFDB F000      02941         MOVFF   PLUSW2, r0x06
00006A 0E0A           02942         MOVLW   0x0a
00006C CFDB F000      02943         MOVFF   PLUSW2, r0x07
000070 0E0B           02944         MOVLW   0x0b
000072 CFDB F000      02945         MOVFF   PLUSW2, r0x08
                      02946 ;       .line   784; ../../../RF24Network_c/RF24Network_cg.c    header->to_node = 0100;
000076 50??           02947         MOVF    r0x00, W
000078 0F02           02948         ADDLW   0x02
Message[1301]: Using default destination of 0 (Access Bank).
00007A 6E??           02949         MOVWF   r0x09
00007C 0E00           02950         MOVLW   0x00
00007E 20??           02951         ADDWFC  r0x01, W
Message[1301]: Using default destination of 0 (Access Bank).
000080 6E??           02952         MOVWF   r0x0a
000082 0E00           02953         MOVLW   0x00
000084 20??           02954         ADDWFC  r0x02, W
Message[1301]: Using default destination of 0 (Access Bank).
000086 6E??           02955         MOVWF   r0x0b
000088 0E40           02956         MOVLW   0x40
Message[1301]: Using default destination of 0 (Access Bank).
00008A 6EE5           02957         MOVWF   POSTDEC1
00008C 0E00           02958         MOVLW   0x00
Message[1301]: Using default destination of 0 (Access Bank).
00008E 6EF4           02959         MOVWF   PRODH
000090 C??? F???      02960         MOVFF   r0x09, FSR0L
000094 C??? F???      02961         MOVFF   r0x0a, PRODL
000098 50??           02962         MOVF    r0x0b, W
00009A EC?? F0??      02963         CALL    __gptrput2
                      02964 ;       .line   785; ../../../RF24Network_c/RF24Network_cg.c    header->from_node = rn.node_address;
00009E C??? F???      02965         MOVFF   (_rn + 49), r0x09
0000A2 C??? F???      02966         MOVFF   (_rn + 50), r0x0a
0000A6 C??? F???      02967         MOVFF   r0x09, POSTDEC1
gpasm-1.4.0 #1107 (May  9 2015) build/sdcc/pr   12-2-2016  22:31:29         PAGE 65


LOC    OBJECT CODE    LINE  SOURCE TEXT
  VALUE

0000AA C??? F???      02968         MOVFF   r0x0a, PRODH
0000AE C??? F???      02969         MOVFF   r0x00, FSR0L
0000B2 C??? F???      02970         MOVFF   r0x01, PRODL
0000B6 50??           02971         MOVF    r0x02, W
0000B8 EC?? F0??      02972         CALL    __gptrput2
                      02973 ;       .line   786; ../../../RF24Network_c/RF24Network_cg.c    return RF24N_write_(header, message, len
                            , RF24N_levelToAddress(level));
0000BC 50??           02974         MOVF    r0x08, W
Message[1301]: Using default destination of 0 (Access Bank).
0000BE 6EE5           02975         MOVWF   POSTDEC1
0000C0 EC?? F0??      02976         CALL    _RF24N_levelToAddress
Message[1301]: Using default destination of 0 (Access Bank).
0000C4 6E??           02977         MOVWF   r0x08
0000C6 CFF3 F000      02978         MOVFF   PRODL, r0x09
0000CA 52E6           02979         MOVF    POSTINC1, F
0000CC 50??           02980         MOVF    r0x09, W
Message[1301]: Using default destination of 0 (Access Bank).
0000CE 6EE5           02981         MOVWF   POSTDEC1
0000D0 50??           02982         MOVF    r0x08, W
Message[1301]: Using default destination of 0 (Access Bank).
0000D2 6EE5           02983         MOVWF   POSTDEC1
0000D4 50??           02984         MOVF    r0x07, W
Message[1301]: Using default destination of 0 (Access Bank).
0000D6 6EE5           02985         MOVWF   POSTDEC1
0000D8 50??           02986         MOVF    r0x06, W
Message[1301]: Using default destination of 0 (Access Bank).
0000DA 6EE5           02987         MOVWF   POSTDEC1
0000DC 50??           02988         MOVF    r0x05, W
Message[1301]: Using default destination of 0 (Access Bank).
0000DE 6EE5           02989         MOVWF   POSTDEC1
0000E0 50??           02990         MOVF    r0x04, W
Message[1301]: Using default destination of 0 (Access Bank).
0000E2 6EE5           02991         MOVWF   POSTDEC1
0000E4 50??           02992         MOVF    r0x03, W
Message[1301]: Using default destination of 0 (Access Bank).
0000E6 6EE5           02993         MOVWF   POSTDEC1
0000E8 50??           02994         MOVF    r0x02, W
Message[1301]: Using default destination of 0 (Access Bank).
0000EA 6EE5           02995         MOVWF   POSTDEC1
0000EC 50??           02996         MOVF    r0x01, W
Message[1301]: Using default destination of 0 (Access Bank).
0000EE 6EE5           02997         MOVWF   POSTDEC1
0000F0 50??           02998         MOVF    r0x00, W
Message[1301]: Using default destination of 0 (Access Bank).
0000F2 6EE5           02999         MOVWF   POSTDEC1
0000F4 EC?? F0??      03000         CALL    _RF24N_write_
Message[1301]: Using default destination of 0 (Access Bank).
0000F8 6E??           03001         MOVWF   r0x00
0000FA 0E0A           03002         MOVLW   0x0a
0000FC 26E1           03003         ADDWF   FSR1L, F
0000FE B0D8           03004         BTFSC   STATUS, 0
000100 2AE2           03005         INCF    FSR1H, F
000102 50??           03006         MOVF    r0x00, W
gpasm-1.4.0 #1107 (May  9 2015) build/sdcc/pr   12-2-2016  22:31:29         PAGE 66


LOC    OBJECT CODE    LINE  SOURCE TEXT
  VALUE

000104 CFE4 F000      03007         MOVFF   PREINC1, r0x0b
000108 CFE4 F000      03008         MOVFF   PREINC1, r0x0a
00010C CFE4 F000      03009         MOVFF   PREINC1, r0x09
000110 CFE4 F000      03010         MOVFF   PREINC1, r0x08
000114 CFE4 F000      03011         MOVFF   PREINC1, r0x07
000118 CFE4 F000      03012         MOVFF   PREINC1, r0x06
00011C CFE4 F000      03013         MOVFF   PREINC1, r0x05
000120 CFE4 F000      03014         MOVFF   PREINC1, r0x04
000124 CFE4 F000      03015         MOVFF   PREINC1, r0x03
000128 CFE4 F000      03016         MOVFF   PREINC1, r0x02
00012C CFE4 F000      03017         MOVFF   PREINC1, r0x01
000130 CFE4 F000      03018         MOVFF   PREINC1, r0x00
000134 CFE4 FFD9      03019         MOVFF   PREINC1, FSR2L
000138 CFE4 FFDA      03020         MOVFF   PREINC1, FSR2H
00013C 0012           03021         RETURN  
                      03022 
                      03023 ; ; Starting pCode block
                      03024 S_RF24Network_cg__RF24N_read    code
000000                03025 _RF24N_read:
                      03026 ;       .line   726; ../../../RF24Network_c/RF24Network_cg.c    uint16_t RF24N_read( RF24NetworkHeader* 
                            header,void* message, uint16_t maxlen)
000000 CFDA FFE5      03027         MOVFF   FSR2H, POSTDEC1
000004 CFD9 FFE5      03028         MOVFF   FSR2L, POSTDEC1
000008 CFE2 FFDA      03029         MOVFF   FSR1H, FSR2H
00000C CFE1 FFD9      03030         MOVFF   FSR1L, FSR2L
000010 C??? F???      03031         MOVFF   r0x00, POSTDEC1
000014 C??? F???      03032         MOVFF   r0x01, POSTDEC1
000018 C??? F???      03033         MOVFF   r0x02, POSTDEC1
00001C C??? F???      03034         MOVFF   r0x03, POSTDEC1
000020 C??? F???      03035         MOVFF   r0x04, POSTDEC1
000024 C??? F???      03036         MOVFF   r0x05, POSTDEC1
000028 C??? F???      03037         MOVFF   r0x06, POSTDEC1
00002C C??? F???      03038         MOVFF   r0x07, POSTDEC1
000030 C??? F???      03039         MOVFF   r0x08, POSTDEC1
000034 C??? F???      03040         MOVFF   r0x09, POSTDEC1
000038 C??? F???      03041         MOVFF   r0x0a, POSTDEC1
00003C 0E03           03042         MOVLW   0x03
00003E CFDB F000      03043         MOVFF   PLUSW2, r0x00
000042 0E04           03044         MOVLW   0x04
000044 CFDB F000      03045         MOVFF   PLUSW2, r0x01
000048 0E05           03046         MOVLW   0x05
00004A CFDB F000      03047         MOVFF   PLUSW2, r0x02
00004E 0E06           03048         MOVLW   0x06
000050 CFDB F000      03049         MOVFF   PLUSW2, r0x03
000054 0E07           03050         MOVLW   0x07
000056 CFDB F000      03051         MOVFF   PLUSW2, r0x04
00005A 0E08           03052         MOVLW   0x08
00005C CFDB F000      03053         MOVFF   PLUSW2, r0x05
000060 0E09           03054         MOVLW   0x09
000062 CFDB F000      03055         MOVFF   PLUSW2, r0x06
000066 0E0A           03056         MOVLW   0x0a
000068 CFDB F000      03057         MOVFF   PLUSW2, r0x07
00006C ????           03058         BANKSEL _RF24N_read_bufsize_1_234
gpasm-1.4.0 #1107 (May  9 2015) build/sdcc/pr   12-2-2016  22:31:29         PAGE 67


LOC    OBJECT CODE    LINE  SOURCE TEXT
  VALUE

                      03059 ;       .line   728; ../../../RF24Network_c/RF24Network_cg.c    uint16_t bufsize = 0;
00006E 6B??           03060         CLRF    _RF24N_read_bufsize_1_234, B
000070 ????           03061         BANKSEL (_RF24N_read_bufsize_1_234 + 1)
000072 6B??           03062         CLRF    (_RF24N_read_bufsize_1_234 + 1), B
                      03063 ;       .line   747; ../../../RF24Network_c/RF24Network_cg.c    if ( RF24N_available() )
000074 EC?? F0??      03064         CALL    _RF24N_available
Message[1301]: Using default destination of 0 (Access Bank).
000078 6E??           03065         MOVWF   r0x08
00007A 50??           03066         MOVF    r0x08, W
00007C B4D8           03067         BTFSC   STATUS, 2
00007E D???           03068         BRA     _00513_DS_
                      03069 ;       .line   751; ../../../RF24Network_c/RF24Network_cg.c    memcpy(header,rn.frame_queue,8);
000080 50??           03070         MOVF    r0x02, W
Message[1301]: Using default destination of 0 (Access Bank).
000082 6E??           03071         MOVWF   r0x02
000084 50??           03072         MOVF    r0x01, W
Message[1301]: Using default destination of 0 (Access Bank).
000086 6E??           03073         MOVWF   r0x01
000088 50??           03074         MOVF    r0x00, W
Message[1301]: Using default destination of 0 (Access Bank).
00008A 6E??           03075         MOVWF   r0x00
00008C 0E??           03076         MOVLW   HIGH(_rn + 59)
Message[1301]: Using default destination of 0 (Access Bank).
00008E 6E??           03077         MOVWF   r0x09
000090 0E??           03078         MOVLW   LOW(_rn + 59)
Message[1301]: Using default destination of 0 (Access Bank).
000092 6E??           03079         MOVWF   r0x08
000094 0E80           03080         MOVLW   0x80
Message[1301]: Using default destination of 0 (Access Bank).
000096 6E??           03081         MOVWF   r0x0a
000098 0E00           03082         MOVLW   0x00
Message[1301]: Using default destination of 0 (Access Bank).
00009A 6EE5           03083         MOVWF   POSTDEC1
00009C 0E08           03084         MOVLW   0x08
Message[1301]: Using default destination of 0 (Access Bank).
00009E 6EE5           03085         MOVWF   POSTDEC1
0000A0 50??           03086         MOVF    r0x0a, W
Message[1301]: Using default destination of 0 (Access Bank).
0000A2 6EE5           03087         MOVWF   POSTDEC1
0000A4 50??           03088         MOVF    r0x09, W
Message[1301]: Using default destination of 0 (Access Bank).
0000A6 6EE5           03089         MOVWF   POSTDEC1
0000A8 50??           03090         MOVF    r0x08, W
Message[1301]: Using default destination of 0 (Access Bank).
0000AA 6EE5           03091         MOVWF   POSTDEC1
0000AC 50??           03092         MOVF    r0x02, W
Message[1301]: Using default destination of 0 (Access Bank).
0000AE 6EE5           03093         MOVWF   POSTDEC1
0000B0 50??           03094         MOVF    r0x01, W
Message[1301]: Using default destination of 0 (Access Bank).
0000B2 6EE5           03095         MOVWF   POSTDEC1
0000B4 50??           03096         MOVF    r0x00, W
Message[1301]: Using default destination of 0 (Access Bank).
gpasm-1.4.0 #1107 (May  9 2015) build/sdcc/pr   12-2-2016  22:31:29         PAGE 68


LOC    OBJECT CODE    LINE  SOURCE TEXT
  VALUE

0000B6 6EE5           03097         MOVWF   POSTDEC1
0000B8 EC?? F0??      03098         CALL    _memcpy
0000BC 0E08           03099         MOVLW   0x08
0000BE 26E1           03100         ADDWF   FSR1L, F
0000C0 B0D8           03101         BTFSC   STATUS, 0
0000C2 2AE2           03102         INCF    FSR1H, F
                      03103 ;       .line   752; ../../../RF24Network_c/RF24Network_cg.c    memcpy(&bufsize,rn.frame_queue+8,2);
0000C4 0E??           03104         MOVLW   HIGH(_RF24N_read_bufsize_1_234)
Message[1301]: Using default destination of 0 (Access Bank).
0000C6 6E??           03105         MOVWF   r0x01
0000C8 0E??           03106         MOVLW   LOW(_RF24N_read_bufsize_1_234)
Message[1301]: Using default destination of 0 (Access Bank).
0000CA 6E??           03107         MOVWF   r0x00
0000CC 0E80           03108         MOVLW   0x80
Message[1301]: Using default destination of 0 (Access Bank).
0000CE 6E??           03109         MOVWF   r0x02
0000D0 0E??           03110         MOVLW   HIGH(_rn + 67)
Message[1301]: Using default destination of 0 (Access Bank).
0000D2 6E??           03111         MOVWF   r0x09
0000D4 0E??           03112         MOVLW   LOW(_rn + 67)
Message[1301]: Using default destination of 0 (Access Bank).
0000D6 6E??           03113         MOVWF   r0x08
0000D8 0E80           03114         MOVLW   0x80
Message[1301]: Using default destination of 0 (Access Bank).
0000DA 6E??           03115         MOVWF   r0x0a
0000DC 0E00           03116         MOVLW   0x00
Message[1301]: Using default destination of 0 (Access Bank).
0000DE 6EE5           03117         MOVWF   POSTDEC1
0000E0 0E02           03118         MOVLW   0x02
Message[1301]: Using default destination of 0 (Access Bank).
0000E2 6EE5           03119         MOVWF   POSTDEC1
0000E4 50??           03120         MOVF    r0x0a, W
Message[1301]: Using default destination of 0 (Access Bank).
0000E6 6EE5           03121         MOVWF   POSTDEC1
0000E8 50??           03122         MOVF    r0x09, W
Message[1301]: Using default destination of 0 (Access Bank).
0000EA 6EE5           03123         MOVWF   POSTDEC1
0000EC 50??           03124         MOVF    r0x08, W
Message[1301]: Using default destination of 0 (Access Bank).
0000EE 6EE5           03125         MOVWF   POSTDEC1
0000F0 50??           03126         MOVF    r0x02, W
Message[1301]: Using default destination of 0 (Access Bank).
0000F2 6EE5           03127         MOVWF   POSTDEC1
0000F4 50??           03128         MOVF    r0x01, W
Message[1301]: Using default destination of 0 (Access Bank).
0000F6 6EE5           03129         MOVWF   POSTDEC1
0000F8 50??           03130         MOVF    r0x00, W
Message[1301]: Using default destination of 0 (Access Bank).
0000FA 6EE5           03131         MOVWF   POSTDEC1
0000FC EC?? F0??      03132         CALL    _memcpy
000100 0E08           03133         MOVLW   0x08
000102 26E1           03134         ADDWF   FSR1L, F
000104 B0D8           03135         BTFSC   STATUS, 0
gpasm-1.4.0 #1107 (May  9 2015) build/sdcc/pr   12-2-2016  22:31:29         PAGE 69


LOC    OBJECT CODE    LINE  SOURCE TEXT
  VALUE

000106 2AE2           03136         INCF    FSR1H, F
                      03137 ;       .line   754; ../../../RF24Network_c/RF24Network_cg.c    if (maxlen > 0)
000108 50??           03138         MOVF    r0x06, W
00010A 10??           03139         IORWF   r0x07, W
00010C E0??           03140         BZ      _00509_DS_
00010E ????           03141         BANKSEL (_RF24N_read_bufsize_1_234 + 1)
                      03142 ;       .line   756; ../../../RF24Network_c/RF24Network_cg.c    maxlen = rf24_min(maxlen,bufsize);
000110 51??           03143         MOVF    (_RF24N_read_bufsize_1_234 + 1), W, B
000112 5C??           03144         SUBWF   r0x07, W
000114 E1??           03145         BNZ     _00530_DS_
000116 ????           03146         BANKSEL _RF24N_read_bufsize_1_234
000118 51??           03147         MOVF    _RF24N_read_bufsize_1_234, W, B
00011A 5C??           03148         SUBWF   r0x06, W
00011C                03149 _00530_DS_:
00011C E2??           03150         BC      _00516_DS_
00011E C??? F???      03151         MOVFF   r0x06, r0x00
000122 C??? F???      03152         MOVFF   r0x07, r0x01
000126 D???           03153         BRA     _00517_DS_
000128                03154 _00516_DS_:
000128 C??? F???      03155         MOVFF   _RF24N_read_bufsize_1_234, r0x00
00012C C??? F???      03156         MOVFF   (_RF24N_read_bufsize_1_234 + 1), r0x01
000130                03157 _00517_DS_:
000130 C??? F???      03158         MOVFF   r0x00, r0x06
000134 C??? F???      03159         MOVFF   r0x01, r0x07
                      03160 ;       .line   757; ../../../RF24Network_c/RF24Network_cg.c    memcpy(message,rn.frame_queue+10,maxlen)
                            ;
000138 0E??           03161         MOVLW   HIGH(_rn + 69)
Message[1301]: Using default destination of 0 (Access Bank).
00013A 6E??           03162         MOVWF   r0x01
00013C 0E??           03163         MOVLW   LOW(_rn + 69)
Message[1301]: Using default destination of 0 (Access Bank).
00013E 6E??           03164         MOVWF   r0x00
000140 0E80           03165         MOVLW   0x80
Message[1301]: Using default destination of 0 (Access Bank).
000142 6E??           03166         MOVWF   r0x02
000144 50??           03167         MOVF    r0x07, W
Message[1301]: Using default destination of 0 (Access Bank).
000146 6EE5           03168         MOVWF   POSTDEC1
000148 50??           03169         MOVF    r0x06, W
Message[1301]: Using default destination of 0 (Access Bank).
00014A 6EE5           03170         MOVWF   POSTDEC1
00014C 50??           03171         MOVF    r0x02, W
Message[1301]: Using default destination of 0 (Access Bank).
00014E 6EE5           03172         MOVWF   POSTDEC1
000150 50??           03173         MOVF    r0x01, W
Message[1301]: Using default destination of 0 (Access Bank).
000152 6EE5           03174         MOVWF   POSTDEC1
000154 50??           03175         MOVF    r0x00, W
Message[1301]: Using default destination of 0 (Access Bank).
000156 6EE5           03176         MOVWF   POSTDEC1
000158 50??           03177         MOVF    r0x05, W
Message[1301]: Using default destination of 0 (Access Bank).
00015A 6EE5           03178         MOVWF   POSTDEC1
gpasm-1.4.0 #1107 (May  9 2015) build/sdcc/pr   12-2-2016  22:31:29         PAGE 70


LOC    OBJECT CODE    LINE  SOURCE TEXT
  VALUE

00015C 50??           03179         MOVF    r0x04, W
Message[1301]: Using default destination of 0 (Access Bank).
00015E 6EE5           03180         MOVWF   POSTDEC1
000160 50??           03181         MOVF    r0x03, W
Message[1301]: Using default destination of 0 (Access Bank).
000162 6EE5           03182         MOVWF   POSTDEC1
000164 EC?? F0??      03183         CALL    _memcpy
000168 0E08           03184         MOVLW   0x08
00016A 26E1           03185         ADDWF   FSR1L, F
00016C B0D8           03186         BTFSC   STATUS, 0
00016E 2AE2           03187         INCF    FSR1H, F
000170                03188 _00509_DS_:
000170 ????           03189         BANKSEL _RF24N_read_bufsize_1_234
                      03190 ;       .line   764; ../../../RF24Network_c/RF24Network_cg.c    rn.next_frame-=bufsize+10;
000172 51??           03191         MOVF    _RF24N_read_bufsize_1_234, W, B
000174 0F0A           03192         ADDLW   0x0a
Message[1301]: Using default destination of 0 (Access Bank).
000176 6E??           03193         MOVWF   r0x00
000178 0E00           03194         MOVLW   0x00
00017A ????           03195         BANKSEL (_RF24N_read_bufsize_1_234 + 1)
00017C 21??           03196         ADDWFC  (_RF24N_read_bufsize_1_234 + 1), W, B
Message[1301]: Using default destination of 0 (Access Bank).
00017E 6E??           03197         MOVWF   r0x01
Message[1301]: Using default destination of 0 (Access Bank).
000180 6A??           03198         CLRF    r0x02
000182 50??           03199         MOVF    r0x00, W
000184 ????           03200         BANKSEL (_rn + 213)
000186 5D??           03201         SUBWF   (_rn + 213), W, B
Message[1301]: Using default destination of 0 (Access Bank).
000188 6E??           03202         MOVWF   r0x00
00018A 50??           03203         MOVF    r0x01, W
00018C ????           03204         BANKSEL (_rn + 214)
00018E 59??           03205         SUBWFB  (_rn + 214), W, B
Message[1301]: Using default destination of 0 (Access Bank).
000190 6E??           03206         MOVWF   r0x01
000192 50??           03207         MOVF    r0x02, W
000194 ????           03208         BANKSEL (_rn + 215)
000196 59??           03209         SUBWFB  (_rn + 215), W, B
Message[1301]: Using default destination of 0 (Access Bank).
000198 6E??           03210         MOVWF   r0x02
00019A 50??           03211         MOVF    r0x00, W
00019C ????           03212         BANKSEL (_rn + 213)
00019E 6F??           03213         MOVWF   (_rn + 213), B
0001A0 50??           03214         MOVF    r0x01, W
0001A2 ????           03215         BANKSEL (_rn + 214)
0001A4 6F??           03216         MOVWF   (_rn + 214), B
0001A6 50??           03217         MOVF    r0x02, W
0001A8 ????           03218         BANKSEL (_rn + 215)
0001AA 6F??           03219         MOVWF   (_rn + 215), B
0001AC ????           03220         BANKSEL _RF24N_read_bufsize_1_234
                      03221 ;       .line   767; ../../../RF24Network_c/RF24Network_cg.c    if( (padding = (bufsize+10)%4) ){
0001AE 51??           03222         MOVF    _RF24N_read_bufsize_1_234, W, B
0001B0 0F0A           03223         ADDLW   0x0a
gpasm-1.4.0 #1107 (May  9 2015) build/sdcc/pr   12-2-2016  22:31:29         PAGE 71


LOC    OBJECT CODE    LINE  SOURCE TEXT
  VALUE

Message[1301]: Using default destination of 0 (Access Bank).
0001B2 6E??           03224         MOVWF   r0x00
0001B4 0E00           03225         MOVLW   0x00
0001B6 ????           03226         BANKSEL (_RF24N_read_bufsize_1_234 + 1)
0001B8 21??           03227         ADDWFC  (_RF24N_read_bufsize_1_234 + 1), W, B
Message[1301]: Using default destination of 0 (Access Bank).
0001BA 6E??           03228         MOVWF   r0x01
0001BC 0E03           03229         MOVLW   0x03
0001BE 16??           03230         ANDWF   r0x00, F
Message[1301]: Using default destination of 0 (Access Bank).
0001C0 6A??           03231         CLRF    r0x01
0001C2 C??? F???      03232         MOVFF   r0x00, r0x01
0001C6 50??           03233         MOVF    r0x00, W
0001C8 E0??           03234         BZ      _00511_DS_
                      03235 ;       .line   768; ../../../RF24Network_c/RF24Network_cg.c    padding = 4-padding;
0001CA 50??           03236         MOVF    r0x01, W
0001CC 0804           03237         SUBLW   0x04
Message[1301]: Using default destination of 0 (Access Bank).
0001CE 6E??           03238         MOVWF   r0x01
                      03239 ;       .line   769; ../../../RF24Network_c/RF24Network_cg.c    rn.next_frame -= padding;
0001D0 C??? F???      03240         MOVFF   r0x01, r0x00
Message[1301]: Using default destination of 0 (Access Bank).
0001D4 6A??           03241         CLRF    r0x02
Message[1301]: Using default destination of 0 (Access Bank).
0001D6 6A??           03242         CLRF    r0x03
0001D8 BE??           03243         BTFSC   r0x02, 7
Message[1301]: Using default destination of 0 (Access Bank).
0001DA 68??           03244         SETF    r0x03
0001DC 50??           03245         MOVF    r0x00, W
0001DE ????           03246         BANKSEL (_rn + 213)
0001E0 5D??           03247         SUBWF   (_rn + 213), W, B
Message[1301]: Using default destination of 0 (Access Bank).
0001E2 6E??           03248         MOVWF   r0x00
0001E4 50??           03249         MOVF    r0x02, W
0001E6 ????           03250         BANKSEL (_rn + 214)
0001E8 59??           03251         SUBWFB  (_rn + 214), W, B
Message[1301]: Using default destination of 0 (Access Bank).
0001EA 6E??           03252         MOVWF   r0x02
0001EC 50??           03253         MOVF    r0x03, W
0001EE ????           03254         BANKSEL (_rn + 215)
0001F0 59??           03255         SUBWFB  (_rn + 215), W, B
Message[1301]: Using default destination of 0 (Access Bank).
0001F2 6E??           03256         MOVWF   r0x03
0001F4 50??           03257         MOVF    r0x00, W
0001F6 ????           03258         BANKSEL (_rn + 213)
0001F8 6F??           03259         MOVWF   (_rn + 213), B
0001FA 50??           03260         MOVF    r0x02, W
0001FC ????           03261         BANKSEL (_rn + 214)
0001FE 6F??           03262         MOVWF   (_rn + 214), B
000200 50??           03263         MOVF    r0x03, W
000202 ????           03264         BANKSEL (_rn + 215)
000204 6F??           03265         MOVWF   (_rn + 215), B
000206                03266 _00511_DS_:
gpasm-1.4.0 #1107 (May  9 2015) build/sdcc/pr   12-2-2016  22:31:29         PAGE 72


LOC    OBJECT CODE    LINE  SOURCE TEXT
  VALUE

                      03267 ;       .line   772; ../../../RF24Network_c/RF24Network_cg.c    memmove(rn.frame_queue,rn.frame_queue+bu
                            fsize+10+padding,sizeof(rn.frame_queue)- bufsize);
000206 0E??           03268         MOVLW   HIGH(_rn + 59)
Message[1301]: Using default destination of 0 (Access Bank).
000208 6E??           03269         MOVWF   r0x02
00020A 0E??           03270         MOVLW   LOW(_rn + 59)
Message[1301]: Using default destination of 0 (Access Bank).
00020C 6E??           03271         MOVWF   r0x00
00020E 0E80           03272         MOVLW   0x80
Message[1301]: Using default destination of 0 (Access Bank).
000210 6E??           03273         MOVWF   r0x03
000212 0E??           03274         MOVLW   LOW(_rn + 59)
000214 ????           03275         BANKSEL _RF24N_read_bufsize_1_234
000216 25??           03276         ADDWF   _RF24N_read_bufsize_1_234, W, B
Message[1301]: Using default destination of 0 (Access Bank).
000218 6E??           03277         MOVWF   r0x04
00021A 0E??           03278         MOVLW   HIGH(_rn + 59)
00021C ????           03279         BANKSEL (_RF24N_read_bufsize_1_234 + 1)
00021E 21??           03280         ADDWFC  (_RF24N_read_bufsize_1_234 + 1), W, B
Message[1301]: Using default destination of 0 (Access Bank).
000220 6E??           03281         MOVWF   r0x05
000222 0E0A           03282         MOVLW   0x0a
000224 26??           03283         ADDWF   r0x04, F
000226 B0D8           03284         BTFSC   STATUS, 0
000228 2A??           03285         INCF    r0x05, F
Message[1301]: Using default destination of 0 (Access Bank).
00022A 6A??           03286         CLRF    r0x06
00022C 50??           03287         MOVF    r0x04, W
00022E 26??           03288         ADDWF   r0x01, F
000230 50??           03289         MOVF    r0x05, W
000232 22??           03290         ADDWFC  r0x06, F
000234 50??           03291         MOVF    r0x06, W
Message[1301]: Using default destination of 0 (Access Bank).
000236 6E??           03292         MOVWF   r0x06
000238 50??           03293         MOVF    r0x01, W
Message[1301]: Using default destination of 0 (Access Bank).
00023A 6E??           03294         MOVWF   r0x01
00023C 0E80           03295         MOVLW   0x80
Message[1301]: Using default destination of 0 (Access Bank).
00023E 6E??           03296         MOVWF   r0x04
000240 ????           03297         BANKSEL _RF24N_read_bufsize_1_234
000242 51??           03298         MOVF    _RF24N_read_bufsize_1_234, W, B
000244 089A           03299         SUBLW   0x9a
Message[1301]: Using default destination of 0 (Access Bank).
000246 6E??           03300         MOVWF   r0x05
000248 0E00           03301         MOVLW   0x00
00024A ????           03302         BANKSEL (_RF24N_read_bufsize_1_234 + 1)
00024C 55??           03303         SUBFWB  (_RF24N_read_bufsize_1_234 + 1), W, B
Message[1301]: Using default destination of 0 (Access Bank).
00024E 6E??           03304         MOVWF   r0x07
000250 50??           03305         MOVF    r0x07, W
Message[1301]: Using default destination of 0 (Access Bank).
000252 6EE5           03306         MOVWF   POSTDEC1
gpasm-1.4.0 #1107 (May  9 2015) build/sdcc/pr   12-2-2016  22:31:29         PAGE 73


LOC    OBJECT CODE    LINE  SOURCE TEXT
  VALUE

000254 50??           03307         MOVF    r0x05, W
Message[1301]: Using default destination of 0 (Access Bank).
000256 6EE5           03308         MOVWF   POSTDEC1
000258 50??           03309         MOVF    r0x04, W
Message[1301]: Using default destination of 0 (Access Bank).
00025A 6EE5           03310         MOVWF   POSTDEC1
00025C 50??           03311         MOVF    r0x06, W
Message[1301]: Using default destination of 0 (Access Bank).
00025E 6EE5           03312         MOVWF   POSTDEC1
000260 50??           03313         MOVF    r0x01, W
Message[1301]: Using default destination of 0 (Access Bank).
000262 6EE5           03314         MOVWF   POSTDEC1
000264 50??           03315         MOVF    r0x03, W
Message[1301]: Using default destination of 0 (Access Bank).
000266 6EE5           03316         MOVWF   POSTDEC1
000268 50??           03317         MOVF    r0x02, W
Message[1301]: Using default destination of 0 (Access Bank).
00026A 6EE5           03318         MOVWF   POSTDEC1
00026C 50??           03319         MOVF    r0x00, W
Message[1301]: Using default destination of 0 (Access Bank).
00026E 6EE5           03320         MOVWF   POSTDEC1
000270 EC?? F0??      03321         CALL    _memmove
000274 0E08           03322         MOVLW   0x08
000276 26E1           03323         ADDWF   FSR1L, F
000278 B0D8           03324         BTFSC   STATUS, 0
00027A 2AE2           03325         INCF    FSR1H, F
00027C                03326 _00513_DS_:
                      03327 ;       .line   776; ../../../RF24Network_c/RF24Network_cg.c    return bufsize;
00027C C??? F???      03328         MOVFF   (_RF24N_read_bufsize_1_234 + 1), PRODL
000280 ????           03329         BANKSEL _RF24N_read_bufsize_1_234
000282 51??           03330         MOVF    _RF24N_read_bufsize_1_234, W, B
000284 CFE4 F000      03331         MOVFF   PREINC1, r0x0a
000288 CFE4 F000      03332         MOVFF   PREINC1, r0x09
00028C CFE4 F000      03333         MOVFF   PREINC1, r0x08
000290 CFE4 F000      03334         MOVFF   PREINC1, r0x07
000294 CFE4 F000      03335         MOVFF   PREINC1, r0x06
000298 CFE4 F000      03336         MOVFF   PREINC1, r0x05
00029C CFE4 F000      03337         MOVFF   PREINC1, r0x04
0002A0 CFE4 F000      03338         MOVFF   PREINC1, r0x03
0002A4 CFE4 F000      03339         MOVFF   PREINC1, r0x02
0002A8 CFE4 F000      03340         MOVFF   PREINC1, r0x01
0002AC CFE4 F000      03341         MOVFF   PREINC1, r0x00
0002B0 CFE4 FFD9      03342         MOVFF   PREINC1, FSR2L
0002B4 CFE4 FFDA      03343         MOVFF   PREINC1, FSR2H
0002B8 0012           03344         RETURN  
                      03345 
                      03346 ; ; Starting pCode block
                      03347 S_RF24Network_cg__RF24N_peek    code
000000                03348 _RF24N_peek:
                      03349 ;       .line   705; ../../../RF24Network_c/RF24Network_cg.c    uint16_t RF24N_peek( RF24NetworkHeader* 
                            header)
000000 CFDA FFE5      03350         MOVFF   FSR2H, POSTDEC1
000004 CFD9 FFE5      03351         MOVFF   FSR2L, POSTDEC1
gpasm-1.4.0 #1107 (May  9 2015) build/sdcc/pr   12-2-2016  22:31:29         PAGE 74


LOC    OBJECT CODE    LINE  SOURCE TEXT
  VALUE

000008 CFE2 FFDA      03352         MOVFF   FSR1H, FSR2H
00000C CFE1 FFD9      03353         MOVFF   FSR1L, FSR2L
000010 C??? F???      03354         MOVFF   r0x00, POSTDEC1
000014 C??? F???      03355         MOVFF   r0x01, POSTDEC1
000018 C??? F???      03356         MOVFF   r0x02, POSTDEC1
00001C C??? F???      03357         MOVFF   r0x03, POSTDEC1
000020 C??? F???      03358         MOVFF   r0x04, POSTDEC1
000024 C??? F???      03359         MOVFF   r0x05, POSTDEC1
000028 0E03           03360         MOVLW   0x03
00002A CFDB F000      03361         MOVFF   PLUSW2, r0x00
00002E 0E04           03362         MOVLW   0x04
000030 CFDB F000      03363         MOVFF   PLUSW2, r0x01
000034 0E05           03364         MOVLW   0x05
000036 CFDB F000      03365         MOVFF   PLUSW2, r0x02
                      03366 ;       .line   707; ../../../RF24Network_c/RF24Network_cg.c    if ( RF24N_available() )
00003A EC?? F0??      03367         CALL    _RF24N_available
Message[1301]: Using default destination of 0 (Access Bank).
00003E 6E??           03368         MOVWF   r0x03
000040 50??           03369         MOVF    r0x03, W
000042 B4D8           03370         BTFSC   STATUS, 2
000044 D???           03371         BRA     _00502_DS_
                      03372 ;       .line   715; ../../../RF24Network_c/RF24Network_cg.c    RF24NetworkFrame *frame = (RF24NetworkFr
                            ame*)(rn.frame_queue);
000046 0E??           03373         MOVLW   LOW(_rn + 59)
Message[1301]: Using default destination of 0 (Access Bank).
000048 6E??           03374         MOVWF   r0x03
00004A 0E??           03375         MOVLW   HIGH(_rn + 59)
Message[1301]: Using default destination of 0 (Access Bank).
00004C 6E??           03376         MOVWF   r0x04
00004E 50??           03377         MOVF    r0x04, W
Message[1301]: Using default destination of 0 (Access Bank).
000050 6E??           03378         MOVWF   r0x04
000052 50??           03379         MOVF    r0x03, W
Message[1301]: Using default destination of 0 (Access Bank).
000054 6E??           03380         MOVWF   r0x03
000056 0E80           03381         MOVLW   0x80
Message[1301]: Using default destination of 0 (Access Bank).
000058 6E??           03382         MOVWF   r0x05
                      03383 ;       .line   716; ../../../RF24Network_c/RF24Network_cg.c    memcpy(header,&frame->header,sizeof(RF24
                            NetworkHeader));
00005A 50??           03384         MOVF    r0x02, W
Message[1301]: Using default destination of 0 (Access Bank).
00005C 6E??           03385         MOVWF   r0x02
00005E 50??           03386         MOVF    r0x01, W
Message[1301]: Using default destination of 0 (Access Bank).
000060 6E??           03387         MOVWF   r0x01
000062 50??           03388         MOVF    r0x00, W
Message[1301]: Using default destination of 0 (Access Bank).
000064 6E??           03389         MOVWF   r0x00
000066 50??           03390         MOVF    r0x05, W
Message[1301]: Using default destination of 0 (Access Bank).
000068 6E??           03391         MOVWF   r0x05
00006A 50??           03392         MOVF    r0x04, W
gpasm-1.4.0 #1107 (May  9 2015) build/sdcc/pr   12-2-2016  22:31:29         PAGE 75


LOC    OBJECT CODE    LINE  SOURCE TEXT
  VALUE

Message[1301]: Using default destination of 0 (Access Bank).
00006C 6E??           03393         MOVWF   r0x04
00006E 50??           03394         MOVF    r0x03, W
Message[1301]: Using default destination of 0 (Access Bank).
000070 6E??           03395         MOVWF   r0x03
000072 0E00           03396         MOVLW   0x00
Message[1301]: Using default destination of 0 (Access Bank).
000074 6EE5           03397         MOVWF   POSTDEC1
000076 0E08           03398         MOVLW   0x08
Message[1301]: Using default destination of 0 (Access Bank).
000078 6EE5           03399         MOVWF   POSTDEC1
00007A 50??           03400         MOVF    r0x05, W
Message[1301]: Using default destination of 0 (Access Bank).
00007C 6EE5           03401         MOVWF   POSTDEC1
00007E 50??           03402         MOVF    r0x04, W
Message[1301]: Using default destination of 0 (Access Bank).
000080 6EE5           03403         MOVWF   POSTDEC1
000082 50??           03404         MOVF    r0x03, W
Message[1301]: Using default destination of 0 (Access Bank).
000084 6EE5           03405         MOVWF   POSTDEC1
000086 50??           03406         MOVF    r0x02, W
Message[1301]: Using default destination of 0 (Access Bank).
000088 6EE5           03407         MOVWF   POSTDEC1
00008A 50??           03408         MOVF    r0x01, W
Message[1301]: Using default destination of 0 (Access Bank).
00008C 6EE5           03409         MOVWF   POSTDEC1
00008E 50??           03410         MOVF    r0x00, W
Message[1301]: Using default destination of 0 (Access Bank).
000090 6EE5           03411         MOVWF   POSTDEC1
000092 EC?? F0??      03412         CALL    _memcpy
000096 0E08           03413         MOVLW   0x08
000098 26E1           03414         ADDWF   FSR1L, F
00009A B0D8           03415         BTFSC   STATUS, 0
00009C 2AE2           03416         INCF    FSR1H, F
                      03417 ;       .line   717; ../../../RF24Network_c/RF24Network_cg.c    memcpy(&msg_size,rn.frame_queue+8,2);
00009E 0E??           03418         MOVLW   HIGH(_RF24N_peek_msg_size_2_232)
Message[1301]: Using default destination of 0 (Access Bank).
0000A0 6E??           03419         MOVWF   r0x01
0000A2 0E??           03420         MOVLW   LOW(_RF24N_peek_msg_size_2_232)
Message[1301]: Using default destination of 0 (Access Bank).
0000A4 6E??           03421         MOVWF   r0x00
0000A6 0E80           03422         MOVLW   0x80
Message[1301]: Using default destination of 0 (Access Bank).
0000A8 6E??           03423         MOVWF   r0x02
0000AA 0E??           03424         MOVLW   HIGH(_rn + 67)
Message[1301]: Using default destination of 0 (Access Bank).
0000AC 6E??           03425         MOVWF   r0x04
0000AE 0E??           03426         MOVLW   LOW(_rn + 67)
Message[1301]: Using default destination of 0 (Access Bank).
0000B0 6E??           03427         MOVWF   r0x03
0000B2 0E80           03428         MOVLW   0x80
Message[1301]: Using default destination of 0 (Access Bank).
0000B4 6E??           03429         MOVWF   r0x05
gpasm-1.4.0 #1107 (May  9 2015) build/sdcc/pr   12-2-2016  22:31:29         PAGE 76


LOC    OBJECT CODE    LINE  SOURCE TEXT
  VALUE

0000B6 0E00           03430         MOVLW   0x00
Message[1301]: Using default destination of 0 (Access Bank).
0000B8 6EE5           03431         MOVWF   POSTDEC1
0000BA 0E02           03432         MOVLW   0x02
Message[1301]: Using default destination of 0 (Access Bank).
0000BC 6EE5           03433         MOVWF   POSTDEC1
0000BE 50??           03434         MOVF    r0x05, W
Message[1301]: Using default destination of 0 (Access Bank).
0000C0 6EE5           03435         MOVWF   POSTDEC1
0000C2 50??           03436         MOVF    r0x04, W
Message[1301]: Using default destination of 0 (Access Bank).
0000C4 6EE5           03437         MOVWF   POSTDEC1
0000C6 50??           03438         MOVF    r0x03, W
Message[1301]: Using default destination of 0 (Access Bank).
0000C8 6EE5           03439         MOVWF   POSTDEC1
0000CA 50??           03440         MOVF    r0x02, W
Message[1301]: Using default destination of 0 (Access Bank).
0000CC 6EE5           03441         MOVWF   POSTDEC1
0000CE 50??           03442         MOVF    r0x01, W
Message[1301]: Using default destination of 0 (Access Bank).
0000D0 6EE5           03443         MOVWF   POSTDEC1
0000D2 50??           03444         MOVF    r0x00, W
Message[1301]: Using default destination of 0 (Access Bank).
0000D4 6EE5           03445         MOVWF   POSTDEC1
0000D6 EC?? F0??      03446         CALL    _memcpy
0000DA 0E08           03447         MOVLW   0x08
0000DC 26E1           03448         ADDWF   FSR1L, F
0000DE B0D8           03449         BTFSC   STATUS, 0
0000E0 2AE2           03450         INCF    FSR1H, F
                      03451 ;       .line   718; ../../../RF24Network_c/RF24Network_cg.c    return msg_size;
0000E2 C??? F???      03452         MOVFF   (_RF24N_peek_msg_size_2_232 + 1), PRODL
0000E6 ????           03453         BANKSEL _RF24N_peek_msg_size_2_232
0000E8 51??           03454         MOVF    _RF24N_peek_msg_size_2_232, W, B
0000EA D???           03455         BRA     _00503_DS_
0000EC                03456 _00502_DS_:
                      03457 ;       .line   721; ../../../RF24Network_c/RF24Network_cg.c    return 0;
Message[1301]: Using default destination of 0 (Access Bank).
0000EC 6AF3           03458         CLRF    PRODL
Message[1301]: Using default destination of 0 (Access Bank).
0000EE 6AE8           03459         CLRF    WREG
0000F0                03460 _00503_DS_:
0000F0 CFE4 F000      03461         MOVFF   PREINC1, r0x05
0000F4 CFE4 F000      03462         MOVFF   PREINC1, r0x04
0000F8 CFE4 F000      03463         MOVFF   PREINC1, r0x03
0000FC CFE4 F000      03464         MOVFF   PREINC1, r0x02
000100 CFE4 F000      03465         MOVFF   PREINC1, r0x01
000104 CFE4 F000      03466         MOVFF   PREINC1, r0x00
000108 CFE4 FFD9      03467         MOVFF   PREINC1, FSR2L
00010C CFE4 FFDA      03468         MOVFF   PREINC1, FSR2H
000110 0012           03469         RETURN  
                      03470 
                      03471 ; ; Starting pCode block
                      03472 S_RF24Network_cg__RF24N_parent  code
gpasm-1.4.0 #1107 (May  9 2015) build/sdcc/pr   12-2-2016  22:31:29         PAGE 77


LOC    OBJECT CODE    LINE  SOURCE TEXT
  VALUE

000000                03473 _RF24N_parent:
                      03474 ;       .line   691; ../../../RF24Network_c/RF24Network_cg.c    uint16_t RF24N_parent(void) 
000000 CFDA FFE5      03475         MOVFF   FSR2H, POSTDEC1
000004 CFD9 FFE5      03476         MOVFF   FSR2L, POSTDEC1
000008 CFE2 FFDA      03477         MOVFF   FSR1H, FSR2H
00000C CFE1 FFD9      03478         MOVFF   FSR1L, FSR2L
000010 ????           03479         BANKSEL (_rn + 49)
                      03480 ;       .line   693; ../../../RF24Network_c/RF24Network_cg.c    if ( rn.node_address == 0 )
000012 51??           03481         MOVF    (_rn + 49), W, B
000014 ????           03482         BANKSEL (_rn + 50)
000016 11??           03483         IORWF   (_rn + 50), W, B
000018 E1??           03484         BNZ     _00494_DS_
                      03485 ;       .line   694; ../../../RF24Network_c/RF24Network_cg.c    return -1;
Message[1301]: Using default destination of 0 (Access Bank).
00001A 68F3           03486         SETF    PRODL
Message[1301]: Using default destination of 0 (Access Bank).
00001C 68E8           03487         SETF    WREG
00001E D???           03488         BRA     _00496_DS_
000020                03489 _00494_DS_:
                      03490 ;       .line   696; ../../../RF24Network_c/RF24Network_cg.c    return rn.parent_node;
000020 C??? F???      03491         MOVFF   (_rn + 55), PRODL
000024 ????           03492         BANKSEL (_rn + 54)
000026 51??           03493         MOVF    (_rn + 54), W, B
000028                03494 _00496_DS_:
000028 CFE4 FFD9      03495         MOVFF   PREINC1, FSR2L
00002C CFE4 FFDA      03496         MOVFF   PREINC1, FSR2H
000030 0012           03497         RETURN  
                      03498 
                      03499 ; ; Starting pCode block
                      03500 S_RF24Network_cg__RF24N_available       code
000000                03501 _RF24N_available:
                      03502 ;       .line   679; ../../../RF24Network_c/RF24Network_cg.c    uint8_t RF24N_available(void)
000000 CFDA FFE5      03503         MOVFF   FSR2H, POSTDEC1
000004 CFD9 FFE5      03504         MOVFF   FSR2L, POSTDEC1
000008 CFE2 FFDA      03505         MOVFF   FSR1H, FSR2H
00000C CFE1 FFD9      03506         MOVFF   FSR1L, FSR2L
000010 C??? F???      03507         MOVFF   r0x00, POSTDEC1
000014 C??? F???      03508         MOVFF   r0x01, POSTDEC1
000018 C??? F???      03509         MOVFF   r0x02, POSTDEC1
                      03510 ;       .line   685; ../../../RF24Network_c/RF24Network_cg.c    return (rn.next_frame > rn.frame_queue);
00001C 0E??           03511         MOVLW   HIGH(_rn + 59)
Message[1301]: Using default destination of 0 (Access Bank).
00001E 6E??           03512         MOVWF   r0x01
000020 0E??           03513         MOVLW   LOW(_rn + 59)
Message[1301]: Using default destination of 0 (Access Bank).
000022 6E??           03514         MOVWF   r0x00
000024 0E80           03515         MOVLW   0x80
Message[1301]: Using default destination of 0 (Access Bank).
000026 6E??           03516         MOVWF   r0x02
000028 ????           03517         BANKSEL (_rn + 215)
00002A 51??           03518         MOVF    (_rn + 215), W, B
00002C 5C??           03519         SUBWF   r0x02, W
00002E E1??           03520         BNZ     _00488_DS_
gpasm-1.4.0 #1107 (May  9 2015) build/sdcc/pr   12-2-2016  22:31:29         PAGE 78


LOC    OBJECT CODE    LINE  SOURCE TEXT
  VALUE

000030 ????           03521         BANKSEL (_rn + 214)
000032 51??           03522         MOVF    (_rn + 214), W, B
000034 5C??           03523         SUBWF   r0x01, W
000036 E1??           03524         BNZ     _00488_DS_
000038 ????           03525         BANKSEL (_rn + 213)
00003A 51??           03526         MOVF    (_rn + 213), W, B
00003C 5C??           03527         SUBWF   r0x00, W
00003E                03528 _00488_DS_:
00003E 70D8           03529         BTG     STATUS, 0
Message[1301]: Using default destination of 0 (Access Bank).
000040 6A??           03530         CLRF    r0x00
000042 36??           03531         RLCF    r0x00, F
000044 50??           03532         MOVF    r0x00, W
000046 CFE4 F000      03533         MOVFF   PREINC1, r0x02
00004A CFE4 F000      03534         MOVFF   PREINC1, r0x01
00004E CFE4 F000      03535         MOVFF   PREINC1, r0x00
000052 CFE4 FFD9      03536         MOVFF   PREINC1, FSR2L
000056 CFE4 FFDA      03537         MOVFF   PREINC1, FSR2H
00005A 0012           03538         RETURN  
                      03539 
                      03540 ; ; Starting pCode block
                      03541 S_RF24Network_cg__RF24N_enqueue code
000000                03542 _RF24N_enqueue:
                      03543 ;       .line   527; ../../../RF24Network_c/RF24Network_cg.c    uint8_t RF24N_enqueue( RF24NetworkHeader
                            * header)
000000 CFDA FFE5      03544         MOVFF   FSR2H, POSTDEC1
000004 CFD9 FFE5      03545         MOVFF   FSR2L, POSTDEC1
000008 CFE2 FFDA      03546         MOVFF   FSR1H, FSR2H
00000C CFE1 FFD9      03547         MOVFF   FSR1L, FSR2L
000010 C??? F???      03548         MOVFF   r0x00, POSTDEC1
000014 C??? F???      03549         MOVFF   r0x01, POSTDEC1
000018 C??? F???      03550         MOVFF   r0x02, POSTDEC1
00001C C??? F???      03551         MOVFF   r0x03, POSTDEC1
000020 C??? F???      03552         MOVFF   r0x04, POSTDEC1
000024 C??? F???      03553         MOVFF   r0x05, POSTDEC1
000028 C??? F???      03554         MOVFF   r0x06, POSTDEC1
00002C C??? F???      03555         MOVFF   r0x07, POSTDEC1
000030 C??? F???      03556         MOVFF   r0x08, POSTDEC1
000034 C??? F???      03557         MOVFF   r0x09, POSTDEC1
000038 C??? F???      03558         MOVFF   r0x0a, POSTDEC1
00003C C??? F???      03559         MOVFF   r0x0b, POSTDEC1
000040 C??? F???      03560         MOVFF   r0x0c, POSTDEC1
000044 C??? F???      03561         MOVFF   r0x0d, POSTDEC1
000048 C??? F???      03562         MOVFF   r0x0e, POSTDEC1
00004C 0E03           03563         MOVLW   0x03
00004E CFDB F000      03564         MOVFF   PLUSW2, r0x00
000052 0E04           03565         MOVLW   0x04
000054 CFDB F000      03566         MOVFF   PLUSW2, r0x01
000058 0E05           03567         MOVLW   0x05
00005A CFDB F000      03568         MOVFF   PLUSW2, r0x02
                      03569 ;       .line   530; ../../../RF24Network_c/RF24Network_cg.c    uint16_t message_size = rn.frame_size - 
                            sizeof(RF24NetworkHeader);
00005E C??? F???      03570         MOVFF   (_rn + 51), r0x03
gpasm-1.4.0 #1107 (May  9 2015) build/sdcc/pr   12-2-2016  22:31:29         PAGE 79


LOC    OBJECT CODE    LINE  SOURCE TEXT
  VALUE

Message[1301]: Using default destination of 0 (Access Bank).
000062 6A??           03571         CLRF    r0x04
000064 0EF8           03572         MOVLW   0xf8
000066 26??           03573         ADDWF   r0x03, F
000068 A0D8           03574         BTFSS   STATUS, 0
00006A 06??           03575         DECF    r0x04, F
00006C C??? F???      03576         MOVFF   r0x03, _RF24N_enqueue_message_size_1_208
000070 C??? F???      03577         MOVFF   r0x04, (_RF24N_enqueue_message_size_1_208 + 1)
                      03578 ;       .line   537; ../../../RF24Network_c/RF24Network_cg.c    isFragment = header->type == NETWORK_FIR
                            ST_FRAGMENT || header->type == NETWORK_MORE_FRAGMENTS || header->type == NETWORK_LAST_FRAGMENT || header
                            ->type == NETWORK_MORE_FRAGMENTS_NACK ;
000074 50??           03579         MOVF    r0x00, W
000076 0F06           03580         ADDLW   0x06
Message[1301]: Using default destination of 0 (Access Bank).
000078 6E??           03581         MOVWF   r0x05
00007A 0E00           03582         MOVLW   0x00
00007C 20??           03583         ADDWFC  r0x01, W
Message[1301]: Using default destination of 0 (Access Bank).
00007E 6E??           03584         MOVWF   r0x06
000080 0E00           03585         MOVLW   0x00
000082 20??           03586         ADDWFC  r0x02, W
Message[1301]: Using default destination of 0 (Access Bank).
000084 6E??           03587         MOVWF   r0x07
000086 C??? F???      03588         MOVFF   r0x05, FSR0L
00008A C??? F???      03589         MOVFF   r0x06, PRODL
00008E 50??           03590         MOVF    r0x07, W
000090 EC?? F0??      03591         CALL    __gptrget1
Message[1301]: Using default destination of 0 (Access Bank).
000094 6E??           03592         MOVWF   r0x08
000096 50??           03593         MOVF    r0x08, W
000098 0A94           03594         XORLW   0x94
00009A E0??           03595         BZ      _00370_DS_
00009C 50??           03596         MOVF    r0x08, W
00009E 0A95           03597         XORLW   0x95
0000A0 E0??           03598         BZ      _00370_DS_
0000A2 50??           03599         MOVF    r0x08, W
0000A4 0A96           03600         XORLW   0x96
0000A6 E0??           03601         BZ      _00370_DS_
0000A8 50??           03602         MOVF    r0x08, W
0000AA 0AC8           03603         XORLW   0xc8
0000AC E0??           03604         BZ      _00370_DS_
0000AE EF?? F0??      03605         GOTO    _00360_DS_
0000B2                03606 _00370_DS_:
                      03607 ;       .line   541; ../../../RF24Network_c/RF24Network_cg.c    if(header->type == NETWORK_FIRST_FRAGMEN
                            T){
0000B2 50??           03608         MOVF    r0x08, W
0000B4 0A94           03609         XORLW   0x94
0000B6 E0??           03610         BZ      _00450_DS_
0000B8 D???           03611         BRA     _00355_DS_
0000BA                03612 _00450_DS_:
                      03613 ;       .line   543; ../../../RF24Network_c/RF24Network_cg.c    if(header->reserved > (MAX_PAYLOAD_SIZE 
                            / rn.max_frame_payload_size) ){
0000BA 50??           03614         MOVF    r0x00, W
gpasm-1.4.0 #1107 (May  9 2015) build/sdcc/pr   12-2-2016  22:31:29         PAGE 80


LOC    OBJECT CODE    LINE  SOURCE TEXT
  VALUE

0000BC 0F07           03615         ADDLW   0x07
Message[1301]: Using default destination of 0 (Access Bank).
0000BE 6E??           03616         MOVWF   r0x09
0000C0 0E00           03617         MOVLW   0x00
0000C2 20??           03618         ADDWFC  r0x01, W
Message[1301]: Using default destination of 0 (Access Bank).
0000C4 6E??           03619         MOVWF   r0x0a
0000C6 0E00           03620         MOVLW   0x00
0000C8 20??           03621         ADDWFC  r0x02, W
Message[1301]: Using default destination of 0 (Access Bank).
0000CA 6E??           03622         MOVWF   r0x0b
0000CC C??? F???      03623         MOVFF   r0x09, FSR0L
0000D0 C??? F???      03624         MOVFF   r0x0a, PRODL
0000D4 50??           03625         MOVF    r0x0b, W
0000D6 EC?? F0??      03626         CALL    __gptrget1
Message[1301]: Using default destination of 0 (Access Bank).
0000DA 6E??           03627         MOVWF   r0x09
0000DC ????           03628         BANKSEL (_rn + 53)
0000DE 51??           03629         MOVF    (_rn + 53), W, B
Message[1301]: Using default destination of 0 (Access Bank).
0000E0 6EE5           03630         MOVWF   POSTDEC1
0000E2 ????           03631         BANKSEL (_rn + 52)
0000E4 51??           03632         MOVF    (_rn + 52), W, B
Message[1301]: Using default destination of 0 (Access Bank).
0000E6 6EE5           03633         MOVWF   POSTDEC1
0000E8 0E00           03634         MOVLW   0x00
Message[1301]: Using default destination of 0 (Access Bank).
0000EA 6EE5           03635         MOVWF   POSTDEC1
0000EC 0E0A           03636         MOVLW   0x0a
Message[1301]: Using default destination of 0 (Access Bank).
0000EE 6EE5           03637         MOVWF   POSTDEC1
0000F0 EC?? F0??      03638         CALL    __divuint
Message[1301]: Using default destination of 0 (Access Bank).
0000F4 6E??           03639         MOVWF   r0x0a
0000F6 CFF3 F000      03640         MOVFF   PRODL, r0x0b
0000FA 0E04           03641         MOVLW   0x04
0000FC 26E1           03642         ADDWF   FSR1L, F
0000FE B0D8           03643         BTFSC   STATUS, 0
000100 2AE2           03644         INCF    FSR1H, F
000102 50??           03645         MOVF    r0x0a, W
000104 089A           03646         SUBLW   0x9a
Message[1301]: Using default destination of 0 (Access Bank).
000106 6E??           03647         MOVWF   r0x0a
000108 0E00           03648         MOVLW   0x00
00010A 56??           03649         SUBFWB  r0x0b, F
00010C C??? F???      03650         MOVFF   r0x09, r0x0c
Message[1301]: Using default destination of 0 (Access Bank).
000110 6A??           03651         CLRF    r0x0d
000112 50??           03652         MOVF    r0x0d, W
000114 5C??           03653         SUBWF   r0x0b, W
000116 E1??           03654         BNZ     _00451_DS_
000118 50??           03655         MOVF    r0x0c, W
00011A 5C??           03656         SUBWF   r0x0a, W
gpasm-1.4.0 #1107 (May  9 2015) build/sdcc/pr   12-2-2016  22:31:29         PAGE 81


LOC    OBJECT CODE    LINE  SOURCE TEXT
  VALUE

00011C                03657 _00451_DS_:
00011C E2??           03658         BC      _00330_DS_
00011E ????           03659         BANKSEL (_rn + 223)
                      03660 ;       .line   548; ../../../RF24Network_c/RF24Network_cg.c    rn.frag_queue.header.reserved = 0;
000120 6B??           03661         CLRF    (_rn + 223), B
                      03662 ;       .line   549; ../../../RF24Network_c/RF24Network_cg.c    return 0;
Message[1301]: Using default destination of 0 (Access Bank).
000122 6AE8           03663         CLRF    WREG
000124 EF?? F0??      03664         GOTO    _00367_DS_
000128                03665 _00330_DS_:
                      03666 ;       .line   551; ../../../RF24Network_c/RF24Network_cg.c    if(rn.frag_queue.header.id == header->id
                             && rn.frag_queue.header.from_node == header->from_node){
000128 50??           03667         MOVF    r0x00, W
00012A 0F04           03668         ADDLW   0x04
Message[1301]: Using default destination of 0 (Access Bank).
00012C 6E??           03669         MOVWF   r0x0a
00012E 0E00           03670         MOVLW   0x00
000130 20??           03671         ADDWFC  r0x01, W
Message[1301]: Using default destination of 0 (Access Bank).
000132 6E??           03672         MOVWF   r0x0b
000134 0E00           03673         MOVLW   0x00
000136 20??           03674         ADDWFC  r0x02, W
Message[1301]: Using default destination of 0 (Access Bank).
000138 6E??           03675         MOVWF   r0x0c
00013A C??? F???      03676         MOVFF   r0x0a, FSR0L
00013E C??? F???      03677         MOVFF   r0x0b, PRODL
000142 50??           03678         MOVF    r0x0c, W
000144 EC?? F0??      03679         CALL    __gptrget2
Message[1301]: Using default destination of 0 (Access Bank).
000148 6E??           03680         MOVWF   r0x0a
00014A CFF3 F000      03681         MOVFF   PRODL, r0x0b
00014E ????           03682         BANKSEL (_rn + 220)
000150 51??           03683         MOVF    (_rn + 220), W, B
000152 18??           03684         XORWF   r0x0a, W
000154 E1??           03685         BNZ     _00452_DS_
000156 ????           03686         BANKSEL (_rn + 221)
000158 51??           03687         MOVF    (_rn + 221), W, B
00015A 18??           03688         XORWF   r0x0b, W
00015C E0??           03689         BZ      _00453_DS_
00015E                03690 _00452_DS_:
00015E D???           03691         BRA     _00331_DS_
000160                03692 _00453_DS_:
000160 C??? F???      03693         MOVFF   r0x00, FSR0L
000164 C??? F???      03694         MOVFF   r0x01, PRODL
000168 50??           03695         MOVF    r0x02, W
00016A EC?? F0??      03696         CALL    __gptrget2
Message[1301]: Using default destination of 0 (Access Bank).
00016E 6E??           03697         MOVWF   r0x0a
000170 CFF3 F000      03698         MOVFF   PRODL, r0x0b
000174 ????           03699         BANKSEL (_rn + 216)
000176 51??           03700         MOVF    (_rn + 216), W, B
000178 18??           03701         XORWF   r0x0a, W
00017A E1??           03702         BNZ     _00454_DS_
gpasm-1.4.0 #1107 (May  9 2015) build/sdcc/pr   12-2-2016  22:31:29         PAGE 82


LOC    OBJECT CODE    LINE  SOURCE TEXT
  VALUE

00017C ????           03703         BANKSEL (_rn + 217)
00017E 51??           03704         MOVF    (_rn + 217), W, B
000180 18??           03705         XORWF   r0x0b, W
000182 E0??           03706         BZ      _00455_DS_
000184                03707 _00454_DS_:
000184 D???           03708         BRA     _00331_DS_
000186                03709 _00455_DS_:
                      03710 ;       .line   552; ../../../RF24Network_c/RF24Network_cg.c    return 1;
000186 0E01           03711         MOVLW   0x01
000188 EF?? F0??      03712         GOTO    _00367_DS_
                      03713 ; ;multiply lit val:0x18 by variable r0x09 and store in r0x09
00018C                03714 _00331_DS_:
                      03715 ;       .line   555; ../../../RF24Network_c/RF24Network_cg.c    if( (header->reserved * 24) > (MAX_PAYLO
                            AD_SIZE - (rn.next_frame-rn.frame_queue)) ){
00018C 50??           03716         MOVF    r0x09, W
00018E 0D18           03717         MULLW   0x18
000190 50F4           03718         MOVF    PRODH, W
Message[1301]: Using default destination of 0 (Access Bank).
000192 6E??           03719         MOVWF   r0x0a
000194 CFF3 F000      03720         MOVFF   PRODL, r0x09
000198 0E??           03721         MOVLW   LOW(_rn + 59)
00019A ????           03722         BANKSEL (_rn + 213)
00019C 5D??           03723         SUBWF   (_rn + 213), W, B
Message[1301]: Using default destination of 0 (Access Bank).
00019E 6E??           03724         MOVWF   r0x0b
0001A0 0E??           03725         MOVLW   HIGH(_rn + 59)
0001A2 ????           03726         BANKSEL (_rn + 214)
0001A4 59??           03727         SUBWFB  (_rn + 214), W, B
Message[1301]: Using default destination of 0 (Access Bank).
0001A6 6E??           03728         MOVWF   r0x0c
0001A8 50??           03729         MOVF    r0x0b, W
0001AA 0890           03730         SUBLW   0x90
Message[1301]: Using default destination of 0 (Access Bank).
0001AC 6E??           03731         MOVWF   r0x0b
0001AE 0E00           03732         MOVLW   0x00
0001B0 56??           03733         SUBFWB  r0x0c, F
0001B2 50??           03734         MOVF    r0x0c, W
0001B4 0F80           03735         ADDLW   0x80
Message[1301]: Using default destination of 0 (Access Bank).
0001B6 6EF3           03736         MOVWF   PRODL
0001B8 50??           03737         MOVF    r0x0a, W
0001BA 0F80           03738         ADDLW   0x80
0001BC 5CF3           03739         SUBWF   PRODL, W
0001BE E1??           03740         BNZ     _00456_DS_
0001C0 50??           03741         MOVF    r0x09, W
0001C2 5C??           03742         SUBWF   r0x0b, W
0001C4                03743 _00456_DS_:
0001C4 E2??           03744         BC      _00333_DS_
                      03745 ;       .line   556; ../../../RF24Network_c/RF24Network_cg.c    rn.networkFlags |= FLAG_HOLD_INCOMING;
0001C6 0E01           03746         MOVLW   0x01
0001C8 ????           03747         BANKSEL (_rn + 43)
0001CA 11??           03748         IORWF   (_rn + 43), W, B
Message[1301]: Using default destination of 0 (Access Bank).
gpasm-1.4.0 #1107 (May  9 2015) build/sdcc/pr   12-2-2016  22:31:29         PAGE 83


LOC    OBJECT CODE    LINE  SOURCE TEXT
  VALUE

0001CC 6E??           03749         MOVWF   r0x09
0001CE 50??           03750         MOVF    r0x09, W
0001D0 ????           03751         BANKSEL (_rn + 43)
0001D2 6F??           03752         MOVWF   (_rn + 43), B
                      03753 ;       .line   557; ../../../RF24Network_c/RF24Network_cg.c    RF24_stopListening();
0001D4 EC?? F0??      03754         CALL    _RF24_stopListening
0001D8                03755 _00333_DS_:
                      03756 ;       .line   560; ../../../RF24Network_c/RF24Network_cg.c    memcpy(&rn.frag_queue,rn.frame_buffer,8)
                            ;
0001D8 0E??           03757         MOVLW   HIGH(_rn + 216)
Message[1301]: Using default destination of 0 (Access Bank).
0001DA 6E??           03758         MOVWF   r0x0a
0001DC 0E??           03759         MOVLW   LOW(_rn + 216)
Message[1301]: Using default destination of 0 (Access Bank).
0001DE 6E??           03760         MOVWF   r0x09
0001E0 0E80           03761         MOVLW   0x80
Message[1301]: Using default destination of 0 (Access Bank).
0001E2 6E??           03762         MOVWF   r0x0b
0001E4 0E??           03763         MOVLW   HIGH(_rn + 7)
Message[1301]: Using default destination of 0 (Access Bank).
0001E6 6E??           03764         MOVWF   r0x0d
0001E8 0E??           03765         MOVLW   LOW(_rn + 7)
Message[1301]: Using default destination of 0 (Access Bank).
0001EA 6E??           03766         MOVWF   r0x0c
0001EC 0E80           03767         MOVLW   0x80
Message[1301]: Using default destination of 0 (Access Bank).
0001EE 6E??           03768         MOVWF   r0x0e
0001F0 0E00           03769         MOVLW   0x00
Message[1301]: Using default destination of 0 (Access Bank).
0001F2 6EE5           03770         MOVWF   POSTDEC1
0001F4 0E08           03771         MOVLW   0x08
Message[1301]: Using default destination of 0 (Access Bank).
0001F6 6EE5           03772         MOVWF   POSTDEC1
0001F8 50??           03773         MOVF    r0x0e, W
Message[1301]: Using default destination of 0 (Access Bank).
0001FA 6EE5           03774         MOVWF   POSTDEC1
0001FC 50??           03775         MOVF    r0x0d, W
Message[1301]: Using default destination of 0 (Access Bank).
0001FE 6EE5           03776         MOVWF   POSTDEC1
000200 50??           03777         MOVF    r0x0c, W
Message[1301]: Using default destination of 0 (Access Bank).
000202 6EE5           03778         MOVWF   POSTDEC1
000204 50??           03779         MOVF    r0x0b, W
Message[1301]: Using default destination of 0 (Access Bank).
000206 6EE5           03780         MOVWF   POSTDEC1
000208 50??           03781         MOVF    r0x0a, W
Message[1301]: Using default destination of 0 (Access Bank).
00020A 6EE5           03782         MOVWF   POSTDEC1
00020C 50??           03783         MOVF    r0x09, W
Message[1301]: Using default destination of 0 (Access Bank).
00020E 6EE5           03784         MOVWF   POSTDEC1
000210 EC?? F0??      03785         CALL    _memcpy
000214 0E08           03786         MOVLW   0x08
gpasm-1.4.0 #1107 (May  9 2015) build/sdcc/pr   12-2-2016  22:31:29         PAGE 84


LOC    OBJECT CODE    LINE  SOURCE TEXT
  VALUE

000216 26E1           03787         ADDWF   FSR1L, F
000218 B0D8           03788         BTFSC   STATUS, 0
00021A 2AE2           03789         INCF    FSR1H, F
00021C ????           03790         BANKSEL (_rn + 228)
                      03791 ;       .line   561; ../../../RF24Network_c/RF24Network_cg.c    memcpy(rn.frag_queue.message_buffer,rn.f
                            rame_buffer+sizeof(RF24NetworkHeader),message_size);
00021E 51??           03792         MOVF    (_rn + 228), W, B
Message[1301]: Using default destination of 0 (Access Bank).
000220 6E??           03793         MOVWF   r0x0b
000222 ????           03794         BANKSEL (_rn + 227)
000224 51??           03795         MOVF    (_rn + 227), W, B
Message[1301]: Using default destination of 0 (Access Bank).
000226 6E??           03796         MOVWF   r0x0a
000228 ????           03797         BANKSEL (_rn + 226)
00022A 51??           03798         MOVF    (_rn + 226), W, B
Message[1301]: Using default destination of 0 (Access Bank).
00022C 6E??           03799         MOVWF   r0x09
00022E 0E??           03800         MOVLW   HIGH(_rn + 15)
Message[1301]: Using default destination of 0 (Access Bank).
000230 6E??           03801         MOVWF   r0x0d
000232 0E??           03802         MOVLW   LOW(_rn + 15)
Message[1301]: Using default destination of 0 (Access Bank).
000234 6E??           03803         MOVWF   r0x0c
000236 0E80           03804         MOVLW   0x80
Message[1301]: Using default destination of 0 (Access Bank).
000238 6E??           03805         MOVWF   r0x0e
00023A 50??           03806         MOVF    r0x04, W
Message[1301]: Using default destination of 0 (Access Bank).
00023C 6EE5           03807         MOVWF   POSTDEC1
00023E 50??           03808         MOVF    r0x03, W
Message[1301]: Using default destination of 0 (Access Bank).
000240 6EE5           03809         MOVWF   POSTDEC1
000242 50??           03810         MOVF    r0x0e, W
Message[1301]: Using default destination of 0 (Access Bank).
000244 6EE5           03811         MOVWF   POSTDEC1
000246 50??           03812         MOVF    r0x0d, W
Message[1301]: Using default destination of 0 (Access Bank).
000248 6EE5           03813         MOVWF   POSTDEC1
00024A 50??           03814         MOVF    r0x0c, W
Message[1301]: Using default destination of 0 (Access Bank).
00024C 6EE5           03815         MOVWF   POSTDEC1
00024E 50??           03816         MOVF    r0x0b, W
Message[1301]: Using default destination of 0 (Access Bank).
000250 6EE5           03817         MOVWF   POSTDEC1
000252 50??           03818         MOVF    r0x0a, W
Message[1301]: Using default destination of 0 (Access Bank).
000254 6EE5           03819         MOVWF   POSTDEC1
000256 50??           03820         MOVF    r0x09, W
Message[1301]: Using default destination of 0 (Access Bank).
000258 6EE5           03821         MOVWF   POSTDEC1
00025A EC?? F0??      03822         CALL    _memcpy
00025E 0E08           03823         MOVLW   0x08
000260 26E1           03824         ADDWF   FSR1L, F
gpasm-1.4.0 #1107 (May  9 2015) build/sdcc/pr   12-2-2016  22:31:29         PAGE 85


LOC    OBJECT CODE    LINE  SOURCE TEXT
  VALUE

000262 B0D8           03825         BTFSC   STATUS, 0
000264 2AE2           03826         INCF    FSR1H, F
                      03827 ;       .line   565; ../../../RF24Network_c/RF24Network_cg.c    rn.frag_queue.message_size = message_siz
                            e;
000266 50??           03828         MOVF    r0x03, W
000268 ????           03829         BANKSEL (_rn + 224)
00026A 6F??           03830         MOVWF   (_rn + 224), B
00026C 50??           03831         MOVF    r0x04, W
00026E ????           03832         BANKSEL (_rn + 225)
000270 6F??           03833         MOVWF   (_rn + 225), B
000272 ????           03834         BANKSEL (_rn + 223)
                      03835 ;       .line   566; ../../../RF24Network_c/RF24Network_cg.c    --rn.frag_queue.header.reserved;
000274 05??           03836         DECF    (_rn + 223), W, B
Message[1301]: Using default destination of 0 (Access Bank).
000276 6E??           03837         MOVWF   r0x09
000278 50??           03838         MOVF    r0x09, W
00027A ????           03839         BANKSEL (_rn + 223)
00027C 6F??           03840         MOVWF   (_rn + 223), B
                      03841 ;       .line   570; ../../../RF24Network_c/RF24Network_cg.c    return 1;               
00027E 0E01           03842         MOVLW   0x01
000280 EF?? F0??      03843         GOTO    _00367_DS_
000284                03844 _00355_DS_:
                      03845 ;       .line   573; ../../../RF24Network_c/RF24Network_cg.c    if(header->type == NETWORK_LAST_FRAGMENT
                             || header->type == NETWORK_MORE_FRAGMENTS || header->type == NETWORK_MORE_FRAGMENTS_NACK){
000284 50??           03846         MOVF    r0x08, W
000286 0A96           03847         XORLW   0x96
000288 E0??           03848         BZ      _00350_DS_
00028A 50??           03849         MOVF    r0x08, W
00028C 0A95           03850         XORLW   0x95
00028E E0??           03851         BZ      _00350_DS_
000290 50??           03852         MOVF    r0x08, W
000292 0AC8           03853         XORLW   0xc8
000294 E0??           03854         BZ      _00350_DS_
000296 D???           03855         BRA     _00361_DS_
000298                03856 _00350_DS_:
                      03857 ;       .line   575; ../../../RF24Network_c/RF24Network_cg.c    if(rn.frag_queue.message_size + message_
                            size > MAX_PAYLOAD_SIZE){
000298 C??? F???      03858         MOVFF   (_rn + 224), r0x09
00029C C??? F???      03859         MOVFF   (_rn + 225), r0x0a
0002A0 50??           03860         MOVF    r0x03, W
0002A2 24??           03861         ADDWF   r0x09, W
Message[1301]: Using default destination of 0 (Access Bank).
0002A4 6E??           03862         MOVWF   r0x0b
0002A6 50??           03863         MOVF    r0x04, W
0002A8 20??           03864         ADDWFC  r0x0a, W
Message[1301]: Using default destination of 0 (Access Bank).
0002AA 6E??           03865         MOVWF   r0x0c
0002AC 0E00           03866         MOVLW   0x00
0002AE 5C??           03867         SUBWF   r0x0c, W
0002B0 E1??           03868         BNZ     _00464_DS_
0002B2 0E91           03869         MOVLW   0x91
0002B4 5C??           03870         SUBWF   r0x0b, W
0002B6                03871 _00464_DS_:
gpasm-1.4.0 #1107 (May  9 2015) build/sdcc/pr   12-2-2016  22:31:29         PAGE 86


LOC    OBJECT CODE    LINE  SOURCE TEXT
  VALUE

0002B6 E3??           03872         BNC     _00335_DS_
0002B8 ????           03873         BANKSEL (_rn + 223)
                      03874 ;       .line   580; ../../../RF24Network_c/RF24Network_cg.c    rn.frag_queue.header.reserved=0;
0002BA 6B??           03875         CLRF    (_rn + 223), B
                      03876 ;       .line   581; ../../../RF24Network_c/RF24Network_cg.c    return 0;
Message[1301]: Using default destination of 0 (Access Bank).
0002BC 6AE8           03877         CLRF    WREG
0002BE EF?? F0??      03878         GOTO    _00367_DS_
0002C2                03879 _00335_DS_:
                      03880 ;       .line   583; ../../../RF24Network_c/RF24Network_cg.c    if(  rn.frag_queue.header.reserved == 0 
                            || (header->type != NETWORK_LAST_FRAGMENT && header->reserved != rn.frag_queue.header.reserved ) || rn.f
                            rag_queue.header.id != header->id ){
0002C2 C??? F???      03881         MOVFF   (_rn + 223), r0x0b
0002C6 50??           03882         MOVF    r0x0b, W
0002C8 E0??           03883         BZ      _00336_DS_
0002CA 50??           03884         MOVF    r0x08, W
0002CC 0A96           03885         XORLW   0x96
0002CE E0??           03886         BZ      _00340_DS_
0002D0 50??           03887         MOVF    r0x00, W
0002D2 0F07           03888         ADDLW   0x07
Message[1301]: Using default destination of 0 (Access Bank).
0002D4 6E??           03889         MOVWF   r0x0c
0002D6 0E00           03890         MOVLW   0x00
0002D8 20??           03891         ADDWFC  r0x01, W
Message[1301]: Using default destination of 0 (Access Bank).
0002DA 6E??           03892         MOVWF   r0x0d
0002DC 0E00           03893         MOVLW   0x00
0002DE 20??           03894         ADDWFC  r0x02, W
Message[1301]: Using default destination of 0 (Access Bank).
0002E0 6E??           03895         MOVWF   r0x0e
0002E2 C??? F???      03896         MOVFF   r0x0c, FSR0L
0002E6 C??? F???      03897         MOVFF   r0x0d, PRODL
0002EA 50??           03898         MOVF    r0x0e, W
0002EC EC?? F0??      03899         CALL    __gptrget1
Message[1301]: Using default destination of 0 (Access Bank).
0002F0 6E??           03900         MOVWF   r0x0c
0002F2 50??           03901         MOVF    r0x0c, W
0002F4 18??           03902         XORWF   r0x0b, W
0002F6 E1??           03903         BNZ     _00336_DS_
0002F8                03904 _00340_DS_:
0002F8 50??           03905         MOVF    r0x00, W
0002FA 0F04           03906         ADDLW   0x04
Message[1301]: Using default destination of 0 (Access Bank).
0002FC 6E??           03907         MOVWF   r0x0b
0002FE 0E00           03908         MOVLW   0x00
000300 20??           03909         ADDWFC  r0x01, W
Message[1301]: Using default destination of 0 (Access Bank).
000302 6E??           03910         MOVWF   r0x0c
000304 0E00           03911         MOVLW   0x00
000306 20??           03912         ADDWFC  r0x02, W
Message[1301]: Using default destination of 0 (Access Bank).
000308 6E??           03913         MOVWF   r0x0d
00030A C??? F???      03914         MOVFF   r0x0b, FSR0L
gpasm-1.4.0 #1107 (May  9 2015) build/sdcc/pr   12-2-2016  22:31:29         PAGE 87


LOC    OBJECT CODE    LINE  SOURCE TEXT
  VALUE

00030E C??? F???      03915         MOVFF   r0x0c, PRODL
000312 50??           03916         MOVF    r0x0d, W
000314 EC?? F0??      03917         CALL    __gptrget2
Message[1301]: Using default destination of 0 (Access Bank).
000318 6E??           03918         MOVWF   r0x0b
00031A CFF3 F000      03919         MOVFF   PRODL, r0x0c
00031E ????           03920         BANKSEL (_rn + 220)
000320 51??           03921         MOVF    (_rn + 220), W, B
000322 18??           03922         XORWF   r0x0b, W
000324 E1??           03923         BNZ     _00336_DS_
000326 ????           03924         BANKSEL (_rn + 221)
000328 51??           03925         MOVF    (_rn + 221), W, B
00032A 18??           03926         XORWF   r0x0c, W
00032C E0??           03927         BZ      _00337_DS_
00032E                03928 _00336_DS_:
                      03929 ;       .line   589; ../../../RF24Network_c/RF24Network_cg.c    return 0;
Message[1301]: Using default destination of 0 (Access Bank).
00032E 6AE8           03930         CLRF    WREG
000330 EF?? F0??      03931         GOTO    _00367_DS_
000334                03932 _00337_DS_:
                      03933 ;       .line   592; ../../../RF24Network_c/RF24Network_cg.c    memcpy(rn.frag_queue.message_buffer+rn.f
                            rag_queue.message_size,rn.frame_buffer+sizeof(RF24NetworkHeader),message_size);
Message[1301]: Using default destination of 0 (Access Bank).
000334 6A??           03934         CLRF    r0x0b
000336 ????           03935         BANKSEL (_rn + 226)
000338 51??           03936         MOVF    (_rn + 226), W, B
00033A 26??           03937         ADDWF   r0x09, F
00033C ????           03938         BANKSEL (_rn + 227)
00033E 51??           03939         MOVF    (_rn + 227), W, B
000340 22??           03940         ADDWFC  r0x0a, F
000342 ????           03941         BANKSEL (_rn + 228)
000344 51??           03942         MOVF    (_rn + 228), W, B
000346 22??           03943         ADDWFC  r0x0b, F
000348 50??           03944         MOVF    r0x0b, W
Message[1301]: Using default destination of 0 (Access Bank).
00034A 6E??           03945         MOVWF   r0x0b
00034C 50??           03946         MOVF    r0x0a, W
Message[1301]: Using default destination of 0 (Access Bank).
00034E 6E??           03947         MOVWF   r0x0a
000350 50??           03948         MOVF    r0x09, W
Message[1301]: Using default destination of 0 (Access Bank).
000352 6E??           03949         MOVWF   r0x09
000354 0E??           03950         MOVLW   HIGH(_rn + 15)
Message[1301]: Using default destination of 0 (Access Bank).
000356 6E??           03951         MOVWF   r0x0d
000358 0E??           03952         MOVLW   LOW(_rn + 15)
Message[1301]: Using default destination of 0 (Access Bank).
00035A 6E??           03953         MOVWF   r0x0c
00035C 0E80           03954         MOVLW   0x80
Message[1301]: Using default destination of 0 (Access Bank).
00035E 6E??           03955         MOVWF   r0x0e
000360 50??           03956         MOVF    r0x04, W
Message[1301]: Using default destination of 0 (Access Bank).
gpasm-1.4.0 #1107 (May  9 2015) build/sdcc/pr   12-2-2016  22:31:29         PAGE 88


LOC    OBJECT CODE    LINE  SOURCE TEXT
  VALUE

000362 6EE5           03957         MOVWF   POSTDEC1
000364 50??           03958         MOVF    r0x03, W
Message[1301]: Using default destination of 0 (Access Bank).
000366 6EE5           03959         MOVWF   POSTDEC1
000368 50??           03960         MOVF    r0x0e, W
Message[1301]: Using default destination of 0 (Access Bank).
00036A 6EE5           03961         MOVWF   POSTDEC1
00036C 50??           03962         MOVF    r0x0d, W
Message[1301]: Using default destination of 0 (Access Bank).
00036E 6EE5           03963         MOVWF   POSTDEC1
000370 50??           03964         MOVF    r0x0c, W
Message[1301]: Using default destination of 0 (Access Bank).
000372 6EE5           03965         MOVWF   POSTDEC1
000374 50??           03966         MOVF    r0x0b, W
Message[1301]: Using default destination of 0 (Access Bank).
000376 6EE5           03967         MOVWF   POSTDEC1
000378 50??           03968         MOVF    r0x0a, W
Message[1301]: Using default destination of 0 (Access Bank).
00037A 6EE5           03969         MOVWF   POSTDEC1
00037C 50??           03970         MOVF    r0x09, W
Message[1301]: Using default destination of 0 (Access Bank).
00037E 6EE5           03971         MOVWF   POSTDEC1
000380 EC?? F0??      03972         CALL    _memcpy
000384 0E08           03973         MOVLW   0x08
000386 26E1           03974         ADDWF   FSR1L, F
000388 B0D8           03975         BTFSC   STATUS, 0
00038A 2AE2           03976         INCF    FSR1H, F
                      03977 ;       .line   593; ../../../RF24Network_c/RF24Network_cg.c    rn.frag_queue.message_size += message_si
                            ze;
00038C 50??           03978         MOVF    r0x03, W
00038E ????           03979         BANKSEL (_rn + 224)
000390 25??           03980         ADDWF   (_rn + 224), W, B
Message[1301]: Using default destination of 0 (Access Bank).
000392 6E??           03981         MOVWF   r0x09
000394 50??           03982         MOVF    r0x04, W
000396 ????           03983         BANKSEL (_rn + 225)
000398 21??           03984         ADDWFC  (_rn + 225), W, B
Message[1301]: Using default destination of 0 (Access Bank).
00039A 6E??           03985         MOVWF   r0x0a
00039C 50??           03986         MOVF    r0x09, W
00039E ????           03987         BANKSEL (_rn + 224)
0003A0 6F??           03988         MOVWF   (_rn + 224), B
0003A2 50??           03989         MOVF    r0x0a, W
0003A4 ????           03990         BANKSEL (_rn + 225)
0003A6 6F??           03991         MOVWF   (_rn + 225), B
                      03992 ;       .line   595; ../../../RF24Network_c/RF24Network_cg.c    if(header->type != NETWORK_LAST_FRAGMENT
                            ){
0003A8 C??? F???      03993         MOVFF   r0x05, FSR0L
0003AC C??? F???      03994         MOVFF   r0x06, PRODL
0003B0 50??           03995         MOVF    r0x07, W
0003B2 EC?? F0??      03996         CALL    __gptrget1
Message[1301]: Using default destination of 0 (Access Bank).
0003B6 6E??           03997         MOVWF   r0x05
gpasm-1.4.0 #1107 (May  9 2015) build/sdcc/pr   12-2-2016  22:31:29         PAGE 89


LOC    OBJECT CODE    LINE  SOURCE TEXT
  VALUE

0003B8 50??           03998         MOVF    r0x05, W
0003BA 0A96           03999         XORLW   0x96
0003BC E0??           04000         BZ      _00342_DS_
0003BE                04001 _00472_DS_:
0003BE ????           04002         BANKSEL (_rn + 223)
                      04003 ;       .line   596; ../../../RF24Network_c/RF24Network_cg.c    --rn.frag_queue.header.reserved;
0003C0 05??           04004         DECF    (_rn + 223), W, B
Message[1301]: Using default destination of 0 (Access Bank).
0003C2 6E??           04005         MOVWF   r0x05
0003C4 50??           04006         MOVF    r0x05, W
0003C6 ????           04007         BANKSEL (_rn + 223)
0003C8 6F??           04008         MOVWF   (_rn + 223), B
                      04009 ;       .line   597; ../../../RF24Network_c/RF24Network_cg.c    return 1;
0003CA 0E01           04010         MOVLW   0x01
0003CC EF?? F0??      04011         GOTO    _00367_DS_
0003D0                04012 _00342_DS_:
0003D0 ????           04013         BANKSEL (_rn + 223)
                      04014 ;       .line   599; ../../../RF24Network_c/RF24Network_cg.c    rn.frag_queue.header.reserved = 0;
0003D2 6B??           04015         CLRF    (_rn + 223), B
                      04016 ;       .line   600; ../../../RF24Network_c/RF24Network_cg.c    rn.frag_queue.header.type = header->rese
                            rved;
0003D4 0E07           04017         MOVLW   0x07
0003D6 26??           04018         ADDWF   r0x00, F
0003D8 0E00           04019         MOVLW   0x00
0003DA 22??           04020         ADDWFC  r0x01, F
0003DC 22??           04021         ADDWFC  r0x02, F
0003DE C??? F???      04022         MOVFF   r0x00, FSR0L
0003E2 C??? F???      04023         MOVFF   r0x01, PRODL
0003E6 50??           04024         MOVF    r0x02, W
0003E8 EC?? F0??      04025         CALL    __gptrget1
Message[1301]: Using default destination of 0 (Access Bank).
0003EC 6E??           04026         MOVWF   r0x00
0003EE 50??           04027         MOVF    r0x00, W
0003F0 ????           04028         BANKSEL (_rn + 222)
0003F2 6F??           04029         MOVWF   (_rn + 222), B
                      04030 ;       .line   606; ../../../RF24Network_c/RF24Network_cg.c    if(rn.frag_queue.header.type == EXTERNAL
                            _DATA_TYPE){
0003F4 50??           04031         MOVF    r0x00, W
0003F6 0A83           04032         XORLW   0x83
0003F8 E1??           04033         BNZ     _00344_DS_
                      04034 ;       .line   607; ../../../RF24Network_c/RF24Network_cg.c    return 2;
0003FA 0E02           04035         MOVLW   0x02
0003FC EF?? F0??      04036         GOTO    _00367_DS_
000400                04037 _00344_DS_:
                      04038 ;       .line   613; ../../../RF24Network_c/RF24Network_cg.c    if(MAX_PAYLOAD_SIZE - (rn.next_frame-rn.
                            frame_queue) >= rn.frag_queue.message_size){
000400 C??? F???      04039         MOVFF   (_rn + 213), r0x00
000404 C??? F???      04040         MOVFF   (_rn + 214), r0x01
000408 C??? F???      04041         MOVFF   (_rn + 215), r0x02
00040C 0E??           04042         MOVLW   LOW(_rn + 59)
00040E 5C??           04043         SUBWF   r0x00, W
Message[1301]: Using default destination of 0 (Access Bank).
000410 6E??           04044         MOVWF   r0x05
gpasm-1.4.0 #1107 (May  9 2015) build/sdcc/pr   12-2-2016  22:31:29         PAGE 90


LOC    OBJECT CODE    LINE  SOURCE TEXT
  VALUE

000412 0E??           04045         MOVLW   HIGH(_rn + 59)
000414 58??           04046         SUBWFB  r0x01, W
Message[1301]: Using default destination of 0 (Access Bank).
000416 6E??           04047         MOVWF   r0x06
000418 50??           04048         MOVF    r0x05, W
00041A 0890           04049         SUBLW   0x90
Message[1301]: Using default destination of 0 (Access Bank).
00041C 6E??           04050         MOVWF   r0x05
00041E 0E00           04051         MOVLW   0x00
000420 56??           04052         SUBFWB  r0x06, F
000422 ????           04053         BANKSEL (_rn + 225)
000424 51??           04054         MOVF    (_rn + 225), W, B
000426 5C??           04055         SUBWF   r0x06, W
000428 E1??           04056         BNZ     _00475_DS_
00042A ????           04057         BANKSEL (_rn + 224)
00042C 51??           04058         MOVF    (_rn + 224), W, B
00042E 5C??           04059         SUBWF   r0x05, W
000430                04060 _00475_DS_:
000430 A0D8           04061         BTFSS   STATUS, 0
000432 D???           04062         BRA     _00348_DS_
                      04063 ;       .line   615; ../../../RF24Network_c/RF24Network_cg.c    memcpy(rn.next_frame,&rn.frag_queue,10);
000434 50??           04064         MOVF    r0x02, W
Message[1301]: Using default destination of 0 (Access Bank).
000436 6E??           04065         MOVWF   r0x02
000438 50??           04066         MOVF    r0x01, W
Message[1301]: Using default destination of 0 (Access Bank).
00043A 6E??           04067         MOVWF   r0x01
00043C 50??           04068         MOVF    r0x00, W
Message[1301]: Using default destination of 0 (Access Bank).
00043E 6E??           04069         MOVWF   r0x00
000440 0E??           04070         MOVLW   HIGH(_rn + 216)
Message[1301]: Using default destination of 0 (Access Bank).
000442 6E??           04071         MOVWF   r0x06
000444 0E??           04072         MOVLW   LOW(_rn + 216)
Message[1301]: Using default destination of 0 (Access Bank).
000446 6E??           04073         MOVWF   r0x05
000448 0E80           04074         MOVLW   0x80
Message[1301]: Using default destination of 0 (Access Bank).
00044A 6E??           04075         MOVWF   r0x07
00044C 0E00           04076         MOVLW   0x00
Message[1301]: Using default destination of 0 (Access Bank).
00044E 6EE5           04077         MOVWF   POSTDEC1
000450 0E0A           04078         MOVLW   0x0a
Message[1301]: Using default destination of 0 (Access Bank).
000452 6EE5           04079         MOVWF   POSTDEC1
000454 50??           04080         MOVF    r0x07, W
Message[1301]: Using default destination of 0 (Access Bank).
000456 6EE5           04081         MOVWF   POSTDEC1
000458 50??           04082         MOVF    r0x06, W
Message[1301]: Using default destination of 0 (Access Bank).
00045A 6EE5           04083         MOVWF   POSTDEC1
00045C 50??           04084         MOVF    r0x05, W
Message[1301]: Using default destination of 0 (Access Bank).
gpasm-1.4.0 #1107 (May  9 2015) build/sdcc/pr   12-2-2016  22:31:29         PAGE 91


LOC    OBJECT CODE    LINE  SOURCE TEXT
  VALUE

00045E 6EE5           04085         MOVWF   POSTDEC1
000460 50??           04086         MOVF    r0x02, W
Message[1301]: Using default destination of 0 (Access Bank).
000462 6EE5           04087         MOVWF   POSTDEC1
000464 50??           04088         MOVF    r0x01, W
Message[1301]: Using default destination of 0 (Access Bank).
000466 6EE5           04089         MOVWF   POSTDEC1
000468 50??           04090         MOVF    r0x00, W
Message[1301]: Using default destination of 0 (Access Bank).
00046A 6EE5           04091         MOVWF   POSTDEC1
00046C EC?? F0??      04092         CALL    _memcpy
000470 0E08           04093         MOVLW   0x08
000472 26E1           04094         ADDWF   FSR1L, F
000474 B0D8           04095         BTFSC   STATUS, 0
000476 2AE2           04096         INCF    FSR1H, F
000478 ????           04097         BANKSEL (_rn + 213)
                      04098 ;       .line   616; ../../../RF24Network_c/RF24Network_cg.c    memcpy(rn.next_frame+10,rn.frag_queue.me
                            ssage_buffer,rn.frag_queue.message_size);
00047A 51??           04099         MOVF    (_rn + 213), W, B
00047C 0F0A           04100         ADDLW   0x0a
Message[1301]: Using default destination of 0 (Access Bank).
00047E 6E??           04101         MOVWF   r0x00
000480 0E00           04102         MOVLW   0x00
000482 ????           04103         BANKSEL (_rn + 214)
000484 21??           04104         ADDWFC  (_rn + 214), W, B
Message[1301]: Using default destination of 0 (Access Bank).
000486 6E??           04105         MOVWF   r0x01
000488 0E00           04106         MOVLW   0x00
00048A ????           04107         BANKSEL (_rn + 215)
00048C 21??           04108         ADDWFC  (_rn + 215), W, B
Message[1301]: Using default destination of 0 (Access Bank).
00048E 6E??           04109         MOVWF   r0x02
000490 50??           04110         MOVF    r0x02, W
Message[1301]: Using default destination of 0 (Access Bank).
000492 6E??           04111         MOVWF   r0x02
000494 50??           04112         MOVF    r0x01, W
Message[1301]: Using default destination of 0 (Access Bank).
000496 6E??           04113         MOVWF   r0x01
000498 50??           04114         MOVF    r0x00, W
Message[1301]: Using default destination of 0 (Access Bank).
00049A 6E??           04115         MOVWF   r0x00
00049C ????           04116         BANKSEL (_rn + 228)
00049E 51??           04117         MOVF    (_rn + 228), W, B
Message[1301]: Using default destination of 0 (Access Bank).
0004A0 6E??           04118         MOVWF   r0x07
0004A2 ????           04119         BANKSEL (_rn + 227)
0004A4 51??           04120         MOVF    (_rn + 227), W, B
Message[1301]: Using default destination of 0 (Access Bank).
0004A6 6E??           04121         MOVWF   r0x06
0004A8 ????           04122         BANKSEL (_rn + 226)
0004AA 51??           04123         MOVF    (_rn + 226), W, B
Message[1301]: Using default destination of 0 (Access Bank).
0004AC 6E??           04124         MOVWF   r0x05
gpasm-1.4.0 #1107 (May  9 2015) build/sdcc/pr   12-2-2016  22:31:29         PAGE 92


LOC    OBJECT CODE    LINE  SOURCE TEXT
  VALUE

0004AE ????           04125         BANKSEL (_rn + 225)
0004B0 51??           04126         MOVF    (_rn + 225), W, B
Message[1301]: Using default destination of 0 (Access Bank).
0004B2 6EE5           04127         MOVWF   POSTDEC1
0004B4 ????           04128         BANKSEL (_rn + 224)
0004B6 51??           04129         MOVF    (_rn + 224), W, B
Message[1301]: Using default destination of 0 (Access Bank).
0004B8 6EE5           04130         MOVWF   POSTDEC1
0004BA 50??           04131         MOVF    r0x07, W
Message[1301]: Using default destination of 0 (Access Bank).
0004BC 6EE5           04132         MOVWF   POSTDEC1
0004BE 50??           04133         MOVF    r0x06, W
Message[1301]: Using default destination of 0 (Access Bank).
0004C0 6EE5           04134         MOVWF   POSTDEC1
0004C2 50??           04135         MOVF    r0x05, W
Message[1301]: Using default destination of 0 (Access Bank).
0004C4 6EE5           04136         MOVWF   POSTDEC1
0004C6 50??           04137         MOVF    r0x02, W
Message[1301]: Using default destination of 0 (Access Bank).
0004C8 6EE5           04138         MOVWF   POSTDEC1
0004CA 50??           04139         MOVF    r0x01, W
Message[1301]: Using default destination of 0 (Access Bank).
0004CC 6EE5           04140         MOVWF   POSTDEC1
0004CE 50??           04141         MOVF    r0x00, W
Message[1301]: Using default destination of 0 (Access Bank).
0004D0 6EE5           04142         MOVWF   POSTDEC1
0004D2 EC?? F0??      04143         CALL    _memcpy
0004D6 0E08           04144         MOVLW   0x08
0004D8 26E1           04145         ADDWF   FSR1L, F
0004DA B0D8           04146         BTFSC   STATUS, 0
0004DC 2AE2           04147         INCF    FSR1H, F
0004DE ????           04148         BANKSEL (_rn + 224)
                      04149 ;       .line   617; ../../../RF24Network_c/RF24Network_cg.c    rn.next_frame += (10+rn.frag_queue.messa
                            ge_size);
0004E0 51??           04150         MOVF    (_rn + 224), W, B
0004E2 0F0A           04151         ADDLW   0x0a
Message[1301]: Using default destination of 0 (Access Bank).
0004E4 6E??           04152         MOVWF   r0x00
0004E6 0E00           04153         MOVLW   0x00
0004E8 ????           04154         BANKSEL (_rn + 225)
0004EA 21??           04155         ADDWFC  (_rn + 225), W, B
Message[1301]: Using default destination of 0 (Access Bank).
0004EC 6E??           04156         MOVWF   r0x01
Message[1301]: Using default destination of 0 (Access Bank).
0004EE 6A??           04157         CLRF    r0x02
0004F0 ????           04158         BANKSEL (_rn + 213)
0004F2 51??           04159         MOVF    (_rn + 213), W, B
0004F4 26??           04160         ADDWF   r0x00, F
0004F6 ????           04161         BANKSEL (_rn + 214)
0004F8 51??           04162         MOVF    (_rn + 214), W, B
0004FA 22??           04163         ADDWFC  r0x01, F
0004FC ????           04164         BANKSEL (_rn + 215)
0004FE 51??           04165         MOVF    (_rn + 215), W, B
gpasm-1.4.0 #1107 (May  9 2015) build/sdcc/pr   12-2-2016  22:31:29         PAGE 93


LOC    OBJECT CODE    LINE  SOURCE TEXT
  VALUE

000500 22??           04166         ADDWFC  r0x02, F
000502 50??           04167         MOVF    r0x00, W
000504 ????           04168         BANKSEL (_rn + 213)
000506 6F??           04169         MOVWF   (_rn + 213), B
000508 50??           04170         MOVF    r0x01, W
00050A ????           04171         BANKSEL (_rn + 214)
00050C 6F??           04172         MOVWF   (_rn + 214), B
00050E 50??           04173         MOVF    r0x02, W
000510 ????           04174         BANKSEL (_rn + 215)
000512 6F??           04175         MOVWF   (_rn + 215), B
000514 ????           04176         BANKSEL (_rn + 224)
                      04177 ;       .line   619; ../../../RF24Network_c/RF24Network_cg.c    if((padding = (rn.frag_queue.message_siz
                            e+10)%4)){
000516 51??           04178         MOVF    (_rn + 224), W, B
000518 0F0A           04179         ADDLW   0x0a
Message[1301]: Using default destination of 0 (Access Bank).
00051A 6E??           04180         MOVWF   r0x00
00051C 0E00           04181         MOVLW   0x00
00051E ????           04182         BANKSEL (_rn + 225)
000520 21??           04183         ADDWFC  (_rn + 225), W, B
Message[1301]: Using default destination of 0 (Access Bank).
000522 6E??           04184         MOVWF   r0x01
000524 0E03           04185         MOVLW   0x03
000526 16??           04186         ANDWF   r0x00, F
Message[1301]: Using default destination of 0 (Access Bank).
000528 6A??           04187         CLRF    r0x01
00052A C??? F???      04188         MOVFF   r0x00, r0x01
00052E 50??           04189         MOVF    r0x00, W
000530 E0??           04190         BZ      _00346_DS_
                      04191 ;       .line   620; ../../../RF24Network_c/RF24Network_cg.c    rn.next_frame += 4 - padding;
Message[1301]: Using default destination of 0 (Access Bank).
000532 6A??           04192         CLRF    r0x00
000534 50??           04193         MOVF    r0x01, W
000536 0804           04194         SUBLW   0x04
Message[1301]: Using default destination of 0 (Access Bank).
000538 6E??           04195         MOVWF   r0x01
00053A 0E00           04196         MOVLW   0x00
00053C 56??           04197         SUBFWB  r0x00, F
Message[1301]: Using default destination of 0 (Access Bank).
00053E 6A??           04198         CLRF    r0x02
000540 BE??           04199         BTFSC   r0x00, 7
Message[1301]: Using default destination of 0 (Access Bank).
000542 68??           04200         SETF    r0x02
000544 ????           04201         BANKSEL (_rn + 213)
000546 51??           04202         MOVF    (_rn + 213), W, B
000548 26??           04203         ADDWF   r0x01, F
00054A ????           04204         BANKSEL (_rn + 214)
00054C 51??           04205         MOVF    (_rn + 214), W, B
00054E 22??           04206         ADDWFC  r0x00, F
000550 ????           04207         BANKSEL (_rn + 215)
000552 51??           04208         MOVF    (_rn + 215), W, B
000554 22??           04209         ADDWFC  r0x02, F
000556 50??           04210         MOVF    r0x01, W
gpasm-1.4.0 #1107 (May  9 2015) build/sdcc/pr   12-2-2016  22:31:29         PAGE 94


LOC    OBJECT CODE    LINE  SOURCE TEXT
  VALUE

000558 ????           04211         BANKSEL (_rn + 213)
00055A 6F??           04212         MOVWF   (_rn + 213), B
00055C 50??           04213         MOVF    r0x00, W
00055E ????           04214         BANKSEL (_rn + 214)
000560 6F??           04215         MOVWF   (_rn + 214), B
000562 50??           04216         MOVF    r0x02, W
000564 ????           04217         BANKSEL (_rn + 215)
000566 6F??           04218         MOVWF   (_rn + 215), B
000568                04219 _00346_DS_:
                      04220 ;       .line   624; ../../../RF24Network_c/RF24Network_cg.c    return 1;
000568 0E01           04221         MOVLW   0x01
00056A D???           04222         BRA     _00367_DS_
00056C                04223 _00348_DS_:
                      04224 ;       .line   626; ../../../RF24Network_c/RF24Network_cg.c    RF24_stopListening();
00056C EC?? F0??      04225         CALL    _RF24_stopListening
                      04226 ;       .line   627; ../../../RF24Network_c/RF24Network_cg.c    rn.networkFlags |= FLAG_HOLD_INCOMING;  
                                    
000570 0E01           04227         MOVLW   0x01
000572 ????           04228         BANKSEL (_rn + 43)
000574 11??           04229         IORWF   (_rn + 43), W, B
Message[1301]: Using default destination of 0 (Access Bank).
000576 6E??           04230         MOVWF   r0x00
000578 50??           04231         MOVF    r0x00, W
00057A ????           04232         BANKSEL (_rn + 43)
00057C 6F??           04233         MOVWF   (_rn + 43), B
                      04234 ;       .line   630; ../../../RF24Network_c/RF24Network_cg.c    return 0;
Message[1301]: Using default destination of 0 (Access Bank).
00057E 6AE8           04235         CLRF    WREG
000580 D???           04236         BRA     _00367_DS_
000582                04237 _00360_DS_:
                      04238 ;       .line   640; ../../../RF24Network_c/RF24Network_cg.c    if(header->type == EXTERNAL_DATA_TYPE){
000582 50??           04239         MOVF    r0x08, W
000584 0A83           04240         XORLW   0x83
000586 E0??           04241         BZ      _00479_DS_
000588 D???           04242         BRA     _00361_DS_
00058A                04243 _00479_DS_:
                      04244 ;       .line   641; ../../../RF24Network_c/RF24Network_cg.c    memcpy(&rn.frag_queue,rn.frame_buffer,8)
                            ;
00058A 0E??           04245         MOVLW   HIGH(_rn + 216)
Message[1301]: Using default destination of 0 (Access Bank).
00058C 6E??           04246         MOVWF   r0x01
00058E 0E??           04247         MOVLW   LOW(_rn + 216)
Message[1301]: Using default destination of 0 (Access Bank).
000590 6E??           04248         MOVWF   r0x00
000592 0E80           04249         MOVLW   0x80
Message[1301]: Using default destination of 0 (Access Bank).
000594 6E??           04250         MOVWF   r0x02
000596 0E??           04251         MOVLW   HIGH(_rn + 7)
Message[1301]: Using default destination of 0 (Access Bank).
000598 6E??           04252         MOVWF   r0x06
00059A 0E??           04253         MOVLW   LOW(_rn + 7)
Message[1301]: Using default destination of 0 (Access Bank).
00059C 6E??           04254         MOVWF   r0x05
gpasm-1.4.0 #1107 (May  9 2015) build/sdcc/pr   12-2-2016  22:31:29         PAGE 95


LOC    OBJECT CODE    LINE  SOURCE TEXT
  VALUE

00059E 0E80           04255         MOVLW   0x80
Message[1301]: Using default destination of 0 (Access Bank).
0005A0 6E??           04256         MOVWF   r0x07
0005A2 0E00           04257         MOVLW   0x00
Message[1301]: Using default destination of 0 (Access Bank).
0005A4 6EE5           04258         MOVWF   POSTDEC1
0005A6 0E08           04259         MOVLW   0x08
Message[1301]: Using default destination of 0 (Access Bank).
0005A8 6EE5           04260         MOVWF   POSTDEC1
0005AA 50??           04261         MOVF    r0x07, W
Message[1301]: Using default destination of 0 (Access Bank).
0005AC 6EE5           04262         MOVWF   POSTDEC1
0005AE 50??           04263         MOVF    r0x06, W
Message[1301]: Using default destination of 0 (Access Bank).
0005B0 6EE5           04264         MOVWF   POSTDEC1
0005B2 50??           04265         MOVF    r0x05, W
Message[1301]: Using default destination of 0 (Access Bank).
0005B4 6EE5           04266         MOVWF   POSTDEC1
0005B6 50??           04267         MOVF    r0x02, W
Message[1301]: Using default destination of 0 (Access Bank).
0005B8 6EE5           04268         MOVWF   POSTDEC1
0005BA 50??           04269         MOVF    r0x01, W
Message[1301]: Using default destination of 0 (Access Bank).
0005BC 6EE5           04270         MOVWF   POSTDEC1
0005BE 50??           04271         MOVF    r0x00, W
Message[1301]: Using default destination of 0 (Access Bank).
0005C0 6EE5           04272         MOVWF   POSTDEC1
0005C2 EC?? F0??      04273         CALL    _memcpy
0005C6 0E08           04274         MOVLW   0x08
0005C8 26E1           04275         ADDWF   FSR1L, F
0005CA B0D8           04276         BTFSC   STATUS, 0
0005CC 2AE2           04277         INCF    FSR1H, F
                      04278 ;       .line   642; ../../../RF24Network_c/RF24Network_cg.c    rn.frag_queue.message_buffer = rn.frame_
                            buffer+sizeof(RF24NetworkHeader);
0005CE 0E??           04279         MOVLW   HIGH(_rn + 15)
Message[1301]: Using default destination of 0 (Access Bank).
0005D0 6E??           04280         MOVWF   r0x01
0005D2 0E??           04281         MOVLW   LOW(_rn + 15)
Message[1301]: Using default destination of 0 (Access Bank).
0005D4 6E??           04282         MOVWF   r0x00
0005D6 0E80           04283         MOVLW   0x80
Message[1301]: Using default destination of 0 (Access Bank).
0005D8 6E??           04284         MOVWF   r0x02
0005DA 50??           04285         MOVF    r0x00, W
0005DC ????           04286         BANKSEL (_rn + 226)
0005DE 6F??           04287         MOVWF   (_rn + 226), B
0005E0 50??           04288         MOVF    r0x01, W
0005E2 ????           04289         BANKSEL (_rn + 227)
0005E4 6F??           04290         MOVWF   (_rn + 227), B
0005E6 50??           04291         MOVF    r0x02, W
0005E8 ????           04292         BANKSEL (_rn + 228)
0005EA 6F??           04293         MOVWF   (_rn + 228), B
                      04294 ;       .line   643; ../../../RF24Network_c/RF24Network_cg.c    rn.frag_queue.message_size = message_siz
gpasm-1.4.0 #1107 (May  9 2015) build/sdcc/pr   12-2-2016  22:31:29         PAGE 96


LOC    OBJECT CODE    LINE  SOURCE TEXT
  VALUE

                            e;
0005EC 50??           04295         MOVF    r0x03, W
0005EE ????           04296         BANKSEL (_rn + 224)
0005F0 6F??           04297         MOVWF   (_rn + 224), B
0005F2 50??           04298         MOVF    r0x04, W
0005F4 ????           04299         BANKSEL (_rn + 225)
0005F6 6F??           04300         MOVWF   (_rn + 225), B
                      04301 ;       .line   644; ../../../RF24Network_c/RF24Network_cg.c    return 2;
0005F8 0E02           04302         MOVLW   0x02
0005FA D???           04303         BRA     _00367_DS_
0005FC                04304 _00361_DS_:
                      04305 ;       .line   651; ../../../RF24Network_c/RF24Network_cg.c    if(message_size + (rn.next_frame-rn.fram
                            e_queue) <= MAIN_BUFFER_SIZE){
0005FC C??? F???      04306         MOVFF   (_rn + 213), r0x00
000600 C??? F???      04307         MOVFF   (_rn + 214), r0x01
000604 C??? F???      04308         MOVFF   (_rn + 215), r0x02
000608 0E??           04309         MOVLW   LOW(_rn + 59)
00060A 5C??           04310         SUBWF   r0x00, W
Message[1301]: Using default destination of 0 (Access Bank).
00060C 6E??           04311         MOVWF   r0x05
00060E 0E??           04312         MOVLW   HIGH(_rn + 59)
000610 58??           04313         SUBWFB  r0x01, W
Message[1301]: Using default destination of 0 (Access Bank).
000612 6E??           04314         MOVWF   r0x06
000614 50??           04315         MOVF    r0x05, W
000616 26??           04316         ADDWF   r0x03, F
000618 50??           04317         MOVF    r0x06, W
00061A 22??           04318         ADDWFC  r0x04, F
00061C 0E00           04319         MOVLW   0x00
00061E 5C??           04320         SUBWF   r0x04, W
000620 E1??           04321         BNZ     _00480_DS_
000622 0E9B           04322         MOVLW   0x9b
000624 5C??           04323         SUBWF   r0x03, W
000626                04324 _00480_DS_:
000626 B0D8           04325         BTFSC   STATUS, 0
000628 D???           04326         BRA     _00365_DS_
                      04327 ;       .line   653; ../../../RF24Network_c/RF24Network_cg.c    memcpy(rn.next_frame,rn.frame_buffer,8);
00062A 50??           04328         MOVF    r0x02, W
Message[1301]: Using default destination of 0 (Access Bank).
00062C 6E??           04329         MOVWF   r0x02
00062E 50??           04330         MOVF    r0x01, W
Message[1301]: Using default destination of 0 (Access Bank).
000630 6E??           04331         MOVWF   r0x01
000632 50??           04332         MOVF    r0x00, W
Message[1301]: Using default destination of 0 (Access Bank).
000634 6E??           04333         MOVWF   r0x00
000636 0E??           04334         MOVLW   HIGH(_rn + 7)
Message[1301]: Using default destination of 0 (Access Bank).
000638 6E??           04335         MOVWF   r0x04
00063A 0E??           04336         MOVLW   LOW(_rn + 7)
Message[1301]: Using default destination of 0 (Access Bank).
00063C 6E??           04337         MOVWF   r0x03
00063E 0E80           04338         MOVLW   0x80
gpasm-1.4.0 #1107 (May  9 2015) build/sdcc/pr   12-2-2016  22:31:29         PAGE 97


LOC    OBJECT CODE    LINE  SOURCE TEXT
  VALUE

Message[1301]: Using default destination of 0 (Access Bank).
000640 6E??           04339         MOVWF   r0x05
000642 0E00           04340         MOVLW   0x00
Message[1301]: Using default destination of 0 (Access Bank).
000644 6EE5           04341         MOVWF   POSTDEC1
000646 0E08           04342         MOVLW   0x08
Message[1301]: Using default destination of 0 (Access Bank).
000648 6EE5           04343         MOVWF   POSTDEC1
00064A 50??           04344         MOVF    r0x05, W
Message[1301]: Using default destination of 0 (Access Bank).
00064C 6EE5           04345         MOVWF   POSTDEC1
00064E 50??           04346         MOVF    r0x04, W
Message[1301]: Using default destination of 0 (Access Bank).
000650 6EE5           04347         MOVWF   POSTDEC1
000652 50??           04348         MOVF    r0x03, W
Message[1301]: Using default destination of 0 (Access Bank).
000654 6EE5           04349         MOVWF   POSTDEC1
000656 50??           04350         MOVF    r0x02, W
Message[1301]: Using default destination of 0 (Access Bank).
000658 6EE5           04351         MOVWF   POSTDEC1
00065A 50??           04352         MOVF    r0x01, W
Message[1301]: Using default destination of 0 (Access Bank).
00065C 6EE5           04353         MOVWF   POSTDEC1
00065E 50??           04354         MOVF    r0x00, W
Message[1301]: Using default destination of 0 (Access Bank).
000660 6EE5           04355         MOVWF   POSTDEC1
000662 EC?? F0??      04356         CALL    _memcpy
000666 0E08           04357         MOVLW   0x08
000668 26E1           04358         ADDWF   FSR1L, F
00066A B0D8           04359         BTFSC   STATUS, 0
00066C 2AE2           04360         INCF    FSR1H, F
00066E ????           04361         BANKSEL (_rn + 213)
                      04362 ;       .line   654; ../../../RF24Network_c/RF24Network_cg.c    memcpy(rn.next_frame+8,&message_size,2);
000670 51??           04363         MOVF    (_rn + 213), W, B
000672 0F08           04364         ADDLW   0x08
Message[1301]: Using default destination of 0 (Access Bank).
000674 6E??           04365         MOVWF   r0x00
000676 0E00           04366         MOVLW   0x00
000678 ????           04367         BANKSEL (_rn + 214)
00067A 21??           04368         ADDWFC  (_rn + 214), W, B
Message[1301]: Using default destination of 0 (Access Bank).
00067C 6E??           04369         MOVWF   r0x01
00067E 0E00           04370         MOVLW   0x00
000680 ????           04371         BANKSEL (_rn + 215)
000682 21??           04372         ADDWFC  (_rn + 215), W, B
Message[1301]: Using default destination of 0 (Access Bank).
000684 6E??           04373         MOVWF   r0x02
000686 50??           04374         MOVF    r0x02, W
Message[1301]: Using default destination of 0 (Access Bank).
000688 6E??           04375         MOVWF   r0x02
00068A 50??           04376         MOVF    r0x01, W
Message[1301]: Using default destination of 0 (Access Bank).
00068C 6E??           04377         MOVWF   r0x01
gpasm-1.4.0 #1107 (May  9 2015) build/sdcc/pr   12-2-2016  22:31:29         PAGE 98


LOC    OBJECT CODE    LINE  SOURCE TEXT
  VALUE

00068E 50??           04378         MOVF    r0x00, W
Message[1301]: Using default destination of 0 (Access Bank).
000690 6E??           04379         MOVWF   r0x00
000692 0E??           04380         MOVLW   HIGH(_RF24N_enqueue_message_size_1_208)
Message[1301]: Using default destination of 0 (Access Bank).
000694 6E??           04381         MOVWF   r0x04
000696 0E??           04382         MOVLW   LOW(_RF24N_enqueue_message_size_1_208)
Message[1301]: Using default destination of 0 (Access Bank).
000698 6E??           04383         MOVWF   r0x03
00069A 0E80           04384         MOVLW   0x80
Message[1301]: Using default destination of 0 (Access Bank).
00069C 6E??           04385         MOVWF   r0x05
00069E 0E00           04386         MOVLW   0x00
Message[1301]: Using default destination of 0 (Access Bank).
0006A0 6EE5           04387         MOVWF   POSTDEC1
0006A2 0E02           04388         MOVLW   0x02
Message[1301]: Using default destination of 0 (Access Bank).
0006A4 6EE5           04389         MOVWF   POSTDEC1
0006A6 50??           04390         MOVF    r0x05, W
Message[1301]: Using default destination of 0 (Access Bank).
0006A8 6EE5           04391         MOVWF   POSTDEC1
0006AA 50??           04392         MOVF    r0x04, W
Message[1301]: Using default destination of 0 (Access Bank).
0006AC 6EE5           04393         MOVWF   POSTDEC1
0006AE 50??           04394         MOVF    r0x03, W
Message[1301]: Using default destination of 0 (Access Bank).
0006B0 6EE5           04395         MOVWF   POSTDEC1
0006B2 50??           04396         MOVF    r0x02, W
Message[1301]: Using default destination of 0 (Access Bank).
0006B4 6EE5           04397         MOVWF   POSTDEC1
0006B6 50??           04398         MOVF    r0x01, W
Message[1301]: Using default destination of 0 (Access Bank).
0006B8 6EE5           04399         MOVWF   POSTDEC1
0006BA 50??           04400         MOVF    r0x00, W
Message[1301]: Using default destination of 0 (Access Bank).
0006BC 6EE5           04401         MOVWF   POSTDEC1
0006BE EC?? F0??      04402         CALL    _memcpy
0006C2 0E08           04403         MOVLW   0x08
0006C4 26E1           04404         ADDWF   FSR1L, F
0006C6 B0D8           04405         BTFSC   STATUS, 0
0006C8 2AE2           04406         INCF    FSR1H, F
0006CA ????           04407         BANKSEL (_rn + 213)
                      04408 ;       .line   655; ../../../RF24Network_c/RF24Network_cg.c    memcpy(rn.next_frame+10,rn.frame_buffer+
                            8,message_size);
0006CC 51??           04409         MOVF    (_rn + 213), W, B
0006CE 0F0A           04410         ADDLW   0x0a
Message[1301]: Using default destination of 0 (Access Bank).
0006D0 6E??           04411         MOVWF   r0x00
0006D2 0E00           04412         MOVLW   0x00
0006D4 ????           04413         BANKSEL (_rn + 214)
0006D6 21??           04414         ADDWFC  (_rn + 214), W, B
Message[1301]: Using default destination of 0 (Access Bank).
0006D8 6E??           04415         MOVWF   r0x01
gpasm-1.4.0 #1107 (May  9 2015) build/sdcc/pr   12-2-2016  22:31:29         PAGE 99


LOC    OBJECT CODE    LINE  SOURCE TEXT
  VALUE

0006DA 0E00           04416         MOVLW   0x00
0006DC ????           04417         BANKSEL (_rn + 215)
0006DE 21??           04418         ADDWFC  (_rn + 215), W, B
Message[1301]: Using default destination of 0 (Access Bank).
0006E0 6E??           04419         MOVWF   r0x02
0006E2 50??           04420         MOVF    r0x02, W
Message[1301]: Using default destination of 0 (Access Bank).
0006E4 6E??           04421         MOVWF   r0x02
0006E6 50??           04422         MOVF    r0x01, W
Message[1301]: Using default destination of 0 (Access Bank).
0006E8 6E??           04423         MOVWF   r0x01
0006EA 50??           04424         MOVF    r0x00, W
Message[1301]: Using default destination of 0 (Access Bank).
0006EC 6E??           04425         MOVWF   r0x00
0006EE 0E??           04426         MOVLW   HIGH(_rn + 15)
Message[1301]: Using default destination of 0 (Access Bank).
0006F0 6E??           04427         MOVWF   r0x04
0006F2 0E??           04428         MOVLW   LOW(_rn + 15)
Message[1301]: Using default destination of 0 (Access Bank).
0006F4 6E??           04429         MOVWF   r0x03
0006F6 0E80           04430         MOVLW   0x80
Message[1301]: Using default destination of 0 (Access Bank).
0006F8 6E??           04431         MOVWF   r0x05
0006FA ????           04432         BANKSEL (_RF24N_enqueue_message_size_1_208 + 1)
0006FC 51??           04433         MOVF    (_RF24N_enqueue_message_size_1_208 + 1), W, B
Message[1301]: Using default destination of 0 (Access Bank).
0006FE 6EE5           04434         MOVWF   POSTDEC1
000700 ????           04435         BANKSEL _RF24N_enqueue_message_size_1_208
000702 51??           04436         MOVF    _RF24N_enqueue_message_size_1_208, W, B
Message[1301]: Using default destination of 0 (Access Bank).
000704 6EE5           04437         MOVWF   POSTDEC1
000706 50??           04438         MOVF    r0x05, W
Message[1301]: Using default destination of 0 (Access Bank).
000708 6EE5           04439         MOVWF   POSTDEC1
00070A 50??           04440         MOVF    r0x04, W
Message[1301]: Using default destination of 0 (Access Bank).
00070C 6EE5           04441         MOVWF   POSTDEC1
00070E 50??           04442         MOVF    r0x03, W
Message[1301]: Using default destination of 0 (Access Bank).
000710 6EE5           04443         MOVWF   POSTDEC1
000712 50??           04444         MOVF    r0x02, W
Message[1301]: Using default destination of 0 (Access Bank).
000714 6EE5           04445         MOVWF   POSTDEC1
000716 50??           04446         MOVF    r0x01, W
Message[1301]: Using default destination of 0 (Access Bank).
000718 6EE5           04447         MOVWF   POSTDEC1
00071A 50??           04448         MOVF    r0x00, W
Message[1301]: Using default destination of 0 (Access Bank).
00071C 6EE5           04449         MOVWF   POSTDEC1
00071E EC?? F0??      04450         CALL    _memcpy
000722 0E08           04451         MOVLW   0x08
000724 26E1           04452         ADDWF   FSR1L, F
000726 B0D8           04453         BTFSC   STATUS, 0
gpasm-1.4.0 #1107 (May  9 2015) build/sdcc/pr   12-2-2016  22:31:29         PAGE 100


LOC    OBJECT CODE    LINE  SOURCE TEXT
  VALUE

000728 2AE2           04454         INCF    FSR1H, F
00072A ????           04455         BANKSEL _RF24N_enqueue_message_size_1_208
                      04456 ;       .line   659; ../../../RF24Network_c/RF24Network_cg.c    rn.next_frame += (message_size + 10);
00072C 51??           04457         MOVF    _RF24N_enqueue_message_size_1_208, W, B
00072E 0F0A           04458         ADDLW   0x0a
Message[1301]: Using default destination of 0 (Access Bank).
000730 6E??           04459         MOVWF   r0x00
000732 0E00           04460         MOVLW   0x00
000734 ????           04461         BANKSEL (_RF24N_enqueue_message_size_1_208 + 1)
000736 21??           04462         ADDWFC  (_RF24N_enqueue_message_size_1_208 + 1), W, B
Message[1301]: Using default destination of 0 (Access Bank).
000738 6E??           04463         MOVWF   r0x01
Message[1301]: Using default destination of 0 (Access Bank).
00073A 6A??           04464         CLRF    r0x02
00073C ????           04465         BANKSEL (_rn + 213)
00073E 51??           04466         MOVF    (_rn + 213), W, B
000740 26??           04467         ADDWF   r0x00, F
000742 ????           04468         BANKSEL (_rn + 214)
000744 51??           04469         MOVF    (_rn + 214), W, B
000746 22??           04470         ADDWFC  r0x01, F
000748 ????           04471         BANKSEL (_rn + 215)
00074A 51??           04472         MOVF    (_rn + 215), W, B
00074C 22??           04473         ADDWFC  r0x02, F
00074E 50??           04474         MOVF    r0x00, W
000750 ????           04475         BANKSEL (_rn + 213)
000752 6F??           04476         MOVWF   (_rn + 213), B
000754 50??           04477         MOVF    r0x01, W
000756 ????           04478         BANKSEL (_rn + 214)
000758 6F??           04479         MOVWF   (_rn + 214), B
00075A 50??           04480         MOVF    r0x02, W
00075C ????           04481         BANKSEL (_rn + 215)
00075E 6F??           04482         MOVWF   (_rn + 215), B
000760 ????           04483         BANKSEL _RF24N_enqueue_message_size_1_208
                      04484 ;       .line   661; ../../../RF24Network_c/RF24Network_cg.c    if((padding = (message_size+10)%4)){
000762 51??           04485         MOVF    _RF24N_enqueue_message_size_1_208, W, B
000764 0F0A           04486         ADDLW   0x0a
Message[1301]: Using default destination of 0 (Access Bank).
000766 6E??           04487         MOVWF   r0x00
000768 0E00           04488         MOVLW   0x00
00076A ????           04489         BANKSEL (_RF24N_enqueue_message_size_1_208 + 1)
00076C 21??           04490         ADDWFC  (_RF24N_enqueue_message_size_1_208 + 1), W, B
Message[1301]: Using default destination of 0 (Access Bank).
00076E 6E??           04491         MOVWF   r0x01
000770 0E03           04492         MOVLW   0x03
000772 16??           04493         ANDWF   r0x00, F
Message[1301]: Using default destination of 0 (Access Bank).
000774 6A??           04494         CLRF    r0x01
000776 C??? F???      04495         MOVFF   r0x00, r0x01
00077A 50??           04496         MOVF    r0x00, W
00077C E0??           04497         BZ      _00363_DS_
                      04498 ;       .line   662; ../../../RF24Network_c/RF24Network_cg.c    rn.next_frame += 4 - padding;
Message[1301]: Using default destination of 0 (Access Bank).
00077E 6A??           04499         CLRF    r0x00
gpasm-1.4.0 #1107 (May  9 2015) build/sdcc/pr   12-2-2016  22:31:29         PAGE 101


LOC    OBJECT CODE    LINE  SOURCE TEXT
  VALUE

000780 50??           04500         MOVF    r0x01, W
000782 0804           04501         SUBLW   0x04
Message[1301]: Using default destination of 0 (Access Bank).
000784 6E??           04502         MOVWF   r0x01
000786 0E00           04503         MOVLW   0x00
000788 56??           04504         SUBFWB  r0x00, F
Message[1301]: Using default destination of 0 (Access Bank).
00078A 6A??           04505         CLRF    r0x02
00078C BE??           04506         BTFSC   r0x00, 7
Message[1301]: Using default destination of 0 (Access Bank).
00078E 68??           04507         SETF    r0x02
000790 ????           04508         BANKSEL (_rn + 213)
000792 51??           04509         MOVF    (_rn + 213), W, B
000794 26??           04510         ADDWF   r0x01, F
000796 ????           04511         BANKSEL (_rn + 214)
000798 51??           04512         MOVF    (_rn + 214), W, B
00079A 22??           04513         ADDWFC  r0x00, F
00079C ????           04514         BANKSEL (_rn + 215)
00079E 51??           04515         MOVF    (_rn + 215), W, B
0007A0 22??           04516         ADDWFC  r0x02, F
0007A2 50??           04517         MOVF    r0x01, W
0007A4 ????           04518         BANKSEL (_rn + 213)
0007A6 6F??           04519         MOVWF   (_rn + 213), B
0007A8 50??           04520         MOVF    r0x00, W
0007AA ????           04521         BANKSEL (_rn + 214)
0007AC 6F??           04522         MOVWF   (_rn + 214), B
0007AE 50??           04523         MOVF    r0x02, W
0007B0 ????           04524         BANKSEL (_rn + 215)
0007B2 6F??           04525         MOVWF   (_rn + 215), B
0007B4                04526 _00363_DS_:
                      04527 ;       .line   667; ../../../RF24Network_c/RF24Network_cg.c    result = 1;
0007B4 0E01           04528         MOVLW   0x01
Message[1301]: Using default destination of 0 (Access Bank).
0007B6 6E??           04529         MOVWF   r0x00
0007B8 D???           04530         BRA     _00366_DS_
0007BA                04531 _00365_DS_:
                      04532 ;       .line   669; ../../../RF24Network_c/RF24Network_cg.c    result = 0;
Message[1301]: Using default destination of 0 (Access Bank).
0007BA 6A??           04533         CLRF    r0x00
0007BC                04534 _00366_DS_:
                      04535 ;       .line   672; ../../../RF24Network_c/RF24Network_cg.c    return result;
0007BC 50??           04536         MOVF    r0x00, W
0007BE                04537 _00367_DS_:
0007BE CFE4 F000      04538         MOVFF   PREINC1, r0x0e
0007C2 CFE4 F000      04539         MOVFF   PREINC1, r0x0d
0007C6 CFE4 F000      04540         MOVFF   PREINC1, r0x0c
0007CA CFE4 F000      04541         MOVFF   PREINC1, r0x0b
0007CE CFE4 F000      04542         MOVFF   PREINC1, r0x0a
0007D2 CFE4 F000      04543         MOVFF   PREINC1, r0x09
0007D6 CFE4 F000      04544         MOVFF   PREINC1, r0x08
0007DA CFE4 F000      04545         MOVFF   PREINC1, r0x07
0007DE CFE4 F000      04546         MOVFF   PREINC1, r0x06
0007E2 CFE4 F000      04547         MOVFF   PREINC1, r0x05
gpasm-1.4.0 #1107 (May  9 2015) build/sdcc/pr   12-2-2016  22:31:29         PAGE 102


LOC    OBJECT CODE    LINE  SOURCE TEXT
  VALUE

0007E6 CFE4 F000      04548         MOVFF   PREINC1, r0x04
0007EA CFE4 F000      04549         MOVFF   PREINC1, r0x03
0007EE CFE4 F000      04550         MOVFF   PREINC1, r0x02
0007F2 CFE4 F000      04551         MOVFF   PREINC1, r0x01
0007F6 CFE4 F000      04552         MOVFF   PREINC1, r0x00
0007FA CFE4 FFD9      04553         MOVFF   PREINC1, FSR2L
0007FE CFE4 FFDA      04554         MOVFF   PREINC1, FSR2H
000802 0012           04555         RETURN  
                      04556 
                      04557 ; ; Starting pCode block
                      04558 S_RF24Network_cg__RF24N_update  code
000000                04559 _RF24N_update:
                      04560 ;       .line   226; ../../../RF24Network_c/RF24Network_cg.c    uint8_t RF24N_update()
000000 CFDA FFE5      04561         MOVFF   FSR2H, POSTDEC1
000004 CFD9 FFE5      04562         MOVFF   FSR2L, POSTDEC1
000008 CFE2 FFDA      04563         MOVFF   FSR1H, FSR2H
00000C CFE1 FFD9      04564         MOVFF   FSR1L, FSR2L
000010 C??? F???      04565         MOVFF   r0x00, POSTDEC1
000014 C??? F???      04566         MOVFF   r0x01, POSTDEC1
000018 C??? F???      04567         MOVFF   r0x02, POSTDEC1
00001C C??? F???      04568         MOVFF   r0x03, POSTDEC1
000020 C??? F???      04569         MOVFF   r0x04, POSTDEC1
000024 C??? F???      04570         MOVFF   r0x05, POSTDEC1
000028 C??? F???      04571         MOVFF   r0x06, POSTDEC1
00002C C??? F???      04572         MOVFF   r0x07, POSTDEC1
000030 C??? F???      04573         MOVFF   r0x08, POSTDEC1
000034 C??? F???      04574         MOVFF   r0x09, POSTDEC1
000038 C??? F???      04575         MOVFF   r0x0a, POSTDEC1
00003C C??? F???      04576         MOVFF   r0x0b, POSTDEC1
000040 C??? F???      04577         MOVFF   r0x0c, POSTDEC1
000044 C??? F???      04578         MOVFF   r0x0d, POSTDEC1
000048 C??? F???      04579         MOVFF   r0x0e, POSTDEC1
                      04580 ;       .line   230; ../../../RF24Network_c/RF24Network_cg.c    uint8_t returnVal = 0;
Message[1301]: Using default destination of 0 (Access Bank).
00004C 6A??           04581         CLRF    r0x00
                      04582 ;       .line   237; ../../../RF24Network_c/RF24Network_cg.c    if(!(rn.networkFlags & FLAG_BYPASS_HOLDS
                            )){
00004E C??? F???      04583         MOVFF   (_rn + 43), r0x01
000052 B2??           04584         BTFSC   r0x01, 1
000054 D???           04585         BRA     _00197_DS_
                      04586 ;       .line   238; ../../../RF24Network_c/RF24Network_cg.c    if( (rn.networkFlags & FLAG_HOLD_INCOMIN
                            G) || (rn.next_frame-rn.frame_queue) + 34 > MAIN_BUFFER_SIZE ){
000056 B0??           04587         BTFSC   r0x01, 0
000058 D???           04588         BRA     _00151_DS_
00005A 0E??           04589         MOVLW   LOW(_rn + 59)
00005C ????           04590         BANKSEL (_rn + 213)
00005E 5D??           04591         SUBWF   (_rn + 213), W, B
Message[1301]: Using default destination of 0 (Access Bank).
000060 6E??           04592         MOVWF   r0x01
000062 0E??           04593         MOVLW   HIGH(_rn + 59)
000064 ????           04594         BANKSEL (_rn + 214)
000066 59??           04595         SUBWFB  (_rn + 214), W, B
Message[1301]: Using default destination of 0 (Access Bank).
gpasm-1.4.0 #1107 (May  9 2015) build/sdcc/pr   12-2-2016  22:31:29         PAGE 103


LOC    OBJECT CODE    LINE  SOURCE TEXT
  VALUE

000068 6E??           04596         MOVWF   r0x02
00006A 0E22           04597         MOVLW   0x22
00006C 26??           04598         ADDWF   r0x01, F
00006E B0D8           04599         BTFSC   STATUS, 0
000070 2A??           04600         INCF    r0x02, F
000072 50??           04601         MOVF    r0x02, W
000074 0F80           04602         ADDLW   0x80
000076 0F80           04603         ADDLW   0x80
000078 E1??           04604         BNZ     _00285_DS_
00007A 0E9B           04605         MOVLW   0x9b
00007C 5C??           04606         SUBWF   r0x01, W
00007E                04607 _00285_DS_:
00007E E3??           04608         BNC     _00197_DS_
000080                04609 _00151_DS_:
                      04610 ;       .line   239; ../../../RF24Network_c/RF24Network_cg.c    if(!RF24N_available()){
000080 EC?? F0??      04611         CALL    _RF24N_available
Message[1301]: Using default destination of 0 (Access Bank).
000084 6E??           04612         MOVWF   r0x01
000086 50??           04613         MOVF    r0x01, W
000088 E1??           04614         BNZ     _00149_DS_
                      04615 ;       .line   240; ../../../RF24Network_c/RF24Network_cg.c    rn.networkFlags &= ~FLAG_HOLD_INCOMING;
00008A 0EFE           04616         MOVLW   0xfe
00008C ????           04617         BANKSEL (_rn + 43)
00008E 15??           04618         ANDWF   (_rn + 43), W, B
Message[1301]: Using default destination of 0 (Access Bank).
000090 6E??           04619         MOVWF   r0x01
000092 50??           04620         MOVF    r0x01, W
000094 ????           04621         BANKSEL (_rn + 43)
000096 6F??           04622         MOVWF   (_rn + 43), B
000098 D???           04623         BRA     _00197_DS_
00009A                04624 _00149_DS_:
                      04625 ;       .line   242; ../../../RF24Network_c/RF24Network_cg.c    return 0;
Message[1301]: Using default destination of 0 (Access Bank).
00009A 6AE8           04626         CLRF    WREG
00009C EF?? F0??      04627         GOTO    _00200_DS_
0000A0                04628 _00197_DS_:
                      04629 ;       .line   248; ../../../RF24Network_c/RF24Network_cg.c    while ( RF24_isValid() && RF24_available
                            _p(&pipe_num) ){
0000A0 EC?? F0??      04630         CALL    _RF24_isValid
Message[1301]: Using default destination of 0 (Access Bank).
0000A4 6E??           04631         MOVWF   r0x01
0000A6 50??           04632         MOVF    r0x01, W
0000A8 B4D8           04633         BTFSC   STATUS, 2
0000AA EF?? F0??      04634         GOTO    _00199_DS_
0000AE 0E??           04635         MOVLW   HIGH(_RF24N_update_pipe_num_1_184)
Message[1301]: Using default destination of 0 (Access Bank).
0000B0 6E??           04636         MOVWF   r0x02
0000B2 0E??           04637         MOVLW   LOW(_RF24N_update_pipe_num_1_184)
Message[1301]: Using default destination of 0 (Access Bank).
0000B4 6E??           04638         MOVWF   r0x01
0000B6 0E80           04639         MOVLW   0x80
Message[1301]: Using default destination of 0 (Access Bank).
0000B8 6E??           04640         MOVWF   r0x03
gpasm-1.4.0 #1107 (May  9 2015) build/sdcc/pr   12-2-2016  22:31:29         PAGE 104


LOC    OBJECT CODE    LINE  SOURCE TEXT
  VALUE

0000BA 50??           04641         MOVF    r0x03, W
Message[1301]: Using default destination of 0 (Access Bank).
0000BC 6EE5           04642         MOVWF   POSTDEC1
0000BE 50??           04643         MOVF    r0x02, W
Message[1301]: Using default destination of 0 (Access Bank).
0000C0 6EE5           04644         MOVWF   POSTDEC1
0000C2 50??           04645         MOVF    r0x01, W
Message[1301]: Using default destination of 0 (Access Bank).
0000C4 6EE5           04646         MOVWF   POSTDEC1
0000C6 EC?? F0??      04647         CALL    _RF24_available_p
Message[1301]: Using default destination of 0 (Access Bank).
0000CA 6E??           04648         MOVWF   r0x01
0000CC 0E03           04649         MOVLW   0x03
0000CE 26E1           04650         ADDWF   FSR1L, F
0000D0 B0D8           04651         BTFSC   STATUS, 0
0000D2 2AE2           04652         INCF    FSR1H, F
0000D4 50??           04653         MOVF    r0x01, W
0000D6 B4D8           04654         BTFSC   STATUS, 2
0000D8 EF?? F0??      04655         GOTO    _00199_DS_
                      04656 ;       .line   252; ../../../RF24Network_c/RF24Network_cg.c    if( (rn.frame_size = RF24_getDynamicPayl
                            oadSize() ) < sizeof(RF24NetworkHeader)){
0000DC EC?? F0??      04657         CALL    _RF24_getDynamicPayloadSize
Message[1301]: Using default destination of 0 (Access Bank).
0000E0 6E??           04658         MOVWF   r0x01
0000E2 50??           04659         MOVF    r0x01, W
0000E4 ????           04660         BANKSEL (_rn + 51)
0000E6 6F??           04661         MOVWF   (_rn + 51), B
0000E8 0E08           04662         MOVLW   0x08
0000EA 5C??           04663         SUBWF   r0x01, W
0000EC E2??           04664         BC      _00157_DS_
                      04665 ;       .line   253; ../../../RF24Network_c/RF24Network_cg.c    delay(10);
0000EE 0E00           04666         MOVLW   0x00
Message[1301]: Using default destination of 0 (Access Bank).
0000F0 6EE5           04667         MOVWF   POSTDEC1
0000F2 0E0A           04668         MOVLW   0x0a
Message[1301]: Using default destination of 0 (Access Bank).
0000F4 6EE5           04669         MOVWF   POSTDEC1
0000F6 EC?? F0??      04670         CALL    _delay
0000FA 52E6           04671         MOVF    POSTINC1, F
0000FC 52E6           04672         MOVF    POSTINC1, F
                      04673 ;       .line   254; ../../../RF24Network_c/RF24Network_cg.c    continue;
0000FE D???           04674         BRA     _00197_DS_
000100                04675 _00157_DS_:
                      04676 ;       .line   261; ../../../RF24Network_c/RF24Network_cg.c    RF24_read(rn.frame_buffer, rn.frame_size
                             );
000100 0E??           04677         MOVLW   HIGH(_rn + 7)
Message[1301]: Using default destination of 0 (Access Bank).
000102 6E??           04678         MOVWF   r0x02
000104 0E??           04679         MOVLW   LOW(_rn + 7)
Message[1301]: Using default destination of 0 (Access Bank).
000106 6E??           04680         MOVWF   r0x01
000108 0E80           04681         MOVLW   0x80
Message[1301]: Using default destination of 0 (Access Bank).
gpasm-1.4.0 #1107 (May  9 2015) build/sdcc/pr   12-2-2016  22:31:29         PAGE 105


LOC    OBJECT CODE    LINE  SOURCE TEXT
  VALUE

00010A 6E??           04682         MOVWF   r0x03
00010C ????           04683         BANKSEL (_rn + 51)
00010E 51??           04684         MOVF    (_rn + 51), W, B
Message[1301]: Using default destination of 0 (Access Bank).
000110 6EE5           04685         MOVWF   POSTDEC1
000112 50??           04686         MOVF    r0x03, W
Message[1301]: Using default destination of 0 (Access Bank).
000114 6EE5           04687         MOVWF   POSTDEC1
000116 50??           04688         MOVF    r0x02, W
Message[1301]: Using default destination of 0 (Access Bank).
000118 6EE5           04689         MOVWF   POSTDEC1
00011A 50??           04690         MOVF    r0x01, W
Message[1301]: Using default destination of 0 (Access Bank).
00011C 6EE5           04691         MOVWF   POSTDEC1
00011E EC?? F0??      04692         CALL    _RF24_read
000122 0E04           04693         MOVLW   0x04
000124 26E1           04694         ADDWF   FSR1L, F
000126 B0D8           04695         BTFSC   STATUS, 0
000128 2AE2           04696         INCF    FSR1H, F
                      04697 ;       .line   264; ../../../RF24Network_c/RF24Network_cg.c    header = (RF24NetworkHeader*)(rn.frame_b
                            uffer);
00012A 0E??           04698         MOVLW   HIGH(_rn + 7)
Message[1301]: Using default destination of 0 (Access Bank).
00012C 6E??           04699         MOVWF   r0x02
00012E 0E??           04700         MOVLW   LOW(_rn + 7)
Message[1301]: Using default destination of 0 (Access Bank).
000130 6E??           04701         MOVWF   r0x01
000132 0E80           04702         MOVLW   0x80
Message[1301]: Using default destination of 0 (Access Bank).
000134 6E??           04703         MOVWF   r0x03
                      04704 ;       .line   278; ../../../RF24Network_c/RF24Network_cg.c    if ( !RF24N_is_valid_address( header->to
                            _node) ){
000136 50??           04705         MOVF    r0x01, W
000138 0F02           04706         ADDLW   0x02
Message[1301]: Using default destination of 0 (Access Bank).
00013A 6E??           04707         MOVWF   r0x04
00013C 0E00           04708         MOVLW   0x00
00013E 20??           04709         ADDWFC  r0x02, W
Message[1301]: Using default destination of 0 (Access Bank).
000140 6E??           04710         MOVWF   r0x05
000142 0E00           04711         MOVLW   0x00
000144 20??           04712         ADDWFC  r0x03, W
Message[1301]: Using default destination of 0 (Access Bank).
000146 6E??           04713         MOVWF   r0x06
000148 C??? F???      04714         MOVFF   r0x04, FSR0L
00014C C??? F???      04715         MOVFF   r0x05, PRODL
000150 50??           04716         MOVF    r0x06, W
000152 EC?? F0??      04717         CALL    __gptrget2
Message[1301]: Using default destination of 0 (Access Bank).
000156 6E??           04718         MOVWF   r0x07
000158 CFF3 F000      04719         MOVFF   PRODL, r0x08
00015C 50??           04720         MOVF    r0x08, W
Message[1301]: Using default destination of 0 (Access Bank).
gpasm-1.4.0 #1107 (May  9 2015) build/sdcc/pr   12-2-2016  22:31:29         PAGE 106


LOC    OBJECT CODE    LINE  SOURCE TEXT
  VALUE

00015E 6EE5           04721         MOVWF   POSTDEC1
000160 50??           04722         MOVF    r0x07, W
Message[1301]: Using default destination of 0 (Access Bank).
000162 6EE5           04723         MOVWF   POSTDEC1
000164 EC?? F0??      04724         CALL    _RF24N_is_valid_address
Message[1301]: Using default destination of 0 (Access Bank).
000168 6E??           04725         MOVWF   r0x07
00016A 52E6           04726         MOVF    POSTINC1, F
00016C 52E6           04727         MOVF    POSTINC1, F
00016E 50??           04728         MOVF    r0x07, W
000170 B4D8           04729         BTFSC   STATUS, 2
000172 D???           04730         BRA     _00197_DS_
                      04731 ;       .line   282; ../../../RF24Network_c/RF24Network_cg.c    returnVal = header->type;
000174 50??           04732         MOVF    r0x01, W
000176 0F06           04733         ADDLW   0x06
Message[1301]: Using default destination of 0 (Access Bank).
000178 6E??           04734         MOVWF   r0x07
00017A 0E00           04735         MOVLW   0x00
00017C 20??           04736         ADDWFC  r0x02, W
Message[1301]: Using default destination of 0 (Access Bank).
00017E 6E??           04737         MOVWF   r0x08
000180 0E00           04738         MOVLW   0x00
000182 20??           04739         ADDWFC  r0x03, W
Message[1301]: Using default destination of 0 (Access Bank).
000184 6E??           04740         MOVWF   r0x09
000186 C??? F???      04741         MOVFF   r0x07, FSR0L
00018A C??? F???      04742         MOVFF   r0x08, PRODL
00018E 50??           04743         MOVF    r0x09, W
000190 EC?? F0??      04744         CALL    __gptrget1
Message[1301]: Using default destination of 0 (Access Bank).
000194 6E??           04745         MOVWF   r0x0a
000196 C??? F???      04746         MOVFF   r0x0a, r0x00
                      04747 ;       .line   285; ../../../RF24Network_c/RF24Network_cg.c    if ( header->to_node == rn.node_address 
                              ){
00019A C??? F???      04748         MOVFF   r0x04, FSR0L
00019E C??? F???      04749         MOVFF   r0x05, PRODL
0001A2 50??           04750         MOVF    r0x06, W
0001A4 EC?? F0??      04751         CALL    __gptrget2
Message[1301]: Using default destination of 0 (Access Bank).
0001A8 6E??           04752         MOVWF   r0x0b
0001AA CFF3 F000      04753         MOVFF   PRODL, r0x0c
0001AE C??? F???      04754         MOVFF   (_rn + 49), r0x0d
0001B2 C??? F???      04755         MOVFF   (_rn + 50), r0x0e
0001B6 50??           04756         MOVF    r0x0b, W
0001B8 18??           04757         XORWF   r0x0d, W
0001BA E1??           04758         BNZ     _00288_DS_
0001BC 50??           04759         MOVF    r0x0c, W
0001BE 18??           04760         XORWF   r0x0e, W
0001C0 E0??           04761         BZ      _00289_DS_
0001C2                04762 _00288_DS_:
0001C2 D???           04763         BRA     _00194_DS_
0001C4                04764 _00289_DS_:
                      04765 ;       .line   287; ../../../RF24Network_c/RF24Network_cg.c    if(header->type == NETWORK_PING){
gpasm-1.4.0 #1107 (May  9 2015) build/sdcc/pr   12-2-2016  22:31:29         PAGE 107


LOC    OBJECT CODE    LINE  SOURCE TEXT
  VALUE

0001C4 50??           04766         MOVF    r0x0a, W
0001C6 0A82           04767         XORLW   0x82
0001C8 E1??           04768         BNZ     _00291_DS_
0001CA D???           04769         BRA     _00197_DS_
0001CC                04770 _00291_DS_:
                      04771 ;       .line   290; ../../../RF24Network_c/RF24Network_cg.c    if(header->type == NETWORK_ADDR_RESPONSE
                             ){     
0001CC 50??           04772         MOVF    r0x0a, W
0001CE 0A80           04773         XORLW   0x80
0001D0 E0??           04774         BZ      _00293_DS_
0001D2 D???           04775         BRA     _00165_DS_
0001D4                04776 _00293_DS_:
                      04777 ;       .line   292; ../../../RF24Network_c/RF24Network_cg.c    if(requester != rn.node_address){
0001D4 50??           04778         MOVF    r0x0d, W
0001D6 0A24           04779         XORLW   0x24
0001D8 E1??           04780         BNZ     _00295_DS_
0001DA 50??           04781         MOVF    r0x0e, W
0001DC 0A09           04782         XORLW   0x09
0001DE E1??           04783         BNZ     _00295_DS_
0001E0 D???           04784         BRA     _00165_DS_
0001E2                04785 _00295_DS_:
                      04786 ;       .line   293; ../../../RF24Network_c/RF24Network_cg.c    header->to_node = requester;
0001E2 0E24           04787         MOVLW   0x24
Message[1301]: Using default destination of 0 (Access Bank).
0001E4 6EE5           04788         MOVWF   POSTDEC1
0001E6 0E09           04789         MOVLW   0x09
Message[1301]: Using default destination of 0 (Access Bank).
0001E8 6EF4           04790         MOVWF   PRODH
0001EA C??? F???      04791         MOVFF   r0x04, FSR0L
0001EE C??? F???      04792         MOVFF   r0x05, PRODL
0001F2 50??           04793         MOVF    r0x06, W
0001F4 EC?? F0??      04794         CALL    __gptrput2
                      04795 ;       .line   294; ../../../RF24Network_c/RF24Network_cg.c    RF24N_write(header->to_node,USER_TX_TO_P
                            HYSICAL_ADDRESS);
0001F8 C??? F???      04796         MOVFF   r0x04, FSR0L
0001FC C??? F???      04797         MOVFF   r0x05, PRODL
000200 50??           04798         MOVF    r0x06, W
000202 EC?? F0??      04799         CALL    __gptrget2
Message[1301]: Using default destination of 0 (Access Bank).
000206 6E??           04800         MOVWF   r0x0b
000208 CFF3 F000      04801         MOVFF   PRODL, r0x0c
00020C 0E02           04802         MOVLW   0x02
Message[1301]: Using default destination of 0 (Access Bank).
00020E 6EE5           04803         MOVWF   POSTDEC1
000210 50??           04804         MOVF    r0x0c, W
Message[1301]: Using default destination of 0 (Access Bank).
000212 6EE5           04805         MOVWF   POSTDEC1
000214 50??           04806         MOVF    r0x0b, W
Message[1301]: Using default destination of 0 (Access Bank).
000216 6EE5           04807         MOVWF   POSTDEC1
000218 EC?? F0??      04808         CALL    _RF24N_write
00021C 0E03           04809         MOVLW   0x03
00021E 26E1           04810         ADDWF   FSR1L, F
gpasm-1.4.0 #1107 (May  9 2015) build/sdcc/pr   12-2-2016  22:31:29         PAGE 108


LOC    OBJECT CODE    LINE  SOURCE TEXT
  VALUE

000220 B0D8           04811         BTFSC   STATUS, 0
000222 2AE2           04812         INCF    FSR1H, F
                      04813 ;       .line   295; ../../../RF24Network_c/RF24Network_cg.c    delay(10);
000224 0E00           04814         MOVLW   0x00
Message[1301]: Using default destination of 0 (Access Bank).
000226 6EE5           04815         MOVWF   POSTDEC1
000228 0E0A           04816         MOVLW   0x0a
Message[1301]: Using default destination of 0 (Access Bank).
00022A 6EE5           04817         MOVWF   POSTDEC1
00022C EC?? F0??      04818         CALL    _delay
000230 52E6           04819         MOVF    POSTINC1, F
000232 52E6           04820         MOVF    POSTINC1, F
                      04821 ;       .line   296; ../../../RF24Network_c/RF24Network_cg.c    RF24N_write(header->to_node,USER_TX_TO_P
                            HYSICAL_ADDRESS);
000234 C??? F???      04822         MOVFF   r0x04, FSR0L
000238 C??? F???      04823         MOVFF   r0x05, PRODL
00023C 50??           04824         MOVF    r0x06, W
00023E EC?? F0??      04825         CALL    __gptrget2
Message[1301]: Using default destination of 0 (Access Bank).
000242 6E??           04826         MOVWF   r0x0b
000244 CFF3 F000      04827         MOVFF   PRODL, r0x0c
000248 0E02           04828         MOVLW   0x02
Message[1301]: Using default destination of 0 (Access Bank).
00024A 6EE5           04829         MOVWF   POSTDEC1
00024C 50??           04830         MOVF    r0x0c, W
Message[1301]: Using default destination of 0 (Access Bank).
00024E 6EE5           04831         MOVWF   POSTDEC1
000250 50??           04832         MOVF    r0x0b, W
Message[1301]: Using default destination of 0 (Access Bank).
000252 6EE5           04833         MOVWF   POSTDEC1
000254 EC?? F0??      04834         CALL    _RF24N_write
000258 0E03           04835         MOVLW   0x03
00025A 26E1           04836         ADDWF   FSR1L, F
00025C B0D8           04837         BTFSC   STATUS, 0
00025E 2AE2           04838         INCF    FSR1H, F
                      04839 ;       .line   298; ../../../RF24Network_c/RF24Network_cg.c    continue;
000260 D???           04840         BRA     _00197_DS_
000262                04841 _00165_DS_:
                      04842 ;       .line   301; ../../../RF24Network_c/RF24Network_cg.c    if(header->type == NETWORK_REQ_ADDRESS &
                            & rn.node_address){
000262 C??? F???      04843         MOVFF   r0x07, FSR0L
000266 C??? F???      04844         MOVFF   r0x08, PRODL
00026A 50??           04845         MOVF    r0x09, W
00026C EC?? F0??      04846         CALL    __gptrget1
Message[1301]: Using default destination of 0 (Access Bank).
000270 6E??           04847         MOVWF   r0x0b
000272 50??           04848         MOVF    r0x0b, W
000274 0AC3           04849         XORLW   0xc3
000276 E1??           04850         BNZ     _00167_DS_
000278 C??? F???      04851         MOVFF   (_rn + 49), r0x0b
00027C C??? F???      04852         MOVFF   (_rn + 50), r0x0c
000280 50??           04853         MOVF    r0x0b, W
000282 10??           04854         IORWF   r0x0c, W
gpasm-1.4.0 #1107 (May  9 2015) build/sdcc/pr   12-2-2016  22:31:29         PAGE 109


LOC    OBJECT CODE    LINE  SOURCE TEXT
  VALUE

000284 E0??           04855         BZ      _00167_DS_
                      04856 ;       .line   303; ../../../RF24Network_c/RF24Network_cg.c    header->from_node = rn.node_address;
000286 C??? F???      04857         MOVFF   r0x0b, POSTDEC1
00028A C??? F???      04858         MOVFF   r0x0c, PRODH
00028E C??? F???      04859         MOVFF   r0x01, FSR0L
000292 C??? F???      04860         MOVFF   r0x02, PRODL
000296 50??           04861         MOVF    r0x03, W
000298 EC?? F0??      04862         CALL    __gptrput2
                      04863 ;       .line   304; ../../../RF24Network_c/RF24Network_cg.c    header->to_node = 0;
00029C 0E00           04864         MOVLW   0x00
Message[1301]: Using default destination of 0 (Access Bank).
00029E 6EE5           04865         MOVWF   POSTDEC1
0002A0 0E00           04866         MOVLW   0x00
Message[1301]: Using default destination of 0 (Access Bank).
0002A2 6EF4           04867         MOVWF   PRODH
0002A4 C??? F???      04868         MOVFF   r0x04, FSR0L
0002A8 C??? F???      04869         MOVFF   r0x05, PRODL
0002AC 50??           04870         MOVF    r0x06, W
0002AE EC?? F0??      04871         CALL    __gptrput2
                      04872 ;       .line   305; ../../../RF24Network_c/RF24Network_cg.c    RF24N_write(header->to_node,TX_NORMAL);
0002B2 C??? F???      04873         MOVFF   r0x04, FSR0L
0002B6 C??? F???      04874         MOVFF   r0x05, PRODL
0002BA 50??           04875         MOVF    r0x06, W
0002BC EC?? F0??      04876         CALL    __gptrget2
Message[1301]: Using default destination of 0 (Access Bank).
0002C0 6E??           04877         MOVWF   r0x0b
0002C2 CFF3 F000      04878         MOVFF   PRODL, r0x0c
0002C6 0E00           04879         MOVLW   0x00
Message[1301]: Using default destination of 0 (Access Bank).
0002C8 6EE5           04880         MOVWF   POSTDEC1
0002CA 50??           04881         MOVF    r0x0c, W
Message[1301]: Using default destination of 0 (Access Bank).
0002CC 6EE5           04882         MOVWF   POSTDEC1
0002CE 50??           04883         MOVF    r0x0b, W
Message[1301]: Using default destination of 0 (Access Bank).
0002D0 6EE5           04884         MOVWF   POSTDEC1
0002D2 EC?? F0??      04885         CALL    _RF24N_write
0002D6 0E03           04886         MOVLW   0x03
0002D8 26E1           04887         ADDWF   FSR1L, F
0002DA B0D8           04888         BTFSC   STATUS, 0
0002DC 2AE2           04889         INCF    FSR1H, F
                      04890 ;       .line   306; ../../../RF24Network_c/RF24Network_cg.c    continue;
0002DE D???           04891         BRA     _00197_DS_
0002E0                04892 _00167_DS_:
0002E0 ????           04893         BANKSEL (_rn + 42)
                      04894 ;       .line   309; ../../../RF24Network_c/RF24Network_cg.c    if( (rn.returnSysMsgs && header->type > 
                            127) || header->type == NETWORK_ACK ){  
0002E2 51??           04895         MOVF    (_rn + 42), W, B
0002E4 E0??           04896         BZ      _00178_DS_
0002E6 C??? F???      04897         MOVFF   r0x07, FSR0L
0002EA C??? F???      04898         MOVFF   r0x08, PRODL
0002EE 50??           04899         MOVF    r0x09, W
0002F0 EC?? F0??      04900         CALL    __gptrget1
gpasm-1.4.0 #1107 (May  9 2015) build/sdcc/pr   12-2-2016  22:31:29         PAGE 110


LOC    OBJECT CODE    LINE  SOURCE TEXT
  VALUE

Message[1301]: Using default destination of 0 (Access Bank).
0002F4 6E??           04901         MOVWF   r0x0b
0002F6 0E80           04902         MOVLW   0x80
0002F8 5C??           04903         SUBWF   r0x0b, W
0002FA E2??           04904         BC      _00175_DS_
0002FC                04905 _00178_DS_:
0002FC C??? F???      04906         MOVFF   r0x07, FSR0L
000300 C??? F???      04907         MOVFF   r0x08, PRODL
000304 50??           04908         MOVF    r0x09, W
000306 EC?? F0??      04909         CALL    __gptrget1
Message[1301]: Using default destination of 0 (Access Bank).
00030A 6E??           04910         MOVWF   r0x0b
00030C 50??           04911         MOVF    r0x0b, W
00030E 0AC1           04912         XORLW   0xc1
000310 E1??           04913         BNZ     _00176_DS_
000312                04914 _00175_DS_:
                      04915 ;       .line   312; ../../../RF24Network_c/RF24Network_cg.c    if( header->type != NETWORK_FIRST_FRAGME
                            NT && header->type != NETWORK_MORE_FRAGMENTS && header->type != NETWORK_MORE_FRAGMENTS_NACK && header->t
                            ype != EXTERNAL_DATA_TYPE && header->type!= NETWORK_LAST_FRAGMENT){
000312 C??? F???      04916         MOVFF   r0x07, FSR0L
000316 C??? F???      04917         MOVFF   r0x08, PRODL
00031A 50??           04918         MOVF    r0x09, W
00031C EC?? F0??      04919         CALL    __gptrget1
Message[1301]: Using default destination of 0 (Access Bank).
000320 6E??           04920         MOVWF   r0x07
000322 50??           04921         MOVF    r0x07, W
000324 0A94           04922         XORLW   0x94
000326 E0??           04923         BZ      _00176_DS_
000328 50??           04924         MOVF    r0x07, W
00032A 0A95           04925         XORLW   0x95
00032C E0??           04926         BZ      _00176_DS_
00032E 50??           04927         MOVF    r0x07, W
000330 0AC8           04928         XORLW   0xc8
000332 E0??           04929         BZ      _00176_DS_
000334 50??           04930         MOVF    r0x07, W
000336 0A83           04931         XORLW   0x83
000338 E0??           04932         BZ      _00176_DS_
00033A 50??           04933         MOVF    r0x07, W
00033C 0A96           04934         XORLW   0x96
00033E E0??           04935         BZ      _00176_DS_
                      04936 ;       .line   313; ../../../RF24Network_c/RF24Network_cg.c    return returnVal;
000340 50??           04937         MOVF    r0x00, W
000342 D???           04938         BRA     _00200_DS_
000344                04939 _00176_DS_:
                      04940 ;       .line   317; ../../../RF24Network_c/RF24Network_cg.c    if( RF24N_enqueue(header) == 2 ){ //Exte
                            rnal data received                      
000344 50??           04941         MOVF    r0x03, W
Message[1301]: Using default destination of 0 (Access Bank).
000346 6EE5           04942         MOVWF   POSTDEC1
000348 50??           04943         MOVF    r0x02, W
Message[1301]: Using default destination of 0 (Access Bank).
00034A 6EE5           04944         MOVWF   POSTDEC1
00034C 50??           04945         MOVF    r0x01, W
gpasm-1.4.0 #1107 (May  9 2015) build/sdcc/pr   12-2-2016  22:31:29         PAGE 111


LOC    OBJECT CODE    LINE  SOURCE TEXT
  VALUE

Message[1301]: Using default destination of 0 (Access Bank).
00034E 6EE5           04946         MOVWF   POSTDEC1
000350 EC?? F0??      04947         CALL    _RF24N_enqueue
Message[1301]: Using default destination of 0 (Access Bank).
000354 6E??           04948         MOVWF   r0x07
000356 0E03           04949         MOVLW   0x03
000358 26E1           04950         ADDWF   FSR1L, F
00035A B0D8           04951         BTFSC   STATUS, 0
00035C 2AE2           04952         INCF    FSR1H, F
00035E 50??           04953         MOVF    r0x07, W
000360 0A02           04954         XORLW   0x02
000362 E0??           04955         BZ      _00312_DS_
000364 D???           04956         BRA     _00197_DS_
000366                04957 _00312_DS_:
                      04958 ;       .line   321; ../../../RF24Network_c/RF24Network_cg.c    return EXTERNAL_DATA_TYPE;              
                                            
000366 0E83           04959         MOVLW   0x83
000368 D???           04960         BRA     _00200_DS_
00036A                04961 _00194_DS_:
                      04962 ;       .line   327; ../../../RF24Network_c/RF24Network_cg.c    if( header->to_node == 0100){
00036A C??? F???      04963         MOVFF   r0x04, FSR0L
00036E C??? F???      04964         MOVFF   r0x05, PRODL
000372 50??           04965         MOVF    r0x06, W
000374 EC?? F0??      04966         CALL    __gptrget2
Message[1301]: Using default destination of 0 (Access Bank).
000378 6E??           04967         MOVWF   r0x07
00037A CFF3 F000      04968         MOVFF   PRODL, r0x08
00037E 50??           04969         MOVF    r0x07, W
000380 0A40           04970         XORLW   0x40
000382 E1??           04971         BNZ     _00313_DS_
000384 50??           04972         MOVF    r0x08, W
000386 E0??           04973         BZ      _00314_DS_
000388                04974 _00313_DS_:
000388 D???           04975         BRA     _00191_DS_
00038A                04976 _00314_DS_:
                      04977 ;       .line   330; ../../../RF24Network_c/RF24Network_cg.c    if(header->type == NETWORK_POLL  ){
00038A 50??           04978         MOVF    r0x0a, W
00038C 0AC2           04979         XORLW   0xc2
00038E E0??           04980         BZ      _00316_DS_
000390 D???           04981         BRA     _00185_DS_
000392                04982 _00316_DS_:
000392 ????           04983         BANKSEL (_rn + 43)
                      04984 ;       .line   331; ../../../RF24Network_c/RF24Network_cg.c    if( !(rn.networkFlags & FLAG_NO_POLL) &&
                             rn.node_address != 04444 ){
000394 B6??           04985         BTFSC   (_rn + 43), 3
000396 D???           04986         BRA     _00197_DS_
000398 50??           04987         MOVF    r0x0d, W
00039A 0A24           04988         XORLW   0x24
00039C E1??           04989         BNZ     _00319_DS_
00039E 50??           04990         MOVF    r0x0e, W
0003A0 0A09           04991         XORLW   0x09
0003A2 E1??           04992         BNZ     _00319_DS_
0003A4 D???           04993         BRA     _00197_DS_
gpasm-1.4.0 #1107 (May  9 2015) build/sdcc/pr   12-2-2016  22:31:29         PAGE 112


LOC    OBJECT CODE    LINE  SOURCE TEXT
  VALUE

0003A6                04994 _00319_DS_:
                      04995 ;       .line   332; ../../../RF24Network_c/RF24Network_cg.c    header->to_node = header->from_node;
0003A6 C??? F???      04996         MOVFF   r0x01, FSR0L
0003AA C??? F???      04997         MOVFF   r0x02, PRODL
0003AE 50??           04998         MOVF    r0x03, W
0003B0 EC?? F0??      04999         CALL    __gptrget2
Message[1301]: Using default destination of 0 (Access Bank).
0003B4 6E??           05000         MOVWF   r0x07
0003B6 CFF3 F000      05001         MOVFF   PRODL, r0x08
0003BA C??? F???      05002         MOVFF   r0x07, POSTDEC1
0003BE C??? F???      05003         MOVFF   r0x08, PRODH
0003C2 C??? F???      05004         MOVFF   r0x04, FSR0L
0003C6 C??? F???      05005         MOVFF   r0x05, PRODL
0003CA 50??           05006         MOVF    r0x06, W
0003CC EC?? F0??      05007         CALL    __gptrput2
                      05008 ;       .line   333; ../../../RF24Network_c/RF24Network_cg.c    header->from_node = rn.node_address;    
                                            
0003D0 C??? F???      05009         MOVFF   (_rn + 49), r0x07
0003D4 C??? F???      05010         MOVFF   (_rn + 50), r0x08
0003D8 C??? F???      05011         MOVFF   r0x07, POSTDEC1
0003DC C??? F???      05012         MOVFF   r0x08, PRODH
0003E0 C??? F???      05013         MOVFF   r0x01, FSR0L
0003E4 C??? F???      05014         MOVFF   r0x02, PRODL
0003E8 50??           05015         MOVF    r0x03, W
0003EA EC?? F0??      05016         CALL    __gptrput2
                      05017 ;       .line   334; ../../../RF24Network_c/RF24Network_cg.c    delay(rn.parent_pipe);
0003EE C??? F???      05018         MOVFF   (_rn + 56), r0x07
Message[1301]: Using default destination of 0 (Access Bank).
0003F2 6A??           05019         CLRF    r0x08
0003F4 50??           05020         MOVF    r0x08, W
Message[1301]: Using default destination of 0 (Access Bank).
0003F6 6EE5           05021         MOVWF   POSTDEC1
0003F8 50??           05022         MOVF    r0x07, W
Message[1301]: Using default destination of 0 (Access Bank).
0003FA 6EE5           05023         MOVWF   POSTDEC1
0003FC EC?? F0??      05024         CALL    _delay
000400 52E6           05025         MOVF    POSTINC1, F
000402 52E6           05026         MOVF    POSTINC1, F
                      05027 ;       .line   335; ../../../RF24Network_c/RF24Network_cg.c    RF24N_write(header->to_node,USER_TX_TO_P
                            HYSICAL_ADDRESS);                      
000404 C??? F???      05028         MOVFF   r0x04, FSR0L
000408 C??? F???      05029         MOVFF   r0x05, PRODL
00040C 50??           05030         MOVF    r0x06, W
00040E EC?? F0??      05031         CALL    __gptrget2
Message[1301]: Using default destination of 0 (Access Bank).
000412 6E??           05032         MOVWF   r0x07
000414 CFF3 F000      05033         MOVFF   PRODL, r0x08
000418 0E02           05034         MOVLW   0x02
Message[1301]: Using default destination of 0 (Access Bank).
00041A 6EE5           05035         MOVWF   POSTDEC1
00041C 50??           05036         MOVF    r0x08, W
Message[1301]: Using default destination of 0 (Access Bank).
00041E 6EE5           05037         MOVWF   POSTDEC1
gpasm-1.4.0 #1107 (May  9 2015) build/sdcc/pr   12-2-2016  22:31:29         PAGE 113


LOC    OBJECT CODE    LINE  SOURCE TEXT
  VALUE

000420 50??           05038         MOVF    r0x07, W
Message[1301]: Using default destination of 0 (Access Bank).
000422 6EE5           05039         MOVWF   POSTDEC1
000424 EC?? F0??      05040         CALL    _RF24N_write
000428 0E03           05041         MOVLW   0x03
00042A 26E1           05042         ADDWF   FSR1L, F
00042C B0D8           05043         BTFSC   STATUS, 0
00042E 2AE2           05044         INCF    FSR1H, F
                      05045 ;       .line   337; ../../../RF24Network_c/RF24Network_cg.c    continue;
000430 D???           05046         BRA     _00197_DS_
000432                05047 _00185_DS_:
                      05048 ;       .line   339; ../../../RF24Network_c/RF24Network_cg.c    val = RF24N_enqueue(header);
000432 50??           05049         MOVF    r0x03, W
Message[1301]: Using default destination of 0 (Access Bank).
000434 6EE5           05050         MOVWF   POSTDEC1
000436 50??           05051         MOVF    r0x02, W
Message[1301]: Using default destination of 0 (Access Bank).
000438 6EE5           05052         MOVWF   POSTDEC1
00043A 50??           05053         MOVF    r0x01, W
Message[1301]: Using default destination of 0 (Access Bank).
00043C 6EE5           05054         MOVWF   POSTDEC1
00043E EC?? F0??      05055         CALL    _RF24N_enqueue
Message[1301]: Using default destination of 0 (Access Bank).
000442 6E??           05056         MOVWF   r0x01
000444 0E03           05057         MOVLW   0x03
000446 26E1           05058         ADDWF   FSR1L, F
000448 B0D8           05059         BTFSC   STATUS, 0
00044A 2AE2           05060         INCF    FSR1H, F
00044C ????           05061         BANKSEL _rn
                      05062 ;       .line   341; ../../../RF24Network_c/RF24Network_cg.c    if(rn.multicastRelay){                  
                                            
00044E 51??           05063         MOVF    _rn, W, B
000450 E0??           05064         BZ      _00187_DS_
000452 ????           05065         BANKSEL (_rn + 48)
                      05066 ;       .line   343; ../../../RF24Network_c/RF24Network_cg.c    RF24N_write(RF24N_levelToAddress(rn.mult
                            icast_level)<<3,4);
000454 51??           05067         MOVF    (_rn + 48), W, B
Message[1301]: Using default destination of 0 (Access Bank).
000456 6EE5           05068         MOVWF   POSTDEC1
000458 EC?? F0??      05069         CALL    _RF24N_levelToAddress
Message[1301]: Using default destination of 0 (Access Bank).
00045C 6E??           05070         MOVWF   r0x02
00045E CFF3 F000      05071         MOVFF   PRODL, r0x03
000462 52E6           05072         MOVF    POSTINC1, F
000464 50??           05073         MOVF    r0x02, W
Message[1301]: Using default destination of 0 (Access Bank).
000466 6E??           05074         MOVWF   r0x07
000468 26??           05075         ADDWF   r0x07, F
00046A 34??           05076         RLCF    r0x03, W
Message[1301]: Using default destination of 0 (Access Bank).
00046C 6E??           05077         MOVWF   r0x08
00046E 90D8           05078         BCF     STATUS, 0
000470 36??           05079         RLCF    r0x07, F
gpasm-1.4.0 #1107 (May  9 2015) build/sdcc/pr   12-2-2016  22:31:29         PAGE 114


LOC    OBJECT CODE    LINE  SOURCE TEXT
  VALUE

000472 36??           05080         RLCF    r0x08, F
000474 90D8           05081         BCF     STATUS, 0
000476 36??           05082         RLCF    r0x07, F
000478 36??           05083         RLCF    r0x08, F
00047A 0E04           05084         MOVLW   0x04
Message[1301]: Using default destination of 0 (Access Bank).
00047C 6EE5           05085         MOVWF   POSTDEC1
00047E 50??           05086         MOVF    r0x08, W
Message[1301]: Using default destination of 0 (Access Bank).
000480 6EE5           05087         MOVWF   POSTDEC1
000482 50??           05088         MOVF    r0x07, W
Message[1301]: Using default destination of 0 (Access Bank).
000484 6EE5           05089         MOVWF   POSTDEC1
000486 EC?? F0??      05090         CALL    _RF24N_write
00048A 0E03           05091         MOVLW   0x03
00048C 26E1           05092         ADDWF   FSR1L, F
00048E B0D8           05093         BTFSC   STATUS, 0
000490 2AE2           05094         INCF    FSR1H, F
000492                05095 _00187_DS_:
                      05096 ;       .line   345; ../../../RF24Network_c/RF24Network_cg.c    if( val == 2 ){ //External data received
                                                    
000492 50??           05097         MOVF    r0x01, W
000494 0A02           05098         XORLW   0x02
000496 E0??           05099         BZ      _00321_DS_
000498 EF?? F0??      05100         GOTO    _00197_DS_
00049C                05101 _00321_DS_:
                      05102 ;       .line   347; ../../../RF24Network_c/RF24Network_cg.c    return EXTERNAL_DATA_TYPE;
00049C 0E83           05103         MOVLW   0x83
00049E D???           05104         BRA     _00200_DS_
0004A0                05105 _00191_DS_:
                      05106 ;       .line   351; ../../../RF24Network_c/RF24Network_cg.c    RF24N_write(header->to_node,1); //Send i
                            t on, indicate it is a routed payload
0004A0 C??? F???      05107         MOVFF   r0x04, FSR0L
0004A4 C??? F???      05108         MOVFF   r0x05, PRODL
0004A8 50??           05109         MOVF    r0x06, W
0004AA EC?? F0??      05110         CALL    __gptrget2
Message[1301]: Using default destination of 0 (Access Bank).
0004AE 6E??           05111         MOVWF   r0x04
0004B0 CFF3 F000      05112         MOVFF   PRODL, r0x05
0004B4 0E01           05113         MOVLW   0x01
Message[1301]: Using default destination of 0 (Access Bank).
0004B6 6EE5           05114         MOVWF   POSTDEC1
0004B8 50??           05115         MOVF    r0x05, W
Message[1301]: Using default destination of 0 (Access Bank).
0004BA 6EE5           05116         MOVWF   POSTDEC1
0004BC 50??           05117         MOVF    r0x04, W
Message[1301]: Using default destination of 0 (Access Bank).
0004BE 6EE5           05118         MOVWF   POSTDEC1
0004C0 EC?? F0??      05119         CALL    _RF24N_write
0004C4 0E03           05120         MOVLW   0x03
0004C6 26E1           05121         ADDWF   FSR1L, F
0004C8 B0D8           05122         BTFSC   STATUS, 0
0004CA 2AE2           05123         INCF    FSR1H, F
gpasm-1.4.0 #1107 (May  9 2015) build/sdcc/pr   12-2-2016  22:31:29         PAGE 115


LOC    OBJECT CODE    LINE  SOURCE TEXT
  VALUE

0004CC EF?? F0??      05124         GOTO    _00197_DS_
0004D0                05125 _00199_DS_:
                      05126 ;       .line   359; ../../../RF24Network_c/RF24Network_cg.c    return returnVal;
0004D0 50??           05127         MOVF    r0x00, W
0004D2                05128 _00200_DS_:
0004D2 CFE4 F000      05129         MOVFF   PREINC1, r0x0e
0004D6 CFE4 F000      05130         MOVFF   PREINC1, r0x0d
0004DA CFE4 F000      05131         MOVFF   PREINC1, r0x0c
0004DE CFE4 F000      05132         MOVFF   PREINC1, r0x0b
0004E2 CFE4 F000      05133         MOVFF   PREINC1, r0x0a
0004E6 CFE4 F000      05134         MOVFF   PREINC1, r0x09
0004EA CFE4 F000      05135         MOVFF   PREINC1, r0x08
0004EE CFE4 F000      05136         MOVFF   PREINC1, r0x07
0004F2 CFE4 F000      05137         MOVFF   PREINC1, r0x06
0004F6 CFE4 F000      05138         MOVFF   PREINC1, r0x05
0004FA CFE4 F000      05139         MOVFF   PREINC1, r0x04
0004FE CFE4 F000      05140         MOVFF   PREINC1, r0x03
000502 CFE4 F000      05141         MOVFF   PREINC1, r0x02
000506 CFE4 F000      05142         MOVFF   PREINC1, r0x01
00050A CFE4 F000      05143         MOVFF   PREINC1, r0x00
00050E CFE4 FFD9      05144         MOVFF   PREINC1, FSR2L
000512 CFE4 FFDA      05145         MOVFF   PREINC1, FSR2H
000516 0012           05146         RETURN  
                      05147 
                      05148 ; ; Starting pCode block
                      05149 S_RF24Network_cg__RF24N_begin_d code
000000                05150 _RF24N_begin_d:
                      05151 ;       .line   163; ../../../RF24Network_c/RF24Network_cg.c    void RF24N_begin_d(uint8_t _channel, uin
                            t16_t _node_address )
000000 CFDA FFE5      05152         MOVFF   FSR2H, POSTDEC1
000004 CFD9 FFE5      05153         MOVFF   FSR2L, POSTDEC1
000008 CFE2 FFDA      05154         MOVFF   FSR1H, FSR2H
00000C CFE1 FFD9      05155         MOVFF   FSR1L, FSR2L
000010 C??? F???      05156         MOVFF   r0x00, POSTDEC1
000014 C??? F???      05157         MOVFF   r0x01, POSTDEC1
000018 C??? F???      05158         MOVFF   r0x02, POSTDEC1
00001C C??? F???      05159         MOVFF   r0x03, POSTDEC1
000020 C??? F???      05160         MOVFF   r0x04, POSTDEC1
000024 C??? F???      05161         MOVFF   r0x05, POSTDEC1
000028 0E03           05162         MOVLW   0x03
00002A CFDB F000      05163         MOVFF   PLUSW2, r0x00
00002E 0E04           05164         MOVLW   0x04
000030 CFDB F000      05165         MOVFF   PLUSW2, r0x01
000034 0E05           05166         MOVLW   0x05
000036 CFDB F000      05167         MOVFF   PLUSW2, r0x02
                      05168 ;       .line   168; ../../../RF24Network_c/RF24Network_cg.c    if (! RF24N_is_valid_address(_node_addre
                            ss) )
00003A 50??           05169         MOVF    r0x02, W
Message[1301]: Using default destination of 0 (Access Bank).
00003C 6EE5           05170         MOVWF   POSTDEC1
00003E 50??           05171         MOVF    r0x01, W
Message[1301]: Using default destination of 0 (Access Bank).
000040 6EE5           05172         MOVWF   POSTDEC1
gpasm-1.4.0 #1107 (May  9 2015) build/sdcc/pr   12-2-2016  22:31:29         PAGE 116


LOC    OBJECT CODE    LINE  SOURCE TEXT
  VALUE

000042 EC?? F0??      05173         CALL    _RF24N_is_valid_address
Message[1301]: Using default destination of 0 (Access Bank).
000046 6E??           05174         MOVWF   r0x03
000048 52E6           05175         MOVF    POSTINC1, F
00004A 52E6           05176         MOVF    POSTINC1, F
00004C 50??           05177         MOVF    r0x03, W
00004E E1??           05178         BNZ     _00116_DS_
                      05179 ;       .line   169; ../../../RF24Network_c/RF24Network_cg.c    return;
000050 D???           05180         BRA     _00124_DS_
000052                05181 _00116_DS_:
                      05182 ;       .line   171; ../../../RF24Network_c/RF24Network_cg.c    rn.node_address = _node_address;
000052 50??           05183         MOVF    r0x01, W
000054 ????           05184         BANKSEL (_rn + 49)
000056 6F??           05185         MOVWF   (_rn + 49), B
000058 50??           05186         MOVF    r0x02, W
00005A ????           05187         BANKSEL (_rn + 50)
00005C 6F??           05188         MOVWF   (_rn + 50), B
                      05189 ;       .line   173; ../../../RF24Network_c/RF24Network_cg.c    if ( ! RF24_isValid() ){
00005E EC?? F0??      05190         CALL    _RF24_isValid
Message[1301]: Using default destination of 0 (Access Bank).
000062 6E??           05191         MOVWF   r0x03
000064 50??           05192         MOVF    r0x03, W
000066 E1??           05193         BNZ     _00118_DS_
                      05194 ;       .line   174; ../../../RF24Network_c/RF24Network_cg.c    return;
000068 D???           05195         BRA     _00124_DS_
00006A                05196 _00118_DS_:
                      05197 ;       .line   178; ../../../RF24Network_c/RF24Network_cg.c    if(_channel != USE_CURRENT_CHANNEL){
00006A 50??           05198         MOVF    r0x00, W
00006C 0AFF           05199         XORLW   0xff
00006E E0??           05200         BZ      _00120_DS_
                      05201 ;       .line   179; ../../../RF24Network_c/RF24Network_cg.c    RF24_setChannel(_channel);
000070 50??           05202         MOVF    r0x00, W
Message[1301]: Using default destination of 0 (Access Bank).
000072 6EE5           05203         MOVWF   POSTDEC1
000074 EC?? F0??      05204         CALL    _RF24_setChannel
000078 52E6           05205         MOVF    POSTINC1, F
00007A                05206 _00120_DS_:
                      05207 ;       .line   182; ../../../RF24Network_c/RF24Network_cg.c    RF24_setAutoAck_p(0,0);
00007A 0E00           05208         MOVLW   0x00
Message[1301]: Using default destination of 0 (Access Bank).
00007C 6EE5           05209         MOVWF   POSTDEC1
00007E 0E00           05210         MOVLW   0x00
Message[1301]: Using default destination of 0 (Access Bank).
000080 6EE5           05211         MOVWF   POSTDEC1
000082 EC?? F0??      05212         CALL    _RF24_setAutoAck_p
000086 52E6           05213         MOVF    POSTINC1, F
000088 52E6           05214         MOVF    POSTINC1, F
                      05215 ;       .line   185; ../../../RF24Network_c/RF24Network_cg.c    RF24_enableDynamicPayloads();
00008A EC?? F0??      05216         CALL    _RF24_enableDynamicPayloads
                      05217 ;       .line   189; ../../../RF24Network_c/RF24Network_cg.c    retryVar = (((rn.node_address % 6)+1) *2
                            ) + 3;
00008E 0E00           05218         MOVLW   0x00
Message[1301]: Using default destination of 0 (Access Bank).
gpasm-1.4.0 #1107 (May  9 2015) build/sdcc/pr   12-2-2016  22:31:29         PAGE 117


LOC    OBJECT CODE    LINE  SOURCE TEXT
  VALUE

000090 6EE5           05219         MOVWF   POSTDEC1
000092 0E06           05220         MOVLW   0x06
Message[1301]: Using default destination of 0 (Access Bank).
000094 6EE5           05221         MOVWF   POSTDEC1
000096 ????           05222         BANKSEL (_rn + 50)
000098 51??           05223         MOVF    (_rn + 50), W, B
Message[1301]: Using default destination of 0 (Access Bank).
00009A 6EE5           05224         MOVWF   POSTDEC1
00009C ????           05225         BANKSEL (_rn + 49)
00009E 51??           05226         MOVF    (_rn + 49), W, B
Message[1301]: Using default destination of 0 (Access Bank).
0000A0 6EE5           05227         MOVWF   POSTDEC1
0000A2 EC?? F0??      05228         CALL    __moduint
Message[1301]: Using default destination of 0 (Access Bank).
0000A6 6E??           05229         MOVWF   r0x00
0000A8 CFF3 F000      05230         MOVFF   PRODL, r0x03
0000AC 0E04           05231         MOVLW   0x04
0000AE 26E1           05232         ADDWF   FSR1L, F
0000B0 B0D8           05233         BTFSC   STATUS, 0
0000B2 2AE2           05234         INCF    FSR1H, F
0000B4 2A??           05235         INCF    r0x00, F
                      05236 ; ;multiply lit val:0x02 by variable r0x00 and store in r0x00
0000B6 50??           05237         MOVF    r0x00, W
0000B8 0D02           05238         MULLW   0x02
0000BA CFF3 F000      05239         MOVFF   PRODL, r0x00
0000BE 0E03           05240         MOVLW   0x03
0000C0 26??           05241         ADDWF   r0x00, F
                      05242 ;       .line   190; ../../../RF24Network_c/RF24Network_cg.c    RF24_setRetries(retryVar, 5); // max abo
                            ut 85ms per attempt
0000C2 0E05           05243         MOVLW   0x05
Message[1301]: Using default destination of 0 (Access Bank).
0000C4 6EE5           05244         MOVWF   POSTDEC1
0000C6 50??           05245         MOVF    r0x00, W
Message[1301]: Using default destination of 0 (Access Bank).
0000C8 6EE5           05246         MOVWF   POSTDEC1
0000CA EC?? F0??      05247         CALL    _RF24_setRetries
0000CE 52E6           05248         MOVF    POSTINC1, F
0000D0 52E6           05249         MOVF    POSTINC1, F
                      05250 ;       .line   191; ../../../RF24Network_c/RF24Network_cg.c    rn.txTimeout = 25;
0000D2 0E19           05251         MOVLW   0x19
0000D4 ????           05252         BANKSEL (_rn + 1)
0000D6 6F??           05253         MOVWF   (_rn + 1), B
0000D8 ????           05254         BANKSEL (_rn + 2)
0000DA 6B??           05255         CLRF    (_rn + 2), B
0000DC ????           05256         BANKSEL (_rn + 3)
0000DE 6B??           05257         CLRF    (_rn + 3), B
0000E0 ????           05258         BANKSEL (_rn + 4)
0000E2 6B??           05259         CLRF    (_rn + 4), B
0000E4 ????           05260         BANKSEL (_rn + 4)
                      05261 ;       .line   192; ../../../RF24Network_c/RF24Network_cg.c    rn.routeTimeout = rn.txTimeout*3; // Adj
                            ust for max delay per node within a single chain
0000E6 51??           05262         MOVF    (_rn + 4), W, B
Message[1301]: Using default destination of 0 (Access Bank).
gpasm-1.4.0 #1107 (May  9 2015) build/sdcc/pr   12-2-2016  22:31:29         PAGE 118


LOC    OBJECT CODE    LINE  SOURCE TEXT
  VALUE

0000E8 6EE5           05263         MOVWF   POSTDEC1
0000EA ????           05264         BANKSEL (_rn + 3)
0000EC 51??           05265         MOVF    (_rn + 3), W, B
Message[1301]: Using default destination of 0 (Access Bank).
0000EE 6EE5           05266         MOVWF   POSTDEC1
0000F0 ????           05267         BANKSEL (_rn + 2)
0000F2 51??           05268         MOVF    (_rn + 2), W, B
Message[1301]: Using default destination of 0 (Access Bank).
0000F4 6EE5           05269         MOVWF   POSTDEC1
0000F6 ????           05270         BANKSEL (_rn + 1)
0000F8 51??           05271         MOVF    (_rn + 1), W, B
Message[1301]: Using default destination of 0 (Access Bank).
0000FA 6EE5           05272         MOVWF   POSTDEC1
0000FC 0E00           05273         MOVLW   0x00
Message[1301]: Using default destination of 0 (Access Bank).
0000FE 6EE5           05274         MOVWF   POSTDEC1
000100 0E00           05275         MOVLW   0x00
Message[1301]: Using default destination of 0 (Access Bank).
000102 6EE5           05276         MOVWF   POSTDEC1
000104 0E00           05277         MOVLW   0x00
Message[1301]: Using default destination of 0 (Access Bank).
000106 6EE5           05278         MOVWF   POSTDEC1
000108 0E03           05279         MOVLW   0x03
Message[1301]: Using default destination of 0 (Access Bank).
00010A 6EE5           05280         MOVWF   POSTDEC1
00010C EC?? F0??      05281         CALL    __mullong
Message[1301]: Using default destination of 0 (Access Bank).
000110 6E??           05282         MOVWF   r0x00
000112 CFF3 F000      05283         MOVFF   PRODL, r0x03
000116 CFF4 F000      05284         MOVFF   PRODH, r0x04
00011A CFE9 F000      05285         MOVFF   FSR0L, r0x05
00011E 0E08           05286         MOVLW   0x08
000120 26E1           05287         ADDWF   FSR1L, F
000122 B0D8           05288         BTFSC   STATUS, 0
000124 2AE2           05289         INCF    FSR1H, F
000126 50??           05290         MOVF    r0x00, W
000128 ????           05291         BANKSEL (_rn + 5)
00012A 6F??           05292         MOVWF   (_rn + 5), B
00012C 50??           05293         MOVF    r0x03, W
00012E ????           05294         BANKSEL (_rn + 6)
000130 6F??           05295         MOVWF   (_rn + 6), B
                      05296 ;       .line   202; ../../../RF24Network_c/RF24Network_cg.c    RF24N_setup_address();
000132 EC?? F0??      05297         CALL    _RF24N_setup_address
                      05298 ;       .line   206; ../../../RF24Network_c/RF24Network_cg.c    while (i--){
000136 0E06           05299         MOVLW   0x06
Message[1301]: Using default destination of 0 (Access Bank).
000138 6E??           05300         MOVWF   r0x00
00013A                05301 _00121_DS_:
00013A C??? F???      05302         MOVFF   r0x00, r0x03
00013E 06??           05303         DECF    r0x00, F
000140 50??           05304         MOVF    r0x03, W
000142 E0??           05305         BZ      _00123_DS_
                      05306 ;       .line   208; ../../../RF24Network_c/RF24Network_cg.c    RF24N_pipe_address(_node_address,i,addr)
gpasm-1.4.0 #1107 (May  9 2015) build/sdcc/pr   12-2-2016  22:31:29         PAGE 119


LOC    OBJECT CODE    LINE  SOURCE TEXT
  VALUE

                            ;       
000144 0E??           05307         MOVLW   HIGH(_RF24N_begin_d_addr_2_183)
Message[1301]: Using default destination of 0 (Access Bank).
000146 6E??           05308         MOVWF   r0x04
000148 0E??           05309         MOVLW   LOW(_RF24N_begin_d_addr_2_183)
Message[1301]: Using default destination of 0 (Access Bank).
00014A 6E??           05310         MOVWF   r0x03
00014C 0E80           05311         MOVLW   0x80
Message[1301]: Using default destination of 0 (Access Bank).
00014E 6E??           05312         MOVWF   r0x05
000150 50??           05313         MOVF    r0x05, W
Message[1301]: Using default destination of 0 (Access Bank).
000152 6EE5           05314         MOVWF   POSTDEC1
000154 50??           05315         MOVF    r0x04, W
Message[1301]: Using default destination of 0 (Access Bank).
000156 6EE5           05316         MOVWF   POSTDEC1
000158 50??           05317         MOVF    r0x03, W
Message[1301]: Using default destination of 0 (Access Bank).
00015A 6EE5           05318         MOVWF   POSTDEC1
00015C 50??           05319         MOVF    r0x00, W
Message[1301]: Using default destination of 0 (Access Bank).
00015E 6EE5           05320         MOVWF   POSTDEC1
000160 50??           05321         MOVF    r0x02, W
Message[1301]: Using default destination of 0 (Access Bank).
000162 6EE5           05322         MOVWF   POSTDEC1
000164 50??           05323         MOVF    r0x01, W
Message[1301]: Using default destination of 0 (Access Bank).
000166 6EE5           05324         MOVWF   POSTDEC1
000168 EC?? F0??      05325         CALL    _RF24N_pipe_address
00016C 0E06           05326         MOVLW   0x06
00016E 26E1           05327         ADDWF   FSR1L, F
000170 B0D8           05328         BTFSC   STATUS, 0
000172 2AE2           05329         INCF    FSR1H, F
                      05330 ;       .line   209; ../../../RF24Network_c/RF24Network_cg.c    RF24_openReadingPipe_d(i,addr); 
000174 0E??           05331         MOVLW   HIGH(_RF24N_begin_d_addr_2_183)
Message[1301]: Using default destination of 0 (Access Bank).
000176 6E??           05332         MOVWF   r0x04
000178 0E??           05333         MOVLW   LOW(_RF24N_begin_d_addr_2_183)
Message[1301]: Using default destination of 0 (Access Bank).
00017A 6E??           05334         MOVWF   r0x03
00017C 0E80           05335         MOVLW   0x80
Message[1301]: Using default destination of 0 (Access Bank).
00017E 6E??           05336         MOVWF   r0x05
000180 50??           05337         MOVF    r0x05, W
Message[1301]: Using default destination of 0 (Access Bank).
000182 6EE5           05338         MOVWF   POSTDEC1
000184 50??           05339         MOVF    r0x04, W
Message[1301]: Using default destination of 0 (Access Bank).
000186 6EE5           05340         MOVWF   POSTDEC1
000188 50??           05341         MOVF    r0x03, W
Message[1301]: Using default destination of 0 (Access Bank).
00018A 6EE5           05342         MOVWF   POSTDEC1
00018C 50??           05343         MOVF    r0x00, W
gpasm-1.4.0 #1107 (May  9 2015) build/sdcc/pr   12-2-2016  22:31:29         PAGE 120


LOC    OBJECT CODE    LINE  SOURCE TEXT
  VALUE

Message[1301]: Using default destination of 0 (Access Bank).
00018E 6EE5           05344         MOVWF   POSTDEC1
000190 EC?? F0??      05345         CALL    _RF24_openReadingPipe_d
000194 0E04           05346         MOVLW   0x04
000196 26E1           05347         ADDWF   FSR1L, F
000198 B0D8           05348         BTFSC   STATUS, 0
00019A 2AE2           05349         INCF    FSR1H, F
00019C D???           05350         BRA     _00121_DS_
00019E                05351 _00123_DS_:
                      05352 ;       .line   211; ../../../RF24Network_c/RF24Network_cg.c    RF24_startListening();
00019E EC?? F0??      05353         CALL    _RF24_startListening
0001A2                05354 _00124_DS_:
0001A2 CFE4 F000      05355         MOVFF   PREINC1, r0x05
0001A6 CFE4 F000      05356         MOVFF   PREINC1, r0x04
0001AA CFE4 F000      05357         MOVFF   PREINC1, r0x03
0001AE CFE4 F000      05358         MOVFF   PREINC1, r0x02
0001B2 CFE4 F000      05359         MOVFF   PREINC1, r0x01
0001B6 CFE4 F000      05360         MOVFF   PREINC1, r0x00
0001BA CFE4 FFD9      05361         MOVFF   PREINC1, FSR2L
0001BE CFE4 FFDA      05362         MOVFF   PREINC1, FSR2H
0001C2 0012           05363         RETURN  
                      05364 
                      05365 ; ; Starting pCode block
                      05366 S_RF24Network_cg__RF24N_init    code
000000                05367 _RF24N_init:
                      05368 ;       .line   84; ../../../RF24Network_c/RF24Network_cg.c     void RF24N_init(void)
000000 CFDA FFE5      05369         MOVFF   FSR2H, POSTDEC1
000004 CFD9 FFE5      05370         MOVFF   FSR2L, POSTDEC1
000008 CFE2 FFDA      05371         MOVFF   FSR1H, FSR2H
00000C CFE1 FFD9      05372         MOVFF   FSR1L, FSR2L
000010 C??? F???      05373         MOVFF   r0x00, POSTDEC1
000014 C??? F???      05374         MOVFF   r0x01, POSTDEC1
000018 C??? F???      05375         MOVFF   r0x02, POSTDEC1
                      05376 ;       .line   86; ../../../RF24Network_c/RF24Network_cg.c     rn.next_frame= rn.frame_queue; 
00001C 0E??           05377         MOVLW   HIGH(_rn + 59)
Message[1301]: Using default destination of 0 (Access Bank).
00001E 6E??           05378         MOVWF   r0x01
000020 0E??           05379         MOVLW   LOW(_rn + 59)
Message[1301]: Using default destination of 0 (Access Bank).
000022 6E??           05380         MOVWF   r0x00
000024 0E80           05381         MOVLW   0x80
Message[1301]: Using default destination of 0 (Access Bank).
000026 6E??           05382         MOVWF   r0x02
000028 50??           05383         MOVF    r0x00, W
00002A ????           05384         BANKSEL (_rn + 213)
00002C 6F??           05385         MOVWF   (_rn + 213), B
00002E 50??           05386         MOVF    r0x01, W
000030 ????           05387         BANKSEL (_rn + 214)
000032 6F??           05388         MOVWF   (_rn + 214), B
000034 50??           05389         MOVF    r0x02, W
000036 ????           05390         BANKSEL (_rn + 215)
000038 6F??           05391         MOVWF   (_rn + 215), B
                      05392 ;       .line   88; ../../../RF24Network_c/RF24Network_cg.c     rn.frag_queue.message_buffer=&rn.frag_qu
gpasm-1.4.0 #1107 (May  9 2015) build/sdcc/pr   12-2-2016  22:31:29         PAGE 121


LOC    OBJECT CODE    LINE  SOURCE TEXT
  VALUE

                            eue_message_buffer[0];
00003A 0E??           05393         MOVLW   HIGH(_rn + 229)
Message[1301]: Using default destination of 0 (Access Bank).
00003C 6E??           05394         MOVWF   r0x01
00003E 0E??           05395         MOVLW   LOW(_rn + 229)
Message[1301]: Using default destination of 0 (Access Bank).
000040 6E??           05396         MOVWF   r0x00
000042 0E80           05397         MOVLW   0x80
Message[1301]: Using default destination of 0 (Access Bank).
000044 6E??           05398         MOVWF   r0x02
000046 50??           05399         MOVF    r0x00, W
000048 ????           05400         BANKSEL (_rn + 226)
00004A 6F??           05401         MOVWF   (_rn + 226), B
00004C 50??           05402         MOVF    r0x01, W
00004E ????           05403         BANKSEL (_rn + 227)
000050 6F??           05404         MOVWF   (_rn + 227), B
000052 50??           05405         MOVF    r0x02, W
000054 ????           05406         BANKSEL (_rn + 228)
000056 6F??           05407         MOVWF   (_rn + 228), B
                      05408 ;       .line   89; ../../../RF24Network_c/RF24Network_cg.c     rn.frag_ptr = &rn.frag_queue;
000058 0E??           05409         MOVLW   HIGH(_rn + 216)
Message[1301]: Using default destination of 0 (Access Bank).
00005A 6E??           05410         MOVWF   r0x01
00005C 0E??           05411         MOVLW   LOW(_rn + 216)
Message[1301]: Using default destination of 0 (Access Bank).
00005E 6E??           05412         MOVWF   r0x00
000060 0E80           05413         MOVLW   0x80
Message[1301]: Using default destination of 0 (Access Bank).
000062 6E??           05414         MOVWF   r0x02
000064 50??           05415         MOVF    r0x00, W
000066 ????           05416         BANKSEL (_rn + 39)
000068 6F??           05417         MOVWF   (_rn + 39), B
00006A 50??           05418         MOVF    r0x01, W
00006C ????           05419         BANKSEL (_rn + 40)
00006E 6F??           05420         MOVWF   (_rn + 40), B
000070 50??           05421         MOVF    r0x02, W
000072 ????           05422         BANKSEL (_rn + 41)
000074 6F??           05423         MOVWF   (_rn + 41), B
000076 ????           05424         BANKSEL (_rn + 44)
                      05425 ;       .line   91; ../../../RF24Network_c/RF24Network_cg.c     rn.txTime=0; 
000078 6B??           05426         CLRF    (_rn + 44), B
00007A ????           05427         BANKSEL (_rn + 45)
00007C 6B??           05428         CLRF    (_rn + 45), B
00007E ????           05429         BANKSEL (_rn + 46)
000080 6B??           05430         CLRF    (_rn + 46), B
000082 ????           05431         BANKSEL (_rn + 47)
000084 6B??           05432         CLRF    (_rn + 47), B
000086 ????           05433         BANKSEL (_rn + 43)
                      05434 ;       .line   92; ../../../RF24Network_c/RF24Network_cg.c     rn.networkFlags=0; 
000088 6B??           05435         CLRF    (_rn + 43), B
00008A ????           05436         BANKSEL (_rn + 42)
                      05437 ;       .line   93; ../../../RF24Network_c/RF24Network_cg.c     rn.returnSysMsgs=0; 
00008C 6B??           05438         CLRF    (_rn + 42), B
gpasm-1.4.0 #1107 (May  9 2015) build/sdcc/pr   12-2-2016  22:31:29         PAGE 122


LOC    OBJECT CODE    LINE  SOURCE TEXT
  VALUE

00008E ????           05439         BANKSEL _rn
                      05440 ;       .line   94; ../../../RF24Network_c/RF24Network_cg.c     rn.multicastRelay=0;
000090 6B??           05441         CLRF    _rn, B
                      05442 ;       .line   99; ../../../RF24Network_c/RF24Network_cg.c     rn.max_frame_payload_size = MAX_FRAME_SI
                            ZE-sizeof(RF24NetworkHeader);
000092 0E18           05443         MOVLW   0x18
000094 ????           05444         BANKSEL (_rn + 52)
000096 6F??           05445         MOVWF   (_rn + 52), B
000098 ????           05446         BANKSEL (_rn + 53)
00009A 6B??           05447         CLRF    (_rn + 53), B
00009C CFE4 F000      05448         MOVFF   PREINC1, r0x02
0000A0 CFE4 F000      05449         MOVFF   PREINC1, r0x01
0000A4 CFE4 F000      05450         MOVFF   PREINC1, r0x00
0000A8 CFE4 FFD9      05451         MOVFF   PREINC1, FSR2L
0000AC CFE4 FFDA      05452         MOVFF   PREINC1, FSR2H
0000B0 0012           05453         RETURN  
                      05454 
                      05455 ; ; Starting pCode block
                      05456 S_RF24Network_cg__RF24NH_init   code
000000                05457 _RF24NH_init:
                      05458 ;       .line   47; ../../../RF24Network_c/RF24Network_cg.c     void RF24NH_init(RF24NetworkHeader *rnh,
                             uint16_t _to, unsigned char _type)
000000 CFDA FFE5      05459         MOVFF   FSR2H, POSTDEC1
000004 CFD9 FFE5      05460         MOVFF   FSR2L, POSTDEC1
000008 CFE2 FFDA      05461         MOVFF   FSR1H, FSR2H
00000C CFE1 FFD9      05462         MOVFF   FSR1L, FSR2L
000010 C??? F???      05463         MOVFF   r0x00, POSTDEC1
000014 C??? F???      05464         MOVFF   r0x01, POSTDEC1
000018 C??? F???      05465         MOVFF   r0x02, POSTDEC1
00001C C??? F???      05466         MOVFF   r0x03, POSTDEC1
000020 C??? F???      05467         MOVFF   r0x04, POSTDEC1
000024 C??? F???      05468         MOVFF   r0x05, POSTDEC1
000028 C??? F???      05469         MOVFF   r0x06, POSTDEC1
00002C C??? F???      05470         MOVFF   r0x07, POSTDEC1
000030 C??? F???      05471         MOVFF   r0x08, POSTDEC1
000034 0E03           05472         MOVLW   0x03
000036 CFDB F000      05473         MOVFF   PLUSW2, r0x00
00003A 0E04           05474         MOVLW   0x04
00003C CFDB F000      05475         MOVFF   PLUSW2, r0x01
000040 0E05           05476         MOVLW   0x05
000042 CFDB F000      05477         MOVFF   PLUSW2, r0x02
000046 0E06           05478         MOVLW   0x06
000048 CFDB F000      05479         MOVFF   PLUSW2, r0x03
00004C 0E07           05480         MOVLW   0x07
00004E CFDB F000      05481         MOVFF   PLUSW2, r0x04
000052 0E08           05482         MOVLW   0x08
000054 CFDB F000      05483         MOVFF   PLUSW2, r0x05
                      05484 ;       .line   49; ../../../RF24Network_c/RF24Network_cg.c     rnh->to_node=_to;
000058 50??           05485         MOVF    r0x00, W
00005A 0F02           05486         ADDLW   0x02
Message[1301]: Using default destination of 0 (Access Bank).
00005C 6E??           05487         MOVWF   r0x06
00005E 0E00           05488         MOVLW   0x00
gpasm-1.4.0 #1107 (May  9 2015) build/sdcc/pr   12-2-2016  22:31:29         PAGE 123


LOC    OBJECT CODE    LINE  SOURCE TEXT
  VALUE

000060 20??           05489         ADDWFC  r0x01, W
Message[1301]: Using default destination of 0 (Access Bank).
000062 6E??           05490         MOVWF   r0x07
000064 0E00           05491         MOVLW   0x00
000066 20??           05492         ADDWFC  r0x02, W
Message[1301]: Using default destination of 0 (Access Bank).
000068 6E??           05493         MOVWF   r0x08
00006A C??? F???      05494         MOVFF   r0x03, POSTDEC1
00006E C??? F???      05495         MOVFF   r0x04, PRODH
000072 C??? F???      05496         MOVFF   r0x06, FSR0L
000076 C??? F???      05497         MOVFF   r0x07, PRODL
00007A 50??           05498         MOVF    r0x08, W
00007C EC?? F0??      05499         CALL    __gptrput2
                      05500 ;       .line   50; ../../../RF24Network_c/RF24Network_cg.c     rnh->id=next_id++;
000080 50??           05501         MOVF    r0x00, W
000082 0F04           05502         ADDLW   0x04
Message[1301]: Using default destination of 0 (Access Bank).
000084 6E??           05503         MOVWF   r0x03
000086 0E00           05504         MOVLW   0x00
000088 20??           05505         ADDWFC  r0x01, W
Message[1301]: Using default destination of 0 (Access Bank).
00008A 6E??           05506         MOVWF   r0x04
00008C 0E00           05507         MOVLW   0x00
00008E 20??           05508         ADDWFC  r0x02, W
Message[1301]: Using default destination of 0 (Access Bank).
000090 6E??           05509         MOVWF   r0x06
000092 C??? F???      05510         MOVFF   _next_id, r0x07
000096 C??? F???      05511         MOVFF   (_next_id + 1), r0x08
00009A ????           05512         BANKSEL _next_id
00009C 3F??           05513         INCFSZ  _next_id, F, B
00009E D???           05514         BRA     _10992_DS_
0000A0 ????           05515         BANKSEL (_next_id + 1)
0000A2 2B??           05516         INCF    (_next_id + 1), F, B
0000A4                05517 _10992_DS_:
0000A4 C??? F???      05518         MOVFF   r0x07, POSTDEC1
0000A8 C??? F???      05519         MOVFF   r0x08, PRODH
0000AC C??? F???      05520         MOVFF   r0x03, FSR0L
0000B0 C??? F???      05521         MOVFF   r0x04, PRODL
0000B4 50??           05522         MOVF    r0x06, W
0000B6 EC?? F0??      05523         CALL    __gptrput2
                      05524 ;       .line   51; ../../../RF24Network_c/RF24Network_cg.c     rnh->type=_type;
0000BA 0E06           05525         MOVLW   0x06
0000BC 26??           05526         ADDWF   r0x00, F
0000BE 0E00           05527         MOVLW   0x00
0000C0 22??           05528         ADDWFC  r0x01, F
0000C2 22??           05529         ADDWFC  r0x02, F
0000C4 C??? F???      05530         MOVFF   r0x05, POSTDEC1
0000C8 C??? F???      05531         MOVFF   r0x00, FSR0L
0000CC C??? F???      05532         MOVFF   r0x01, PRODL
0000D0 50??           05533         MOVF    r0x02, W
0000D2 EC?? F0??      05534         CALL    __gptrput1
0000D6 CFE4 F000      05535         MOVFF   PREINC1, r0x08
0000DA CFE4 F000      05536         MOVFF   PREINC1, r0x07
gpasm-1.4.0 #1107 (May  9 2015) build/sdcc/pr   12-2-2016  22:31:29         PAGE 124


LOC    OBJECT CODE    LINE  SOURCE TEXT
  VALUE

0000DE CFE4 F000      05537         MOVFF   PREINC1, r0x06
0000E2 CFE4 F000      05538         MOVFF   PREINC1, r0x05
0000E6 CFE4 F000      05539         MOVFF   PREINC1, r0x04
0000EA CFE4 F000      05540         MOVFF   PREINC1, r0x03
0000EE CFE4 F000      05541         MOVFF   PREINC1, r0x02
0000F2 CFE4 F000      05542         MOVFF   PREINC1, r0x01
0000F6 CFE4 F000      05543         MOVFF   PREINC1, r0x00
0000FA CFE4 FFD9      05544         MOVFF   PREINC1, FSR2L
0000FE CFE4 FFDA      05545         MOVFF   PREINC1, FSR2H
000102 0012           05546         RETURN  
                      05547 
                      05548 
                      05549 
                      05550 ; Statistics:
                      05551 ; code size:    11454 (0x2cbe) bytes ( 8.74%)
                      05552 ;                5727 (0x165f) words
                      05553 ; udata size:     404 (0x0194) bytes (10.52%)
                      05554 ; access size:     27 (0x001b) bytes
                      05555 
                      05556 
                      05557         end
gpasm-1.4.0 #1107 (May  9 2015) build/sdcc/pr   12-2-2016  22:31:29         PAGE 125


SYMBOL TABLE
  LABEL                             VALUE

FSR0H                             00000FEA
FSR0L                             00000FE9
FSR1H                             00000FE2
FSR1L                             00000FE1
FSR2H                             00000FDA
FSR2L                             00000FD9
INDF0                             00000FEF
PLUSW2                            00000FDB
POSTDEC1                          00000FE5
POSTINC1                          00000FE6
PREINC1                           00000FE4
PRODH                             00000FF4
PRODL                             00000FF3
STATUS                            00000FD8
WREG                              00000FE8
_00116_DS_                        00000052
_00118_DS_                        0000006A
_00120_DS_                        0000007A
_00121_DS_                        0000013A
_00123_DS_                        0000019E
_00124_DS_                        000001A2
_00149_DS_                        0000009A
_00151_DS_                        00000080
_00157_DS_                        00000100
_00165_DS_                        00000262
_00167_DS_                        000002E0
_00175_DS_                        00000312
_00176_DS_                        00000344
_00178_DS_                        000002FC
_00185_DS_                        00000432
_00187_DS_                        00000492
_00191_DS_                        000004A0
_00194_DS_                        0000036A
_00197_DS_                        000000A0
_00199_DS_                        000004D0
_00200_DS_                        000004D2
_00285_DS_                        0000007E
_00288_DS_                        000001C2
_00289_DS_                        000001C4
_00291_DS_                        000001CC
_00293_DS_                        000001D4
_00295_DS_                        000001E2
_00312_DS_                        00000366
_00313_DS_                        00000388
_00314_DS_                        0000038A
_00316_DS_                        00000392
_00319_DS_                        000003A6
_00321_DS_                        0000049C
_00330_DS_                        00000128
_00331_DS_                        0000018C
_00333_DS_                        000001D8
_00335_DS_                        000002C2
_00336_DS_                        0000032E
gpasm-1.4.0 #1107 (May  9 2015) build/sdcc/pr   12-2-2016  22:31:29         PAGE 126


SYMBOL TABLE
  LABEL                             VALUE 

_00337_DS_                        00000334
_00340_DS_                        000002F8
_00342_DS_                        000003D0
_00344_DS_                        00000400
_00346_DS_                        00000568
_00348_DS_                        0000056C
_00350_DS_                        00000298
_00355_DS_                        00000284
_00360_DS_                        00000582
_00361_DS_                        000005FC
_00363_DS_                        000007B4
_00365_DS_                        000007BA
_00366_DS_                        000007BC
_00367_DS_                        000007BE
_00370_DS_                        000000B2
_00450_DS_                        000000BA
_00451_DS_                        0000011C
_00452_DS_                        0000015E
_00453_DS_                        00000160
_00454_DS_                        00000184
_00455_DS_                        00000186
_00456_DS_                        000001C4
_00464_DS_                        000002B6
_00472_DS_                        000003BE
_00475_DS_                        00000430
_00479_DS_                        0000058A
_00480_DS_                        00000626
_00488_DS_                        0000003E
_00494_DS_                        00000020
_00496_DS_                        00000028
_00502_DS_                        000000EC
_00503_DS_                        000000F0
_00509_DS_                        00000170
_00511_DS_                        00000206
_00513_DS_                        0000027C
_00516_DS_                        00000128
_00517_DS_                        00000130
_00530_DS_                        0000011C
_00547_DS_                        000000B8
_00549_DS_                        00000106
_00551_DS_                        00000172
_00553_DS_                        000001A0
_00555_DS_                        000001B0
_00557_DS_                        00000248
_00559_DS_                        000002E2
_00562_DS_                        000002CA
_00563_DS_                        000002F4
_00565_DS_                        000003C6
_00566_DS_                        000003CC
_00570_DS_                        00000274
_00574_DS_                        00000434
_00576_DS_                        0000044A
_00578_DS_                        0000047C
gpasm-1.4.0 #1107 (May  9 2015) build/sdcc/pr   12-2-2016  22:31:29         PAGE 127


SYMBOL TABLE
  LABEL                             VALUE 

_00579_DS_                        0000047E
_00581_DS_                        000001DE
_00582_DS_                        000001E0
_00584_DS_                        00000344
_00602_DS_                        000003DA
_00637_DS_                        000000F8
_00639_DS_                        00000122
_00640_DS_                        000001AA
_00642_DS_                        00000236
_00646_DS_                        0000033A
_00654_DS_                        0000012C
_00656_DS_                        00000170
_00658_DS_                        00000182
_00660_DS_                        000001A0
_00661_DS_                        000001DA
_00676_DS_                        00000136
_00677_DS_                        0000016A
_00678_DS_                        0000016C
_00679_DS_                        0000017C
_00680_DS_                        0000017E
_00686_DS_                        0000006C
_00689_DS_                        00000086
_00691_DS_                        000001F8
_00696_DS_                        0000026E
_00699_DS_                        00000284
_00703_DS_                        000002D8
_00707_DS_                        0000021C
_00709_DS_                        000002E2
_00710_DS_                        000002E4
_00763_DS_                        000000EE
_00764_DS_                        00000104
_00765_DS_                        00000106
_00767_DS_                        00000210
_00774_DS_                        000002D4
_00783_DS_                        00000122
_00786_DS_                        000000DE
_00787_DS_                        0000017A
_00805_DS_                        0000007E
_00807_DS_                        00000094
_00808_DS_                        000000A4
_00810_DS_                        00000138
_00829_DS_                        00000086
_00845_DS_                        00000046
_00846_DS_                        00000048
_00851_DS_                        0000002C
_00853_DS_                        00000058
_00854_DS_                        000000A4
_00856_DS_                        000000D0
_00862_DS_                        0000005E
_00864_DS_                        0000006E
_00874_DS_                        00000088
_00875_DS_                        00000080
_00886_DS_                        0000004C
gpasm-1.4.0 #1107 (May  9 2015) build/sdcc/pr   12-2-2016  22:31:29         PAGE 128


SYMBOL TABLE
  LABEL                             VALUE 

_00887_DS_                        00000034
_00889_DS_                        00000060
_00913_DS_                        0000007C
_00914_DS_                        00000082
_00915_DS_                        00000088
_00920_DS_                        0000007A
_00921_DS_                        00000066
_00922_DS_                        00000072
_00923_DS_                        00000070
_00928_DS_                        000000BE
_00929_DS_                        000000FE
_00931_DS_                        000000AE
_00933_DS_                        00000114
_00934_DS_                        0000011E
_00935_DS_                        00000148
_00939_DS_                        0000017C
_00947_DS_                        0000017A
_00961_DS_                        00000150
_10992_DS_                        000000A4
_ADCON0                           00000000
_ADCON0bits                       00000000
_ADCON1                           00000000
_ADCON1bits                       00000000
_ADCON2                           00000000
_ADCON2bits                       00000000
_ADRES                            00000000
_ADRESH                           00000000
_ADRESL                           00000000
_BAUDCON                          00000000
_BAUDCONbits                      00000000
_BAUDCTL                          00000000
_BAUDCTLbits                      00000000
_BSR                              00000000
_CCP1CON                          00000000
_CCP1CONbits                      00000000
_CCP2CON                          00000000
_CCP2CONbits                      00000000
_CCPR1                            00000000
_CCPR1H                           00000000
_CCPR1L                           00000000
_CCPR2                            00000000
_CCPR2H                           00000000
_CCPR2L                           00000000
_CMCON                            00000000
_CMCONbits                        00000000
_CVRCON                           00000000
_CVRCONbits                       00000000
_DDRA                             00000000
_DDRAbits                         00000000
_DDRB                             00000000
_DDRBbits                         00000000
_DDRC                             00000000
_DDRCbits                         00000000
gpasm-1.4.0 #1107 (May  9 2015) build/sdcc/pr   12-2-2016  22:31:29         PAGE 129


SYMBOL TABLE
  LABEL                             VALUE 

_DDRD                             00000000
_DDRDbits                         00000000
_DDRE                             00000000
_DDREbits                         00000000
_ECCP1AS                          00000000
_ECCP1ASbits                      00000000
_EEADR                            00000000
_EEADRH                           00000000
_EECON1                           00000000
_EECON1bits                       00000000
_EECON2                           00000000
_EEDATA                           00000000
_FSR0H                            00000000
_FSR0L                            00000000
_FSR1H                            00000000
_FSR1L                            00000000
_FSR2H                            00000000
_FSR2L                            00000000
_HLVDCON                          00000000
_HLVDCONbits                      00000000
_INDF0                            00000000
_INDF1                            00000000
_INDF2                            00000000
_INTCON                           00000000
_INTCON2                          00000000
_INTCON2bits                      00000000
_INTCON3                          00000000
_INTCON3bits                      00000000
_INTCONbits                       00000000
_IPR1                             00000000
_IPR1bits                         00000000
_IPR2                             00000000
_IPR2bits                         00000000
_LATA                             00000000
_LATAbits                         00000000
_LATB                             00000000
_LATBbits                         00000000
_LATC                             00000000
_LATCbits                         00000000
_LATD                             00000000
_LATDbits                         00000000
_LATE                             00000000
_LATEbits                         00000000
_LVDCON                           00000000
_LVDCONbits                       00000000
_OSCCON                           00000000
_OSCCONbits                       00000000
_OSCTUNE                          00000000
_OSCTUNEbits                      00000000
_PC                               00000000
_PCL                              00000000
_PCLATH                           00000000
_PCLATU                           00000000
gpasm-1.4.0 #1107 (May  9 2015) build/sdcc/pr   12-2-2016  22:31:29         PAGE 130


SYMBOL TABLE
  LABEL                             VALUE 

_PIE1                             00000000
_PIE1bits                         00000000
_PIE2                             00000000
_PIE2bits                         00000000
_PIR1                             00000000
_PIR1bits                         00000000
_PIR2                             00000000
_PIR2bits                         00000000
_PLUSW0                           00000000
_PLUSW1                           00000000
_PLUSW2                           00000000
_PORTA                            00000000
_PORTAbits                        00000000
_PORTB                            00000000
_PORTBbits                        00000000
_PORTC                            00000000
_PORTCbits                        00000000
_PORTD                            00000000
_PORTDbits                        00000000
_PORTE                            00000000
_PORTEbits                        00000000
_POSTDEC0                         00000000
_POSTDEC1                         00000000
_POSTDEC2                         00000000
_POSTINC0                         00000000
_POSTINC1                         00000000
_POSTINC2                         00000000
_PR2                              00000000
_PREINC0                          00000000
_PREINC1                          00000000
_PREINC2                          00000000
_PROD                             00000000
_PRODH                            00000000
_PRODL                            00000000
_PWM1CON                          00000000
_PWM1CONbits                      00000000
_RCON                             00000000
_RCONbits                         00000000
_RCREG                            00000000
_RCSTA                            00000000
_RCSTAbits                        00000000
_RF24NH_init                      00000000
_RF24N__write                     00000000
_RF24N_addressOfPipe              00000000
_RF24N_available                  00000000
_RF24N_begin                      00000000
_RF24N_begin_d                    00000000
_RF24N_begin_d_addr_2_183         00000000
_RF24N_direct_child_route_to      00000000
_RF24N_enqueue                    00000000
_RF24N_enqueue_message_size_1_208  00000000
_RF24N_getFrame_buffer            00000000
_RF24N_getNetworkFlags            00000000
gpasm-1.4.0 #1107 (May  9 2015) build/sdcc/pr   12-2-2016  22:31:29         PAGE 131


SYMBOL TABLE
  LABEL                             VALUE 

_RF24N_getRouteTimeout            00000000
_RF24N_init                       00000000
_RF24N_is_descendant              00000000
_RF24N_is_direct_child            00000000
_RF24N_is_valid_address           00000000
_RF24N_levelToAddress             00000000
_RF24N_logicalToPhysicalAddress   00000000
_RF24N_multicast                  00000000
_RF24N_multicastLevel             00000000
_RF24N_multicastLevel_addr_1_307  00000000
_RF24N_parent                     00000000
_RF24N_peek                       00000000
_RF24N_peek_msg_size_2_232        00000000
_RF24N_pipe_address               00000000
_RF24N_pipe_address_address_translation_1_313  00000002
_RF24N_pipe_address_result_1_313  00000000
_RF24N_read                       00000000
_RF24N_read_bufsize_1_234         00000000
_RF24N_setNetworkFlags            00000000
_RF24N_setReturnSysMsgs           00000000
_RF24N_setup_address              00000000
_RF24N_update                     00000000
_RF24N_update_pipe_num_1_184      00000000
_RF24N_write                      00000000
_RF24N_write_                     00000000
_RF24N_write_conversion_1_268     00000000
_RF24N_write_m                    00000000
_RF24N_write_to_pipe              00000000
_RF24N_write_to_pipe_out_pipe_1_283  00000000
_RF24_available_p                 00000000
_RF24_enableDynamicPayloads       00000000
_RF24_getDynamicPayloadSize       00000000
_RF24_isValid                     00000000
_RF24_openReadingPipe_d           00000000
_RF24_openWritingPipe_d           00000000
_RF24_read                        00000000
_RF24_setAutoAck_p                00000000
_RF24_setChannel                  00000000
_RF24_setRetries                  00000000
_RF24_startListening              00000000
_RF24_stopListening               00000000
_RF24_txStandBy_t                 00000000
_RF24_writeFast_m                 00000000
_SPBRG                            00000000
_SPBRGH                           00000000
_SSPADD                           00000000
_SSPBUF                           00000000
_SSPCON1                          00000000
_SSPCON1bits                      00000000
_SSPCON2                          00000000
_SSPCON2bits                      00000000
_SSPSTAT                          00000000
_SSPSTATbits                      00000000
gpasm-1.4.0 #1107 (May  9 2015) build/sdcc/pr   12-2-2016  22:31:29         PAGE 132


SYMBOL TABLE
  LABEL                             VALUE 

_STATUS                           00000000
_STATUSbits                       00000000
_STKPTR                           00000000
_STKPTRbits                       00000000
_T0CON                            00000000
_T0CONbits                        00000000
_T1CON                            00000000
_T1CONbits                        00000000
_T2CON                            00000000
_T2CONbits                        00000000
_T3CON                            00000000
_T3CONbits                        00000000
_TABLAT                           00000000
_TBLPTR                           00000000
_TBLPTRH                          00000000
_TBLPTRL                          00000000
_TBLPTRU                          00000000
_TMR0                             00000000
_TMR0H                            00000000
_TMR0L                            00000000
_TMR1                             00000000
_TMR1H                            00000000
_TMR1L                            00000000
_TMR2                             00000000
_TMR3                             00000000
_TMR3H                            00000000
_TMR3L                            00000000
_TOS                              00000000
_TOSH                             00000000
_TOSL                             00000000
_TOSU                             00000000
_TRISA                            00000000
_TRISAbits                        00000000
_TRISB                            00000000
_TRISBbits                        00000000
_TRISC                            00000000
_TRISCbits                        00000000
_TRISD                            00000000
_TRISDbits                        00000000
_TRISE                            00000000
_TRISEbits                        00000000
_TXREG                            00000000
_TXSTA                            00000000
_TXSTAbits                        00000000
_WDTCON                           00000000
_WDTCONbits                       00000000
_WREG                             00000000
__18F4620                         00000001
__ACC_RAM_LOW_END                 0000007F
__CODE_END                        0000FFFF
__CODE_START                      00000000
__EEPROM_END                      00F003FF
__EEPROM_START                    00F00000
gpasm-1.4.0 #1107 (May  9 2015) build/sdcc/pr   12-2-2016  22:31:29         PAGE 133


SYMBOL TABLE
  LABEL                             VALUE 

__VECTOR_INT_HIGH                 00000008
__VECTOR_INT_LOW                  00000018
__VECTOR_RESET                    00000000
__divuint                         00000000
__gptrget1                        00000000
__gptrget2                        00000000
__gptrput1                        00000000
__gptrput2                        00000000
__moduint                         00000000
__mulint                          00000000
__mullong                         00000000
_delay                            00000000
_delayMicroseconds                00000000
_memcpy                           00000000
_memmove                          00000000
_millis                           00000000
_mtime                            00000000
_next_id                          00000000
_rn                               00000000
_stdin                            00000000
_stdout                           00000000
r0x00                             00000000
r0x01                             00000001
r0x02                             00000002
r0x03                             00000003
r0x04                             00000004
r0x05                             00000005
r0x06                             00000006
r0x07                             00000007
r0x08                             00000008
r0x09                             00000009
r0x0a                             0000000A
r0x0b                             0000000B
r0x0c                             0000000C
r0x0d                             0000000D
r0x0e                             0000000E
r0x0f                             0000000F
r0x10                             00000010
r0x11                             00000011
r0x12                             00000012
r0x13                             00000013
r0x14                             00000014
r0x15                             00000015
r0x16                             00000016
r0x17                             00000017
r0x18                             00000018
r0x19                             00000019
r0x1a                             0000001A

Errors   :     0
Warnings :     0 reported,     0 suppressed
Messages :   838 reported,     0 suppressed

