gpasm-1.4.0 #1107 (May  9 2015) build/sdcc/pr   12-2-2016  22:31:29         PAGE  1


LOC    OBJECT CODE    LINE  SOURCE TEXT
  VALUE

                      00001 ;--------------------------------------------------------
                      00002 ; File Created by SDCC : free open source ANSI-C Compiler
                      00003 ; Version 3.6.0 #9615 (Linux)
                      00004 ;--------------------------------------------------------
                      00005 ; PIC16 port for the Microchip 16-bit core micros
                      00006 ;--------------------------------------------------------
                      00007         list    p=18f4620
                      00008         radix   dec
                      00009 
                      00010 
                      00011 ;--------------------------------------------------------
                      00012 ; public variables in this module
                      00013 ;--------------------------------------------------------
  0000                00014         global  _RF24M_init
  0000                00015         global  _RF24M_begin
  0000                00016         global  _RF24M_update
  0000                00017         global  _RF24M_write_n
  0000                00018         global  _RF24M_write
  0000                00019         global  _RF24M_setChannel
  0000                00020         global  _RF24M_setChild
  0000                00021         global  _RF24M_checkConnection
  0000                00022         global  _RF24M_getAddress
  0000                00023         global  _RF24M_getNodeID
  0000                00024         global  _RF24M_releaseAddress
  0000                00025         global  _RF24M_renewAddress
  0000                00026         global  _RF24M_requestAddress
  0000                00027         global  _RF24M_setNodeID
  0000                00028         global  _RF24M_setStaticAddress
  0000                00029         global  _RF24M_setAddress
  0000                00030         global  _RF24M_loadDHCP
  0000                00031         global  _RF24M_saveDHCP
  0000                00032         global  _RF24M_DHCP
                      00033 
                      00034 ;--------------------------------------------------------
                      00035 ; extern variables in this module
                      00036 ;--------------------------------------------------------
  0000                00037         extern  __gptrget2
  0000                00038         extern  __gptrput2
  0000                00039         extern  __gptrget1
  0000                00040         extern  __moduchar
  0000                00041         extern  __gptrput1
  0000                00042         extern  _stdin
  0000                00043         extern  _stdout
  0000                00044         extern  _PORTAbits
  0000                00045         extern  _PORTBbits
  0000                00046         extern  _PORTCbits
  0000                00047         extern  _PORTDbits
  0000                00048         extern  _PORTEbits
  0000                00049         extern  _LATAbits
  0000                00050         extern  _LATBbits
  0000                00051         extern  _LATCbits
  0000                00052         extern  _LATDbits
  0000                00053         extern  _LATEbits
gpasm-1.4.0 #1107 (May  9 2015) build/sdcc/pr   12-2-2016  22:31:29         PAGE  2


LOC    OBJECT CODE    LINE  SOURCE TEXT
  VALUE

  0000                00054         extern  _DDRAbits
  0000                00055         extern  _TRISAbits
  0000                00056         extern  _DDRBbits
  0000                00057         extern  _TRISBbits
  0000                00058         extern  _DDRCbits
  0000                00059         extern  _TRISCbits
  0000                00060         extern  _DDRDbits
  0000                00061         extern  _TRISDbits
  0000                00062         extern  _DDREbits
  0000                00063         extern  _TRISEbits
  0000                00064         extern  _OSCTUNEbits
  0000                00065         extern  _PIE1bits
  0000                00066         extern  _PIR1bits
  0000                00067         extern  _IPR1bits
  0000                00068         extern  _PIE2bits
  0000                00069         extern  _PIR2bits
  0000                00070         extern  _IPR2bits
  0000                00071         extern  _EECON1bits
  0000                00072         extern  _RCSTAbits
  0000                00073         extern  _TXSTAbits
  0000                00074         extern  _T3CONbits
  0000                00075         extern  _CMCONbits
  0000                00076         extern  _CVRCONbits
  0000                00077         extern  _ECCP1ASbits
  0000                00078         extern  _PWM1CONbits
  0000                00079         extern  _BAUDCONbits
  0000                00080         extern  _BAUDCTLbits
  0000                00081         extern  _CCP2CONbits
  0000                00082         extern  _CCP1CONbits
  0000                00083         extern  _ADCON2bits
  0000                00084         extern  _ADCON1bits
  0000                00085         extern  _ADCON0bits
  0000                00086         extern  _SSPCON2bits
  0000                00087         extern  _SSPCON1bits
  0000                00088         extern  _SSPSTATbits
  0000                00089         extern  _T2CONbits
  0000                00090         extern  _T1CONbits
  0000                00091         extern  _RCONbits
  0000                00092         extern  _WDTCONbits
  0000                00093         extern  _HLVDCONbits
  0000                00094         extern  _LVDCONbits
  0000                00095         extern  _OSCCONbits
  0000                00096         extern  _T0CONbits
  0000                00097         extern  _STATUSbits
  0000                00098         extern  _INTCON3bits
  0000                00099         extern  _INTCON2bits
  0000                00100         extern  _INTCONbits
  0000                00101         extern  _STKPTRbits
  0000                00102         extern  _mtime
  0000                00103         extern  _PORTA
  0000                00104         extern  _PORTB
  0000                00105         extern  _PORTC
  0000                00106         extern  _PORTD
gpasm-1.4.0 #1107 (May  9 2015) build/sdcc/pr   12-2-2016  22:31:29         PAGE  3


LOC    OBJECT CODE    LINE  SOURCE TEXT
  VALUE

  0000                00107         extern  _PORTE
  0000                00108         extern  _LATA
  0000                00109         extern  _LATB
  0000                00110         extern  _LATC
  0000                00111         extern  _LATD
  0000                00112         extern  _LATE
  0000                00113         extern  _DDRA
  0000                00114         extern  _TRISA
  0000                00115         extern  _DDRB
  0000                00116         extern  _TRISB
  0000                00117         extern  _DDRC
  0000                00118         extern  _TRISC
  0000                00119         extern  _DDRD
  0000                00120         extern  _TRISD
  0000                00121         extern  _DDRE
  0000                00122         extern  _TRISE
  0000                00123         extern  _OSCTUNE
  0000                00124         extern  _PIE1
  0000                00125         extern  _PIR1
  0000                00126         extern  _IPR1
  0000                00127         extern  _PIE2
  0000                00128         extern  _PIR2
  0000                00129         extern  _IPR2
  0000                00130         extern  _EECON1
  0000                00131         extern  _EECON2
  0000                00132         extern  _EEDATA
  0000                00133         extern  _EEADR
  0000                00134         extern  _EEADRH
  0000                00135         extern  _RCSTA
  0000                00136         extern  _TXSTA
  0000                00137         extern  _TXREG
  0000                00138         extern  _RCREG
  0000                00139         extern  _SPBRG
  0000                00140         extern  _SPBRGH
  0000                00141         extern  _T3CON
  0000                00142         extern  _TMR3
  0000                00143         extern  _TMR3L
  0000                00144         extern  _TMR3H
  0000                00145         extern  _CMCON
  0000                00146         extern  _CVRCON
  0000                00147         extern  _ECCP1AS
  0000                00148         extern  _PWM1CON
  0000                00149         extern  _BAUDCON
  0000                00150         extern  _BAUDCTL
  0000                00151         extern  _CCP2CON
  0000                00152         extern  _CCPR2
  0000                00153         extern  _CCPR2L
  0000                00154         extern  _CCPR2H
  0000                00155         extern  _CCP1CON
  0000                00156         extern  _CCPR1
  0000                00157         extern  _CCPR1L
  0000                00158         extern  _CCPR1H
  0000                00159         extern  _ADCON2
gpasm-1.4.0 #1107 (May  9 2015) build/sdcc/pr   12-2-2016  22:31:29         PAGE  4


LOC    OBJECT CODE    LINE  SOURCE TEXT
  VALUE

  0000                00160         extern  _ADCON1
  0000                00161         extern  _ADCON0
  0000                00162         extern  _ADRES
  0000                00163         extern  _ADRESL
  0000                00164         extern  _ADRESH
  0000                00165         extern  _SSPCON2
  0000                00166         extern  _SSPCON1
  0000                00167         extern  _SSPSTAT
  0000                00168         extern  _SSPADD
  0000                00169         extern  _SSPBUF
  0000                00170         extern  _T2CON
  0000                00171         extern  _PR2
  0000                00172         extern  _TMR2
  0000                00173         extern  _T1CON
  0000                00174         extern  _TMR1
  0000                00175         extern  _TMR1L
  0000                00176         extern  _TMR1H
  0000                00177         extern  _RCON
  0000                00178         extern  _WDTCON
  0000                00179         extern  _HLVDCON
  0000                00180         extern  _LVDCON
  0000                00181         extern  _OSCCON
  0000                00182         extern  _T0CON
  0000                00183         extern  _TMR0
  0000                00184         extern  _TMR0L
  0000                00185         extern  _TMR0H
  0000                00186         extern  _STATUS
  0000                00187         extern  _FSR2L
  0000                00188         extern  _FSR2H
  0000                00189         extern  _PLUSW2
  0000                00190         extern  _PREINC2
  0000                00191         extern  _POSTDEC2
  0000                00192         extern  _POSTINC2
  0000                00193         extern  _INDF2
  0000                00194         extern  _BSR
  0000                00195         extern  _FSR1L
  0000                00196         extern  _FSR1H
  0000                00197         extern  _PLUSW1
  0000                00198         extern  _PREINC1
  0000                00199         extern  _POSTDEC1
  0000                00200         extern  _POSTINC1
  0000                00201         extern  _INDF1
  0000                00202         extern  _WREG
  0000                00203         extern  _FSR0L
  0000                00204         extern  _FSR0H
  0000                00205         extern  _PLUSW0
  0000                00206         extern  _PREINC0
  0000                00207         extern  _POSTDEC0
  0000                00208         extern  _POSTINC0
  0000                00209         extern  _INDF0
  0000                00210         extern  _INTCON3
  0000                00211         extern  _INTCON2
  0000                00212         extern  _INTCON
gpasm-1.4.0 #1107 (May  9 2015) build/sdcc/pr   12-2-2016  22:31:29         PAGE  5


LOC    OBJECT CODE    LINE  SOURCE TEXT
  VALUE

  0000                00213         extern  _PROD
  0000                00214         extern  _PRODL
  0000                00215         extern  _PRODH
  0000                00216         extern  _TABLAT
  0000                00217         extern  _TBLPTR
  0000                00218         extern  _TBLPTRL
  0000                00219         extern  _TBLPTRH
  0000                00220         extern  _TBLPTRU
  0000                00221         extern  _PC
  0000                00222         extern  _PCL
  0000                00223         extern  _PCLATH
  0000                00224         extern  _PCLATU
  0000                00225         extern  _STKPTR
  0000                00226         extern  _TOS
  0000                00227         extern  _TOSL
  0000                00228         extern  _TOSH
  0000                00229         extern  _TOSU
  0000                00230         extern  _malloc
  0000                00231         extern  _realloc
  0000                00232         extern  _memcpy
  0000                00233         extern  _millis
  0000                00234         extern  _delay
  0000                00235         extern  _RF24_begin
  0000                00236         extern  _RF24_startListening
  0000                00237         extern  _RF24_stopListening
  0000                00238         extern  _RF24_available
  0000                00239         extern  _RF24_rxFifoFull
  0000                00240         extern  _RF24_setChannel
  0000                00241         extern  _RF24_setDataRate
  0000                00242         extern  _RF24NH_init
  0000                00243         extern  _RF24N_begin
  0000                00244         extern  _RF24N_update
  0000                00245         extern  _RF24N_write_m
  0000                00246         extern  _RF24N_multicast
  0000                00247         extern  _RF24N_write_
  0000                00248         extern  _RF24N_getFrame_buffer
  0000                00249         extern  _RF24N_setReturnSysMsgs
  0000                00250         extern  _RF24N_getNetworkFlags
  0000                00251         extern  _RF24N_setNetworkFlags
  0000                00252         extern  _RF24N_getRouteTimeout
  0000                00253         extern  __mulint
                      00254 
                      00255 ;--------------------------------------------------------
                      00256 ;       Equates to used internal registers
                      00257 ;--------------------------------------------------------
  00000FD8            00258 STATUS  equ     0xfd8
  00000FE8            00259 WREG    equ     0xfe8
  00000FE9            00260 FSR0L   equ     0xfe9
  00000FEA            00261 FSR0H   equ     0xfea
  00000FE1            00262 FSR1L   equ     0xfe1
  00000FE2            00263 FSR1H   equ     0xfe2
  00000FD9            00264 FSR2L   equ     0xfd9
  00000FDA            00265 FSR2H   equ     0xfda
gpasm-1.4.0 #1107 (May  9 2015) build/sdcc/pr   12-2-2016  22:31:29         PAGE  6


LOC    OBJECT CODE    LINE  SOURCE TEXT
  VALUE

  00000FEF            00266 INDF0   equ     0xfef
  00000FEE            00267 POSTINC0        equ     0xfee
  00000FE6            00268 POSTINC1        equ     0xfe6
  00000FE5            00269 POSTDEC1        equ     0xfe5
  00000FE4            00270 PREINC1 equ     0xfe4
  00000FDB            00271 PLUSW2  equ     0xfdb
  00000FF3            00272 PRODL   equ     0xff3
  00000FF4            00273 PRODH   equ     0xff4
                      00274 
                      00275 
                      00276 ; Internal registers
                      00277 .registers      udata_ovr       0x0000
000000                00278 r0x00   res     1
000001                00279 r0x01   res     1
000002                00280 r0x02   res     1
000003                00281 r0x03   res     1
000004                00282 r0x04   res     1
000005                00283 r0x05   res     1
000006                00284 r0x06   res     1
000007                00285 r0x07   res     1
000008                00286 r0x08   res     1
000009                00287 r0x09   res     1
00000A                00288 r0x0a   res     1
00000B                00289 r0x0b   res     1
00000C                00290 r0x0c   res     1
00000D                00291 r0x0d   res     1
00000E                00292 r0x0e   res     1
00000F                00293 r0x0f   res     1
000010                00294 r0x10   res     1
000011                00295 r0x11   res     1
000012                00296 r0x12   res     1
000013                00297 r0x13   res     1
000014                00298 r0x14   res     1
                      00299 
                      00300 udata_RF24Mesh_cg_0     udata
000000                00301 _mesh   res     21
                      00302 
                      00303 udata_RF24Mesh_cg_1     udata
000000                00304 _RF24M_update_returnAddr_4_206  res     2
                      00305 
                      00306 udata_RF24Mesh_cg_2     udata
000000                00307 _RF24M_update_returnAddr_4_207  res     2
                      00308 
                      00309 udata_RF24Mesh_cg_3     udata
000000                00310 _RF24M_write_n_header_1_214     res     8
                      00311 
                      00312 udata_RF24Mesh_cg_4     udata
000000                00313 _RF24M_checkConnection_header_2_228     res     8
                      00314 
                      00315 udata_RF24Mesh_cg_5     udata
000000                00316 _RF24M_getAddress_address_1_233 res     2
                      00317 
                      00318 udata_RF24Mesh_cg_6     udata
gpasm-1.4.0 #1107 (May  9 2015) build/sdcc/pr   12-2-2016  22:31:29         PAGE  7


LOC    OBJECT CODE    LINE  SOURCE TEXT
  VALUE

000000                00319 _RF24M_getAddress_nodeID_1_232  res     1
                      00320 
                      00321 udata_RF24Mesh_cg_7     udata
000000                00322 _RF24M_getAddress_header_1_233  res     8
                      00323 
                      00324 udata_RF24Mesh_cg_8     udata
000000                00325 _RF24M_getNodeID_address_1_243  res     2
                      00326 
                      00327 udata_RF24Mesh_cg_9     udata
000000                00328 _RF24M_getNodeID_header_2_250   res     8
                      00329 
                      00330 udata_RF24Mesh_cg_10    udata
000000                00331 _RF24M_getNodeID_ID_3_252       res     2
                      00332 
                      00333 udata_RF24Mesh_cg_11    udata
000000                00334 _RF24M_releaseAddress_header_1_256      res     8
                      00335 
                      00336 udata_RF24Mesh_cg_12    udata
000000                00337 _RF24M_requestAddress_newAddress_1_265  res     2
                      00338 
                      00339 udata_RF24Mesh_cg_13    udata
000000                00340 _RF24M_requestAddress_header_1_265      res     8
                      00341 
                      00342 udata_RF24Mesh_cg_14    udata
000000                00343 _RF24M_requestAddress_contactNode_1_265 res     8
                      00344 
                      00345 udata_RF24Mesh_cg_15    udata
000000                00346 _RF24M_DHCP_newAddress_1_292    res     2
                      00347 
                      00348 udata_RF24Mesh_cg_16    udata
000000                00349 _RF24M_DHCP_header_1_292        res     8
                      00350 
                      00351 ;--------------------------------------------------------
                      00352 ; global & static initialisations
                      00353 ;--------------------------------------------------------
                      00354 ; I code from now on!
                      00355 ; ; Starting pCode block
                      00356 S_RF24Mesh_cg__RF24M_DHCP       code
000000                00357 _RF24M_DHCP:
                      00358 ;       .line   578; ../../RF24Mesh_cg.c        void RF24M_DHCP(void){
000000 CFDA FFE5      00359         MOVFF   FSR2H, POSTDEC1
000004 CFD9 FFE5      00360         MOVFF   FSR2L, POSTDEC1
000008 CFE2 FFDA      00361         MOVFF   FSR1H, FSR2H
00000C CFE1 FFD9      00362         MOVFF   FSR1L, FSR2L
000010 C??? F???      00363         MOVFF   r0x00, POSTDEC1
000014 C??? F???      00364         MOVFF   r0x01, POSTDEC1
000018 C??? F???      00365         MOVFF   r0x02, POSTDEC1
00001C C??? F???      00366         MOVFF   r0x03, POSTDEC1
000020 C??? F???      00367         MOVFF   r0x04, POSTDEC1
000024 C??? F???      00368         MOVFF   r0x05, POSTDEC1
000028 C??? F???      00369         MOVFF   r0x06, POSTDEC1
00002C C??? F???      00370         MOVFF   r0x07, POSTDEC1
000030 C??? F???      00371         MOVFF   r0x08, POSTDEC1
gpasm-1.4.0 #1107 (May  9 2015) build/sdcc/pr   12-2-2016  22:31:29         PAGE  8


LOC    OBJECT CODE    LINE  SOURCE TEXT
  VALUE

000034 C??? F???      00372         MOVFF   r0x09, POSTDEC1
000038 C??? F???      00373         MOVFF   r0x0a, POSTDEC1
00003C C??? F???      00374         MOVFF   r0x0b, POSTDEC1
000040 C??? F???      00375         MOVFF   r0x0c, POSTDEC1
000044 C??? F???      00376         MOVFF   r0x0d, POSTDEC1
000048 C??? F???      00377         MOVFF   r0x0e, POSTDEC1
00004C C??? F???      00378         MOVFF   r0x0f, POSTDEC1
000050 C??? F???      00379         MOVFF   r0x10, POSTDEC1
                      00380 ;       .line   581; ../../RF24Mesh_cg.c        uint16_t fwd_by = 0;
Message[1301]: Using default destination of 0 (Access Bank).
000054 6A??           00381         CLRF    r0x00
Message[1301]: Using default destination of 0 (Access Bank).
000056 6A??           00382         CLRF    r0x01
                      00383 ;       .line   582; ../../RF24Mesh_cg.c        uint8_t shiftVal = 0;
Message[1301]: Using default destination of 0 (Access Bank).
000058 6A??           00384         CLRF    r0x02
                      00385 ;       .line   583; ../../RF24Mesh_cg.c        uint8_t extraChild = 0;
Message[1301]: Using default destination of 0 (Access Bank).
00005A 6A??           00386         CLRF    r0x03
00005C ????           00387         BANKSEL (_mesh + 7)
                      00388 ;       .line   587; ../../RF24Mesh_cg.c        if(mesh.doDHCP){
00005E 51??           00389         MOVF    (_mesh + 7), W, B
000060 E0??           00390         BZ      _00635_DS_
000062 ????           00391         BANKSEL (_mesh + 7)
                      00392 ;       .line   588; ../../RF24Mesh_cg.c        mesh.doDHCP = 0;
000064 6B??           00393         CLRF    (_mesh + 7), B
000066 D???           00394         BRA     _00636_DS_
000068                00395 _00635_DS_:
                      00396 ;       .line   589; ../../RF24Mesh_cg.c        }else{ return; }
000068 D???           00397         BRA     _00672_DS_
00006A                00398 _00636_DS_:
                      00399 ;       .line   591; ../../RF24Mesh_cg.c        memcpy(&header,RF24N_getFrame_buffer,sizeof(RF24NetworkH
                            eader));        
00006A 0E??           00400         MOVLW   HIGH(_RF24M_DHCP_header_1_292)
Message[1301]: Using default destination of 0 (Access Bank).
00006C 6E??           00401         MOVWF   r0x05
00006E 0E??           00402         MOVLW   LOW(_RF24M_DHCP_header_1_292)
Message[1301]: Using default destination of 0 (Access Bank).
000070 6E??           00403         MOVWF   r0x04
000072 0E80           00404         MOVLW   0x80
Message[1301]: Using default destination of 0 (Access Bank).
000074 6E??           00405         MOVWF   r0x06
000076 0E??           00406         MOVLW   UPPER(_RF24N_getFrame_buffer)
Message[1301]: Using default destination of 0 (Access Bank).
000078 6E??           00407         MOVWF   r0x09
00007A 0E??           00408         MOVLW   HIGH(_RF24N_getFrame_buffer)
Message[1301]: Using default destination of 0 (Access Bank).
00007C 6E??           00409         MOVWF   r0x08
00007E 0E??           00410         MOVLW   LOW(_RF24N_getFrame_buffer)
Message[1301]: Using default destination of 0 (Access Bank).
000080 6E??           00411         MOVWF   r0x07
000082 0E00           00412         MOVLW   0x00
Message[1301]: Using default destination of 0 (Access Bank).
gpasm-1.4.0 #1107 (May  9 2015) build/sdcc/pr   12-2-2016  22:31:29         PAGE  9


LOC    OBJECT CODE    LINE  SOURCE TEXT
  VALUE

000084 6EE5           00413         MOVWF   POSTDEC1
000086 0E08           00414         MOVLW   0x08
Message[1301]: Using default destination of 0 (Access Bank).
000088 6EE5           00415         MOVWF   POSTDEC1
00008A 50??           00416         MOVF    r0x09, W
Message[1301]: Using default destination of 0 (Access Bank).
00008C 6EE5           00417         MOVWF   POSTDEC1
00008E 50??           00418         MOVF    r0x08, W
Message[1301]: Using default destination of 0 (Access Bank).
000090 6EE5           00419         MOVWF   POSTDEC1
000092 50??           00420         MOVF    r0x07, W
Message[1301]: Using default destination of 0 (Access Bank).
000094 6EE5           00421         MOVWF   POSTDEC1
000096 50??           00422         MOVF    r0x06, W
Message[1301]: Using default destination of 0 (Access Bank).
000098 6EE5           00423         MOVWF   POSTDEC1
00009A 50??           00424         MOVF    r0x05, W
Message[1301]: Using default destination of 0 (Access Bank).
00009C 6EE5           00425         MOVWF   POSTDEC1
00009E 50??           00426         MOVF    r0x04, W
Message[1301]: Using default destination of 0 (Access Bank).
0000A0 6EE5           00427         MOVWF   POSTDEC1
0000A2 EC?? F0??      00428         CALL    _memcpy
0000A6 0E08           00429         MOVLW   0x08
0000A8 26E1           00430         ADDWF   FSR1L, F
0000AA B0D8           00431         BTFSC   STATUS, 0
0000AC 2AE2           00432         INCF    FSR1H, F
                      00433 ;       .line   594; ../../RF24Mesh_cg.c        from_id = header.reserved;
0000AE C??? F???      00434         MOVFF   (_RF24M_DHCP_header_1_292 + 7), r0x04
                      00435 ;       .line   595; ../../RF24Mesh_cg.c        if(!from_id){
0000B2 50??           00436         MOVF    r0x04, W
0000B4 E1??           00437         BNZ     _00638_DS_
                      00438 ;       .line   599; ../../RF24Mesh_cg.c        return;
0000B6 D???           00439         BRA     _00672_DS_
0000B8                00440 _00638_DS_:
                      00441 ;       .line   604; ../../RF24Mesh_cg.c        if( header.from_node != MESH_DEFAULT_ADDRESS){
0000B8 C??? F???      00442         MOVFF   _RF24M_DHCP_header_1_292, r0x05
0000BC C??? F???      00443         MOVFF   (_RF24M_DHCP_header_1_292 + 1), r0x06
0000C0 50??           00444         MOVF    r0x05, W
0000C2 0A24           00445         XORLW   0x24
0000C4 E1??           00446         BNZ     _00729_DS_
0000C6 50??           00447         MOVF    r0x06, W
0000C8 0A09           00448         XORLW   0x09
0000CA E0??           00449         BZ      _00643_DS_
0000CC                00450 _00729_DS_:
                      00451 ;       .line   605; ../../RF24Mesh_cg.c        uint16_t m = header.from_node;
0000CC C??? F???      00452         MOVFF   r0x05, r0x07
0000D0 C??? F???      00453         MOVFF   r0x06, r0x08
                      00454 ;       .line   607; ../../RF24Mesh_cg.c        fwd_by = header.from_node;
0000D4 C??? F???      00455         MOVFF   r0x05, r0x00
0000D8 C??? F???      00456         MOVFF   r0x06, r0x01
                      00457 ;       .line   609; ../../RF24Mesh_cg.c        while(m){  //Octal addresses convert nicely to binary in
                             threes. Address 03 = B011  Address 033 = B011011
gpasm-1.4.0 #1107 (May  9 2015) build/sdcc/pr   12-2-2016  22:31:29         PAGE 10


LOC    OBJECT CODE    LINE  SOURCE TEXT
  VALUE

Message[1301]: Using default destination of 0 (Access Bank).
0000DC 6A??           00458         CLRF    r0x05
0000DE                00459 _00639_DS_:
0000DE 50??           00460         MOVF    r0x07, W
0000E0 10??           00461         IORWF   r0x08, W
0000E2 E0??           00462         BZ      _00641_DS_
                      00463 ;       .line   610; ../../RF24Mesh_cg.c        m >>= 3; //Find out how many digits are in the octal add
                            ress
0000E4 90D8           00464         BCF     STATUS, 0
0000E6 32??           00465         RRCF    r0x08, F
0000E8 32??           00466         RRCF    r0x07, F
0000EA 90D8           00467         BCF     STATUS, 0
0000EC 32??           00468         RRCF    r0x08, F
0000EE 32??           00469         RRCF    r0x07, F
0000F0 90D8           00470         BCF     STATUS, 0
0000F2 32??           00471         RRCF    r0x08, F
0000F4 32??           00472         RRCF    r0x07, F
                      00473 ;       .line   611; ../../RF24Mesh_cg.c        count++; 
0000F6 2A??           00474         INCF    r0x05, F
0000F8 D???           00475         BRA     _00639_DS_
                      00476 ; ;multiply lit val:0x03 by variable r0x05 and store in r0x02
0000FA                00477 _00641_DS_:
                      00478 ;       .line   613; ../../RF24Mesh_cg.c        shiftVal = count*3; //Now we know how many bits to shift
                             when adding a child node 1-5 (B001 to B101) to any address         
0000FA 50??           00479         MOVF    r0x05, W
0000FC 0D03           00480         MULLW   0x03
0000FE CFF3 F000      00481         MOVFF   PRODL, r0x02
000102 D???           00482         BRA     _00644_DS_
000104                00483 _00643_DS_:
                      00484 ;       .line   616; ../../RF24Mesh_cg.c        extraChild = 1;
000104 0E01           00485         MOVLW   0x01
Message[1301]: Using default destination of 0 (Access Bank).
000106 6E??           00486         MOVWF   r0x03
000108                00487 _00644_DS_:
                      00488 ;       .line   623; ../../RF24Mesh_cg.c        for(i=MESH_MAX_CHILDREN+extraChild; i> 0; i--){ // For e
                            ach of the possible addresses (5 max)
000108 0E04           00489         MOVLW   0x04
00010A 26??           00490         ADDWF   r0x03, F
00010C                00491 _00671_DS_:
00010C 50??           00492         MOVF    r0x03, W
00010E B4D8           00493         BTFSC   STATUS, 2
000110 D???           00494         BRA     _00672_DS_
                      00495 ;       .line   625; ../../RF24Mesh_cg.c        uint8_t found = 0;
Message[1301]: Using default destination of 0 (Access Bank).
000112 6A??           00496         CLRF    r0x05
                      00497 ;       .line   626; ../../RF24Mesh_cg.c        newAddress = fwd_by | (i << shiftVal);
000114 C??? F???      00498         MOVFF   r0x03, r0x06
Message[1301]: Using default destination of 0 (Access Bank).
000118 6A??           00499         CLRF    r0x07
00011A C??? F???      00500         MOVFF   r0x06, r0x08
00011E C??? F???      00501         MOVFF   r0x07, r0x09
000122 50??           00502         MOVF    r0x02, W
000124 E0??           00503         BZ      _00730_DS_
gpasm-1.4.0 #1107 (May  9 2015) build/sdcc/pr   12-2-2016  22:31:29         PAGE 11


LOC    OBJECT CODE    LINE  SOURCE TEXT
  VALUE

Message[1301]: Using default destination of 0 (Access Bank).
000126 6CE8           00504         NEGF    WREG
000128 90D8           00505         BCF     STATUS, 0
00012A                00506 _00731_DS_:
00012A 36??           00507         RLCF    r0x08, F
00012C 36??           00508         RLCF    r0x09, F
00012E 0F01           00509         ADDLW   0x01
000130 E3??           00510         BNC     _00731_DS_
000132                00511 _00730_DS_:
000132 50??           00512         MOVF    r0x08, W
Message[1301]: Using default destination of 0 (Access Bank).
000134 6E??           00513         MOVWF   r0x06
000136 50??           00514         MOVF    r0x09, W
Message[1301]: Using default destination of 0 (Access Bank).
000138 6E??           00515         MOVWF   r0x07
00013A 50??           00516         MOVF    r0x00, W
00013C 12??           00517         IORWF   r0x06, F
00013E 50??           00518         MOVF    r0x01, W
000140 12??           00519         IORWF   r0x07, F
000142 C??? F???      00520         MOVFF   r0x06, _RF24M_DHCP_newAddress_1_292
000146 C??? F???      00521         MOVFF   r0x07, (_RF24M_DHCP_newAddress_1_292 + 1)
                      00522 ;       .line   627; ../../RF24Mesh_cg.c        if(!newAddress ){ /*printf("dumped 0%o\n",newAddress);*/
                             continue; }
00014A 50??           00523         MOVF    r0x06, W
00014C 10??           00524         IORWF   r0x07, W
00014E B4D8           00525         BTFSC   STATUS, 2
000150 D???           00526         BRA     _00665_DS_
                      00527 ;       .line   629; ../../RF24Mesh_cg.c        for(i=0; i < mesh.addrListTop; i++){
Message[1301]: Using default destination of 0 (Access Bank).
000152 6A??           00528         CLRF    r0x03
Message[1301]: Using default destination of 0 (Access Bank).
000154 6A??           00529         CLRF    r0x06
Message[1301]: Using default destination of 0 (Access Bank).
000156 6A??           00530         CLRF    r0x07
Message[1301]: Using default destination of 0 (Access Bank).
000158 6A??           00531         CLRF    r0x08
00015A                00532 _00668_DS_:
00015A ????           00533         BANKSEL (_mesh + 6)
00015C 51??           00534         MOVF    (_mesh + 6), W, B
00015E 5C??           00535         SUBWF   r0x06, W
000160 B0D8           00536         BTFSC   STATUS, 0
000162 D???           00537         BRA     _00651_DS_
                      00538 ;       .line   645; ../../RF24Mesh_cg.c        if(  (mesh.addrList[i].address == newAddress && mesh.add
                            rList[i].nodeID != from_id ) || newAddress == MESH_DEFAULT_ADDRESS){
000164 50??           00539         MOVF    r0x07, W
000166 ????           00540         BANKSEL (_mesh + 3)
000168 25??           00541         ADDWF   (_mesh + 3), W, B
Message[1301]: Using default destination of 0 (Access Bank).
00016A 6E??           00542         MOVWF   r0x09
00016C 50??           00543         MOVF    r0x08, W
00016E ????           00544         BANKSEL (_mesh + 4)
000170 21??           00545         ADDWFC  (_mesh + 4), W, B
Message[1301]: Using default destination of 0 (Access Bank).
gpasm-1.4.0 #1107 (May  9 2015) build/sdcc/pr   12-2-2016  22:31:29         PAGE 12


LOC    OBJECT CODE    LINE  SOURCE TEXT
  VALUE

000172 6E??           00546         MOVWF   r0x0a
Message[1301]: Using default destination of 0 (Access Bank).
000174 6AE8           00547         CLRF    WREG
000176 ????           00548         BANKSEL (_mesh + 5)
000178 21??           00549         ADDWFC  (_mesh + 5), W, B
Message[1301]: Using default destination of 0 (Access Bank).
00017A 6E??           00550         MOVWF   r0x0b
00017C 50??           00551         MOVF    r0x09, W
00017E 0F01           00552         ADDLW   0x01
Message[1301]: Using default destination of 0 (Access Bank).
000180 6E??           00553         MOVWF   r0x0c
000182 0E00           00554         MOVLW   0x00
000184 20??           00555         ADDWFC  r0x0a, W
Message[1301]: Using default destination of 0 (Access Bank).
000186 6E??           00556         MOVWF   r0x0d
000188 0E00           00557         MOVLW   0x00
00018A 20??           00558         ADDWFC  r0x0b, W
Message[1301]: Using default destination of 0 (Access Bank).
00018C 6E??           00559         MOVWF   r0x0e
00018E C??? F???      00560         MOVFF   r0x0c, FSR0L
000192 C??? F???      00561         MOVFF   r0x0d, PRODL
000196 50??           00562         MOVF    r0x0e, W
000198 EC?? F0??      00563         CALL    __gptrget2
Message[1301]: Using default destination of 0 (Access Bank).
00019C 6E??           00564         MOVWF   r0x0c
00019E CFF3 F000      00565         MOVFF   PRODL, r0x0d
0001A2 50??           00566         MOVF    r0x0c, W
0001A4 ????           00567         BANKSEL _RF24M_DHCP_newAddress_1_292
0001A6 19??           00568         XORWF   _RF24M_DHCP_newAddress_1_292, W, B
0001A8 E1??           00569         BNZ     _00734_DS_
0001AA 50??           00570         MOVF    r0x0d, W
0001AC ????           00571         BANKSEL (_RF24M_DHCP_newAddress_1_292 + 1)
0001AE 19??           00572         XORWF   (_RF24M_DHCP_newAddress_1_292 + 1), W, B
0001B0 E0??           00573         BZ      _00735_DS_
0001B2                00574 _00734_DS_:
0001B2 D???           00575         BRA     _00650_DS_
0001B4                00576 _00735_DS_:
0001B4 C??? F???      00577         MOVFF   r0x09, FSR0L
0001B8 C??? F???      00578         MOVFF   r0x0a, PRODL
0001BC 50??           00579         MOVF    r0x0b, W
0001BE EC?? F0??      00580         CALL    __gptrget1
Message[1301]: Using default destination of 0 (Access Bank).
0001C2 6E??           00581         MOVWF   r0x09
0001C4 50??           00582         MOVF    r0x09, W
0001C6 18??           00583         XORWF   r0x04, W
0001C8 E1??           00584         BNZ     _00647_DS_
0001CA                00585 _00650_DS_:
0001CA ????           00586         BANKSEL _RF24M_DHCP_newAddress_1_292
0001CC 51??           00587         MOVF    _RF24M_DHCP_newAddress_1_292, W, B
0001CE 0A24           00588         XORLW   0x24
0001D0 E1??           00589         BNZ     _00738_DS_
0001D2 ????           00590         BANKSEL (_RF24M_DHCP_newAddress_1_292 + 1)
0001D4 51??           00591         MOVF    (_RF24M_DHCP_newAddress_1_292 + 1), W, B
gpasm-1.4.0 #1107 (May  9 2015) build/sdcc/pr   12-2-2016  22:31:29         PAGE 13


LOC    OBJECT CODE    LINE  SOURCE TEXT
  VALUE

0001D6 0A09           00592         XORLW   0x09
0001D8 E0??           00593         BZ      _00647_DS_
0001DA                00594 _00738_DS_:
0001DA D???           00595         BRA     _00669_DS_
0001DC                00596 _00647_DS_:
                      00597 ;       .line   646; ../../RF24Mesh_cg.c        found = 1;
0001DC 0E01           00598         MOVLW   0x01
Message[1301]: Using default destination of 0 (Access Bank).
0001DE 6E??           00599         MOVWF   r0x05
                      00600 ;       .line   647; ../../RF24Mesh_cg.c        break;
0001E0 D???           00601         BRA     _00651_DS_
0001E2                00602 _00669_DS_:
                      00603 ;       .line   629; ../../RF24Mesh_cg.c        for(i=0; i < mesh.addrListTop; i++){
0001E2 0E03           00604         MOVLW   0x03
0001E4 26??           00605         ADDWF   r0x07, F
0001E6 B0D8           00606         BTFSC   STATUS, 0
0001E8 2A??           00607         INCF    r0x08, F
0001EA 2A??           00608         INCF    r0x06, F
0001EC C??? F???      00609         MOVFF   r0x06, r0x03
0001F0 D???           00610         BRA     _00668_DS_
0001F2                00611 _00651_DS_:
                      00612 ;       .line   651; ../../RF24Mesh_cg.c        if(!found){
0001F2 50??           00613         MOVF    r0x05, W
0001F4 A4D8           00614         BTFSS   STATUS, 2
0001F6 D???           00615         BRA     _00665_DS_
                      00616 ;       .line   653; ../../RF24Mesh_cg.c        header.type = NETWORK_ADDR_RESPONSE;
0001F8 0E80           00617         MOVLW   0x80
0001FA ????           00618         BANKSEL (_RF24M_DHCP_header_1_292 + 6)
0001FC 6F??           00619         MOVWF   (_RF24M_DHCP_header_1_292 + 6), B
                      00620 ;       .line   654; ../../RF24Mesh_cg.c        header.to_node = header.from_node;
0001FE C??? F???      00621         MOVFF   _RF24M_DHCP_header_1_292, r0x05
000202 C??? F???      00622         MOVFF   (_RF24M_DHCP_header_1_292 + 1), r0x06
000206 50??           00623         MOVF    r0x05, W
000208 ????           00624         BANKSEL (_RF24M_DHCP_header_1_292 + 2)
00020A 6F??           00625         MOVWF   (_RF24M_DHCP_header_1_292 + 2), B
00020C 50??           00626         MOVF    r0x06, W
00020E ????           00627         BANKSEL (_RF24M_DHCP_header_1_292 + 3)
000210 6F??           00628         MOVWF   (_RF24M_DHCP_header_1_292 + 3), B
000212 ????           00629         BANKSEL _RF24M_DHCP_header_1_292
                      00630 ;       .line   656; ../../RF24Mesh_cg.c        if(header.from_node != MESH_DEFAULT_ADDRESS){ //Is NOT n
                            ode 01 to 05
000214 51??           00631         MOVF    _RF24M_DHCP_header_1_292, W, B
000216 0A24           00632         XORLW   0x24
000218 E1??           00633         BNZ     _00741_DS_
00021A ????           00634         BANKSEL (_RF24M_DHCP_header_1_292 + 1)
00021C 51??           00635         MOVF    (_RF24M_DHCP_header_1_292 + 1), W, B
00021E 0A09           00636         XORLW   0x09
000220 E1??           00637         BNZ     _00741_DS_
000222 D???           00638         BRA     _00656_DS_
000224                00639 _00741_DS_:
                      00640 ;       .line   657; ../../RF24Mesh_cg.c        delay(2);
000224 0E00           00641         MOVLW   0x00
Message[1301]: Using default destination of 0 (Access Bank).
gpasm-1.4.0 #1107 (May  9 2015) build/sdcc/pr   12-2-2016  22:31:29         PAGE 14


LOC    OBJECT CODE    LINE  SOURCE TEXT
  VALUE

000226 6EE5           00642         MOVWF   POSTDEC1
000228 0E02           00643         MOVLW   0x02
Message[1301]: Using default destination of 0 (Access Bank).
00022A 6EE5           00644         MOVWF   POSTDEC1
00022C EC?? F0??      00645         CALL    _delay
000230 52E6           00646         MOVF    POSTINC1, F
000232 52E6           00647         MOVF    POSTINC1, F
                      00648 ;       .line   658; ../../RF24Mesh_cg.c        if( RF24N_write_m(&header,&newAddress,sizeof(newAddress)
                            ) ){
000234 0E??           00649         MOVLW   HIGH(_RF24M_DHCP_header_1_292)
Message[1301]: Using default destination of 0 (Access Bank).
000236 6E??           00650         MOVWF   r0x06
000238 0E??           00651         MOVLW   LOW(_RF24M_DHCP_header_1_292)
Message[1301]: Using default destination of 0 (Access Bank).
00023A 6E??           00652         MOVWF   r0x05
00023C 0E80           00653         MOVLW   0x80
Message[1301]: Using default destination of 0 (Access Bank).
00023E 6E??           00654         MOVWF   r0x07
000240 0E??           00655         MOVLW   HIGH(_RF24M_DHCP_newAddress_1_292)
Message[1301]: Using default destination of 0 (Access Bank).
000242 6E??           00656         MOVWF   r0x09
000244 0E??           00657         MOVLW   LOW(_RF24M_DHCP_newAddress_1_292)
Message[1301]: Using default destination of 0 (Access Bank).
000246 6E??           00658         MOVWF   r0x08
000248 0E80           00659         MOVLW   0x80
Message[1301]: Using default destination of 0 (Access Bank).
00024A 6E??           00660         MOVWF   r0x0a
00024C 0E00           00661         MOVLW   0x00
Message[1301]: Using default destination of 0 (Access Bank).
00024E 6EE5           00662         MOVWF   POSTDEC1
000250 0E02           00663         MOVLW   0x02
Message[1301]: Using default destination of 0 (Access Bank).
000252 6EE5           00664         MOVWF   POSTDEC1
000254 50??           00665         MOVF    r0x0a, W
Message[1301]: Using default destination of 0 (Access Bank).
000256 6EE5           00666         MOVWF   POSTDEC1
000258 50??           00667         MOVF    r0x09, W
Message[1301]: Using default destination of 0 (Access Bank).
00025A 6EE5           00668         MOVWF   POSTDEC1
00025C 50??           00669         MOVF    r0x08, W
Message[1301]: Using default destination of 0 (Access Bank).
00025E 6EE5           00670         MOVWF   POSTDEC1
000260 50??           00671         MOVF    r0x07, W
Message[1301]: Using default destination of 0 (Access Bank).
000262 6EE5           00672         MOVWF   POSTDEC1
000264 50??           00673         MOVF    r0x06, W
Message[1301]: Using default destination of 0 (Access Bank).
000266 6EE5           00674         MOVWF   POSTDEC1
000268 50??           00675         MOVF    r0x05, W
Message[1301]: Using default destination of 0 (Access Bank).
00026A 6EE5           00676         MOVWF   POSTDEC1
00026C EC?? F0??      00677         CALL    _RF24N_write_m
Message[1301]: Using default destination of 0 (Access Bank).
gpasm-1.4.0 #1107 (May  9 2015) build/sdcc/pr   12-2-2016  22:31:29         PAGE 15


LOC    OBJECT CODE    LINE  SOURCE TEXT
  VALUE

000270 6E??           00678         MOVWF   r0x05
000272 0E08           00679         MOVLW   0x08
000274 26E1           00680         ADDWF   FSR1L, F
000276 B0D8           00681         BTFSC   STATUS, 0
000278 2AE2           00682         INCF    FSR1H, F
00027A 50??           00683         MOVF    r0x05, W
00027C A4D8           00684         BTFSS   STATUS, 2
00027E D???           00685         BRA     _00657_DS_
                      00686 ;       .line   661; ../../RF24Mesh_cg.c        RF24N_write_m(&header,&newAddress,sizeof(newAddress));
000280 0E??           00687         MOVLW   HIGH(_RF24M_DHCP_header_1_292)
Message[1301]: Using default destination of 0 (Access Bank).
000282 6E??           00688         MOVWF   r0x06
000284 0E??           00689         MOVLW   LOW(_RF24M_DHCP_header_1_292)
Message[1301]: Using default destination of 0 (Access Bank).
000286 6E??           00690         MOVWF   r0x05
000288 0E80           00691         MOVLW   0x80
Message[1301]: Using default destination of 0 (Access Bank).
00028A 6E??           00692         MOVWF   r0x07
00028C 0E??           00693         MOVLW   HIGH(_RF24M_DHCP_newAddress_1_292)
Message[1301]: Using default destination of 0 (Access Bank).
00028E 6E??           00694         MOVWF   r0x09
000290 0E??           00695         MOVLW   LOW(_RF24M_DHCP_newAddress_1_292)
Message[1301]: Using default destination of 0 (Access Bank).
000292 6E??           00696         MOVWF   r0x08
000294 0E80           00697         MOVLW   0x80
Message[1301]: Using default destination of 0 (Access Bank).
000296 6E??           00698         MOVWF   r0x0a
000298 0E00           00699         MOVLW   0x00
Message[1301]: Using default destination of 0 (Access Bank).
00029A 6EE5           00700         MOVWF   POSTDEC1
00029C 0E02           00701         MOVLW   0x02
Message[1301]: Using default destination of 0 (Access Bank).
00029E 6EE5           00702         MOVWF   POSTDEC1
0002A0 50??           00703         MOVF    r0x0a, W
Message[1301]: Using default destination of 0 (Access Bank).
0002A2 6EE5           00704         MOVWF   POSTDEC1
0002A4 50??           00705         MOVF    r0x09, W
Message[1301]: Using default destination of 0 (Access Bank).
0002A6 6EE5           00706         MOVWF   POSTDEC1
0002A8 50??           00707         MOVF    r0x08, W
Message[1301]: Using default destination of 0 (Access Bank).
0002AA 6EE5           00708         MOVWF   POSTDEC1
0002AC 50??           00709         MOVF    r0x07, W
Message[1301]: Using default destination of 0 (Access Bank).
0002AE 6EE5           00710         MOVWF   POSTDEC1
0002B0 50??           00711         MOVF    r0x06, W
Message[1301]: Using default destination of 0 (Access Bank).
0002B2 6EE5           00712         MOVWF   POSTDEC1
0002B4 50??           00713         MOVF    r0x05, W
Message[1301]: Using default destination of 0 (Access Bank).
0002B6 6EE5           00714         MOVWF   POSTDEC1
0002B8 EC?? F0??      00715         CALL    _RF24N_write_m
0002BC 0E08           00716         MOVLW   0x08
gpasm-1.4.0 #1107 (May  9 2015) build/sdcc/pr   12-2-2016  22:31:29         PAGE 16


LOC    OBJECT CODE    LINE  SOURCE TEXT
  VALUE

0002BE 26E1           00717         ADDWF   FSR1L, F
0002C0 B0D8           00718         BTFSC   STATUS, 0
0002C2 2AE2           00719         INCF    FSR1H, F
0002C4 D???           00720         BRA     _00657_DS_
0002C6                00721 _00656_DS_:
                      00722 ;       .line   664; ../../RF24Mesh_cg.c        delay(2);
0002C6 0E00           00723         MOVLW   0x00
Message[1301]: Using default destination of 0 (Access Bank).
0002C8 6EE5           00724         MOVWF   POSTDEC1
0002CA 0E02           00725         MOVLW   0x02
Message[1301]: Using default destination of 0 (Access Bank).
0002CC 6EE5           00726         MOVWF   POSTDEC1
0002CE EC?? F0??      00727         CALL    _delay
0002D2 52E6           00728         MOVF    POSTINC1, F
0002D4 52E6           00729         MOVF    POSTINC1, F
                      00730 ;       .line   665; ../../RF24Mesh_cg.c        RF24N_write_(&header,&newAddress,sizeof(newAddress),head
                            er.to_node);
0002D6 0E??           00731         MOVLW   HIGH(_RF24M_DHCP_header_1_292)
Message[1301]: Using default destination of 0 (Access Bank).
0002D8 6E??           00732         MOVWF   r0x06
0002DA 0E??           00733         MOVLW   LOW(_RF24M_DHCP_header_1_292)
Message[1301]: Using default destination of 0 (Access Bank).
0002DC 6E??           00734         MOVWF   r0x05
0002DE 0E80           00735         MOVLW   0x80
Message[1301]: Using default destination of 0 (Access Bank).
0002E0 6E??           00736         MOVWF   r0x07
0002E2 0E??           00737         MOVLW   HIGH(_RF24M_DHCP_newAddress_1_292)
Message[1301]: Using default destination of 0 (Access Bank).
0002E4 6E??           00738         MOVWF   r0x09
0002E6 0E??           00739         MOVLW   LOW(_RF24M_DHCP_newAddress_1_292)
Message[1301]: Using default destination of 0 (Access Bank).
0002E8 6E??           00740         MOVWF   r0x08
0002EA 0E80           00741         MOVLW   0x80
Message[1301]: Using default destination of 0 (Access Bank).
0002EC 6E??           00742         MOVWF   r0x0a
0002EE ????           00743         BANKSEL (_RF24M_DHCP_header_1_292 + 3)
0002F0 51??           00744         MOVF    (_RF24M_DHCP_header_1_292 + 3), W, B
Message[1301]: Using default destination of 0 (Access Bank).
0002F2 6EE5           00745         MOVWF   POSTDEC1
0002F4 ????           00746         BANKSEL (_RF24M_DHCP_header_1_292 + 2)
0002F6 51??           00747         MOVF    (_RF24M_DHCP_header_1_292 + 2), W, B
Message[1301]: Using default destination of 0 (Access Bank).
0002F8 6EE5           00748         MOVWF   POSTDEC1
0002FA 0E00           00749         MOVLW   0x00
Message[1301]: Using default destination of 0 (Access Bank).
0002FC 6EE5           00750         MOVWF   POSTDEC1
0002FE 0E02           00751         MOVLW   0x02
Message[1301]: Using default destination of 0 (Access Bank).
000300 6EE5           00752         MOVWF   POSTDEC1
000302 50??           00753         MOVF    r0x0a, W
Message[1301]: Using default destination of 0 (Access Bank).
000304 6EE5           00754         MOVWF   POSTDEC1
000306 50??           00755         MOVF    r0x09, W
gpasm-1.4.0 #1107 (May  9 2015) build/sdcc/pr   12-2-2016  22:31:29         PAGE 17


LOC    OBJECT CODE    LINE  SOURCE TEXT
  VALUE

Message[1301]: Using default destination of 0 (Access Bank).
000308 6EE5           00756         MOVWF   POSTDEC1
00030A 50??           00757         MOVF    r0x08, W
Message[1301]: Using default destination of 0 (Access Bank).
00030C 6EE5           00758         MOVWF   POSTDEC1
00030E 50??           00759         MOVF    r0x07, W
Message[1301]: Using default destination of 0 (Access Bank).
000310 6EE5           00760         MOVWF   POSTDEC1
000312 50??           00761         MOVF    r0x06, W
Message[1301]: Using default destination of 0 (Access Bank).
000314 6EE5           00762         MOVWF   POSTDEC1
000316 50??           00763         MOVF    r0x05, W
Message[1301]: Using default destination of 0 (Access Bank).
000318 6EE5           00764         MOVWF   POSTDEC1
00031A EC?? F0??      00765         CALL    _RF24N_write_
00031E 0E0A           00766         MOVLW   0x0a
000320 26E1           00767         ADDWF   FSR1L, F
000322 B0D8           00768         BTFSC   STATUS, 0
000324 2AE2           00769         INCF    FSR1H, F
000326                00770 _00657_DS_:
                      00771 ;       .line   668; ../../RF24Mesh_cg.c        timer=millis();
000326 EC?? F0??      00772         CALL    _millis
Message[1301]: Using default destination of 0 (Access Bank).
00032A 6E??           00773         MOVWF   r0x05
00032C CFF3 F000      00774         MOVFF   PRODL, r0x06
000330 CFF4 F000      00775         MOVFF   PRODH, r0x07
000334 CFE9 F000      00776         MOVFF   FSR0L, r0x08
000338 ????           00777         BANKSEL _RF24M_DHCP_newAddress_1_292
                      00778 ;       .line   669; ../../RF24Mesh_cg.c        mesh.lastAddress = newAddress;
00033A 51??           00779         MOVF    _RF24M_DHCP_newAddress_1_292, W, B
00033C ????           00780         BANKSEL (_mesh + 19)
00033E 6F??           00781         MOVWF   (_mesh + 19), B
000340 ????           00782         BANKSEL (_RF24M_DHCP_newAddress_1_292 + 1)
000342 51??           00783         MOVF    (_RF24M_DHCP_newAddress_1_292 + 1), W, B
000344 ????           00784         BANKSEL (_mesh + 20)
000346 6F??           00785         MOVWF   (_mesh + 20), B
                      00786 ;       .line   670; ../../RF24Mesh_cg.c        mesh.lastID = from_id;
000348 C??? F???      00787         MOVFF   r0x04, r0x09
Message[1301]: Using default destination of 0 (Access Bank).
00034C 6A??           00788         CLRF    r0x0a
00034E 50??           00789         MOVF    r0x09, W
000350 ????           00790         BANKSEL (_mesh + 17)
000352 6F??           00791         MOVWF   (_mesh + 17), B
000354 50??           00792         MOVF    r0x0a, W
000356 ????           00793         BANKSEL (_mesh + 18)
000358 6F??           00794         MOVWF   (_mesh + 18), B
00035A                00795 _00660_DS_:
                      00796 ;       .line   671; ../../RF24Mesh_cg.c        while(RF24N_update() != MESH_ADDR_CONFIRM){
00035A EC?? F0??      00797         CALL    _RF24N_update
Message[1301]: Using default destination of 0 (Access Bank).
00035E 6E??           00798         MOVWF   r0x09
000360 50??           00799         MOVF    r0x09, W
000362 0A81           00800         XORLW   0x81
gpasm-1.4.0 #1107 (May  9 2015) build/sdcc/pr   12-2-2016  22:31:29         PAGE 18


LOC    OBJECT CODE    LINE  SOURCE TEXT
  VALUE

000364 E0??           00801         BZ      _00662_DS_
                      00802 ;       .line   672; ../../RF24Mesh_cg.c        if(millis()-timer > RF24N_getRouteTimeout()){
000366 EC?? F0??      00803         CALL    _millis
Message[1301]: Using default destination of 0 (Access Bank).
00036A 6E??           00804         MOVWF   r0x09
00036C CFF3 F000      00805         MOVFF   PRODL, r0x0a
000370 CFF4 F000      00806         MOVFF   PRODH, r0x0b
000374 CFE9 F000      00807         MOVFF   FSR0L, r0x0c
000378 50??           00808         MOVF    r0x05, W
00037A 5E??           00809         SUBWF   r0x09, F
00037C 50??           00810         MOVF    r0x06, W
00037E 5A??           00811         SUBWFB  r0x0a, F
000380 50??           00812         MOVF    r0x07, W
000382 5A??           00813         SUBWFB  r0x0b, F
000384 50??           00814         MOVF    r0x08, W
000386 5A??           00815         SUBWFB  r0x0c, F
000388 EC?? F0??      00816         CALL    _RF24N_getRouteTimeout
Message[1301]: Using default destination of 0 (Access Bank).
00038C 6E??           00817         MOVWF   r0x0d
00038E CFF3 F000      00818         MOVFF   PRODL, r0x0e
Message[1301]: Using default destination of 0 (Access Bank).
000392 6A??           00819         CLRF    r0x0f
Message[1301]: Using default destination of 0 (Access Bank).
000394 6A??           00820         CLRF    r0x10
000396 50??           00821         MOVF    r0x0c, W
000398 5C??           00822         SUBWF   r0x10, W
00039A E1??           00823         BNZ     _00744_DS_
00039C 50??           00824         MOVF    r0x0b, W
00039E 5C??           00825         SUBWF   r0x0f, W
0003A0 E1??           00826         BNZ     _00744_DS_
0003A2 50??           00827         MOVF    r0x0a, W
0003A4 5C??           00828         SUBWF   r0x0e, W
0003A6 E1??           00829         BNZ     _00744_DS_
0003A8 50??           00830         MOVF    r0x09, W
0003AA 5C??           00831         SUBWF   r0x0d, W
0003AC                00832 _00744_DS_:
0003AC E2??           00833         BC      _00660_DS_
                      00834 ;       .line   673; ../../RF24Mesh_cg.c        return;
0003AE D???           00835         BRA     _00672_DS_
0003B0                00836 _00662_DS_:
0003B0 ????           00837         BANKSEL (_RF24M_DHCP_newAddress_1_292 + 1)
                      00838 ;       .line   677; ../../RF24Mesh_cg.c        RF24M_setAddress(from_id,newAddress);
0003B2 51??           00839         MOVF    (_RF24M_DHCP_newAddress_1_292 + 1), W, B
Message[1301]: Using default destination of 0 (Access Bank).
0003B4 6EE5           00840         MOVWF   POSTDEC1
0003B6 ????           00841         BANKSEL _RF24M_DHCP_newAddress_1_292
0003B8 51??           00842         MOVF    _RF24M_DHCP_newAddress_1_292, W, B
Message[1301]: Using default destination of 0 (Access Bank).
0003BA 6EE5           00843         MOVWF   POSTDEC1
0003BC 50??           00844         MOVF    r0x04, W
Message[1301]: Using default destination of 0 (Access Bank).
0003BE 6EE5           00845         MOVWF   POSTDEC1
0003C0 EC?? F0??      00846         CALL    _RF24M_setAddress
gpasm-1.4.0 #1107 (May  9 2015) build/sdcc/pr   12-2-2016  22:31:29         PAGE 19


LOC    OBJECT CODE    LINE  SOURCE TEXT
  VALUE

0003C4 0E03           00847         MOVLW   0x03
0003C6 26E1           00848         ADDWF   FSR1L, F
0003C8 B0D8           00849         BTFSC   STATUS, 0
0003CA 2AE2           00850         INCF    FSR1H, F
                      00851 ;       .line   681; ../../RF24Mesh_cg.c        break;
0003CC D???           00852         BRA     _00672_DS_
0003CE                00853 _00665_DS_:
                      00854 ;       .line   623; ../../RF24Mesh_cg.c        for(i=MESH_MAX_CHILDREN+extraChild; i> 0; i--){ // For e
                            ach of the possible addresses (5 max)
0003CE 06??           00855         DECF    r0x03, F
0003D0 D???           00856         BRA     _00671_DS_
0003D2                00857 _00672_DS_:
0003D2 CFE4 F000      00858         MOVFF   PREINC1, r0x10
0003D6 CFE4 F000      00859         MOVFF   PREINC1, r0x0f
0003DA CFE4 F000      00860         MOVFF   PREINC1, r0x0e
0003DE CFE4 F000      00861         MOVFF   PREINC1, r0x0d
0003E2 CFE4 F000      00862         MOVFF   PREINC1, r0x0c
0003E6 CFE4 F000      00863         MOVFF   PREINC1, r0x0b
0003EA CFE4 F000      00864         MOVFF   PREINC1, r0x0a
0003EE CFE4 F000      00865         MOVFF   PREINC1, r0x09
0003F2 CFE4 F000      00866         MOVFF   PREINC1, r0x08
0003F6 CFE4 F000      00867         MOVFF   PREINC1, r0x07
0003FA CFE4 F000      00868         MOVFF   PREINC1, r0x06
0003FE CFE4 F000      00869         MOVFF   PREINC1, r0x05
000402 CFE4 F000      00870         MOVFF   PREINC1, r0x04
000406 CFE4 F000      00871         MOVFF   PREINC1, r0x03
00040A CFE4 F000      00872         MOVFF   PREINC1, r0x02
00040E CFE4 F000      00873         MOVFF   PREINC1, r0x01
000412 CFE4 F000      00874         MOVFF   PREINC1, r0x00
000416 CFE4 FFD9      00875         MOVFF   PREINC1, FSR2L
00041A CFE4 FFDA      00876         MOVFF   PREINC1, FSR2H
00041E 0012           00877         RETURN  
                      00878 
                      00879 ; ; Starting pCode block
                      00880 S_RF24Mesh_cg__RF24M_saveDHCP   code
000000                00881 _RF24M_saveDHCP:
                      00882 ;       .line   544; ../../RF24Mesh_cg.c        void RF24M_saveDHCP(void){
000000 CFDA FFE5      00883         MOVFF   FSR2H, POSTDEC1
000004 CFD9 FFE5      00884         MOVFF   FSR2L, POSTDEC1
000008 CFE2 FFDA      00885         MOVFF   FSR1H, FSR2H
00000C CFE1 FFD9      00886         MOVFF   FSR1L, FSR2L
                      00887 ;       .line   572; ../../RF24Mesh_cg.c        }
000010 CFE4 FFD9      00888         MOVFF   PREINC1, FSR2L
000014 CFE4 FFDA      00889         MOVFF   PREINC1, FSR2H
000018 0012           00890         RETURN  
                      00891 
                      00892 ; ; Starting pCode block
                      00893 S_RF24Mesh_cg__RF24M_loadDHCP   code
000000                00894 _RF24M_loadDHCP:
                      00895 ;       .line   517; ../../RF24Mesh_cg.c        void RF24M_loadDHCP(void){
000000 CFDA FFE5      00896         MOVFF   FSR2H, POSTDEC1
000004 CFD9 FFE5      00897         MOVFF   FSR2L, POSTDEC1
000008 CFE2 FFDA      00898         MOVFF   FSR1H, FSR2H
gpasm-1.4.0 #1107 (May  9 2015) build/sdcc/pr   12-2-2016  22:31:29         PAGE 20


LOC    OBJECT CODE    LINE  SOURCE TEXT
  VALUE

00000C CFE1 FFD9      00899         MOVFF   FSR1L, FSR2L
                      00900 ;       .line   540; ../../RF24Mesh_cg.c        }
000010 CFE4 FFD9      00901         MOVFF   PREINC1, FSR2L
000014 CFE4 FFDA      00902         MOVFF   PREINC1, FSR2H
000018 0012           00903         RETURN  
                      00904 
                      00905 ; ; Starting pCode block
                      00906 S_RF24Mesh_cg__RF24M_setAddress code
000000                00907 _RF24M_setAddress:
                      00908 ;       .line   488; ../../RF24Mesh_cg.c        void RF24M_setAddress( uint8_t nodeID, uint16_t address)
                            {
000000 CFDA FFE5      00909         MOVFF   FSR2H, POSTDEC1
000004 CFD9 FFE5      00910         MOVFF   FSR2L, POSTDEC1
000008 CFE2 FFDA      00911         MOVFF   FSR1H, FSR2H
00000C CFE1 FFD9      00912         MOVFF   FSR1L, FSR2L
000010 C??? F???      00913         MOVFF   r0x00, POSTDEC1
000014 C??? F???      00914         MOVFF   r0x01, POSTDEC1
000018 C??? F???      00915         MOVFF   r0x02, POSTDEC1
00001C C??? F???      00916         MOVFF   r0x03, POSTDEC1
000020 C??? F???      00917         MOVFF   r0x04, POSTDEC1
000024 C??? F???      00918         MOVFF   r0x05, POSTDEC1
000028 C??? F???      00919         MOVFF   r0x06, POSTDEC1
00002C C??? F???      00920         MOVFF   r0x07, POSTDEC1
000030 C??? F???      00921         MOVFF   r0x08, POSTDEC1
000034 C??? F???      00922         MOVFF   r0x09, POSTDEC1
000038 C??? F???      00923         MOVFF   r0x0a, POSTDEC1
00003C C??? F???      00924         MOVFF   r0x0b, POSTDEC1
000040 C??? F???      00925         MOVFF   r0x0c, POSTDEC1
000044 C??? F???      00926         MOVFF   r0x0d, POSTDEC1
000048 C??? F???      00927         MOVFF   r0x0e, POSTDEC1
00004C 0E03           00928         MOVLW   0x03
00004E CFDB F000      00929         MOVFF   PLUSW2, r0x00
000052 0E04           00930         MOVLW   0x04
000054 CFDB F000      00931         MOVFF   PLUSW2, r0x01
000058 0E05           00932         MOVLW   0x05
00005A CFDB F000      00933         MOVFF   PLUSW2, r0x02
                      00934 ;       .line   490; ../../RF24Mesh_cg.c        uint8_t position = mesh.addrListTop;
00005E C??? F???      00935         MOVFF   (_mesh + 6), r0x03
000062 C??? F???      00936         MOVFF   r0x03, r0x04
                      00937 ;       .line   492; ../../RF24Mesh_cg.c        for(i=0; i<mesh.addrListTop; i++){
Message[1301]: Using default destination of 0 (Access Bank).
000066 6A??           00938         CLRF    r0x05
000068 C??? F???      00939         MOVFF   (_mesh + 3), r0x06
00006C C??? F???      00940         MOVFF   (_mesh + 4), r0x07
000070 C??? F???      00941         MOVFF   (_mesh + 5), r0x08
Message[1301]: Using default destination of 0 (Access Bank).
000074 6A??           00942         CLRF    r0x09
Message[1301]: Using default destination of 0 (Access Bank).
000076 6A??           00943         CLRF    r0x0a
Message[1301]: Using default destination of 0 (Access Bank).
000078 6A??           00944         CLRF    r0x0b
00007A                00945 _00598_DS_:
00007A 50??           00946         MOVF    r0x03, W
gpasm-1.4.0 #1107 (May  9 2015) build/sdcc/pr   12-2-2016  22:31:29         PAGE 21


LOC    OBJECT CODE    LINE  SOURCE TEXT
  VALUE

00007C 5C??           00947         SUBWF   r0x09, W
00007E E2??           00948         BC      _00594_DS_
                      00949 ;       .line   493; ../../RF24Mesh_cg.c        if( mesh.addrList[i].nodeID == nodeID){
000080 50??           00950         MOVF    r0x0a, W
000082 24??           00951         ADDWF   r0x06, W
Message[1301]: Using default destination of 0 (Access Bank).
000084 6E??           00952         MOVWF   r0x0c
000086 50??           00953         MOVF    r0x0b, W
000088 20??           00954         ADDWFC  r0x07, W
Message[1301]: Using default destination of 0 (Access Bank).
00008A 6E??           00955         MOVWF   r0x0d
Message[1301]: Using default destination of 0 (Access Bank).
00008C 6AE8           00956         CLRF    WREG
00008E 20??           00957         ADDWFC  r0x08, W
Message[1301]: Using default destination of 0 (Access Bank).
000090 6E??           00958         MOVWF   r0x0e
000092 C??? F???      00959         MOVFF   r0x0c, FSR0L
000096 C??? F???      00960         MOVFF   r0x0d, PRODL
00009A 50??           00961         MOVF    r0x0e, W
00009C EC?? F0??      00962         CALL    __gptrget1
Message[1301]: Using default destination of 0 (Access Bank).
0000A0 6E??           00963         MOVWF   r0x0c
0000A2 50??           00964         MOVF    r0x0c, W
0000A4 18??           00965         XORWF   r0x00, W
0000A6 E1??           00966         BNZ     _00599_DS_
                      00967 ;       .line   494; ../../RF24Mesh_cg.c        position = i;
0000A8 C??? F???      00968         MOVFF   r0x05, r0x04
                      00969 ;       .line   495; ../../RF24Mesh_cg.c        break;
0000AC D???           00970         BRA     _00594_DS_
0000AE                00971 _00599_DS_:
                      00972 ;       .line   492; ../../RF24Mesh_cg.c        for(i=0; i<mesh.addrListTop; i++){
0000AE 0E03           00973         MOVLW   0x03
0000B0 26??           00974         ADDWF   r0x0a, F
0000B2 B0D8           00975         BTFSC   STATUS, 0
0000B4 2A??           00976         INCF    r0x0b, F
0000B6 2A??           00977         INCF    r0x09, F
0000B8 C??? F???      00978         MOVFF   r0x09, r0x05
0000BC D???           00979         BRA     _00598_DS_
                      00980 ; ;multiply lit val:0x03 by variable r0x04 and store in r0x03
0000BE                00981 _00594_DS_:
                      00982 ;       .line   498; ../../RF24Mesh_cg.c        mesh.addrList[position].nodeID = nodeID;
0000BE 50??           00983         MOVF    r0x04, W
0000C0 0D03           00984         MULLW   0x03
0000C2 50F4           00985         MOVF    PRODH, W
Message[1301]: Using default destination of 0 (Access Bank).
0000C4 6E??           00986         MOVWF   r0x05
0000C6 CFF3 F000      00987         MOVFF   PRODL, r0x03
0000CA 50??           00988         MOVF    r0x03, W
0000CC 26??           00989         ADDWF   r0x06, F
0000CE 50??           00990         MOVF    r0x05, W
0000D0 22??           00991         ADDWFC  r0x07, F
Message[1301]: Using default destination of 0 (Access Bank).
0000D2 6AE8           00992         CLRF    WREG
gpasm-1.4.0 #1107 (May  9 2015) build/sdcc/pr   12-2-2016  22:31:29         PAGE 22


LOC    OBJECT CODE    LINE  SOURCE TEXT
  VALUE

0000D4 22??           00993         ADDWFC  r0x08, F
0000D6 C??? F???      00994         MOVFF   r0x00, POSTDEC1
0000DA C??? F???      00995         MOVFF   r0x06, FSR0L
0000DE C??? F???      00996         MOVFF   r0x07, PRODL
0000E2 50??           00997         MOVF    r0x08, W
0000E4 EC?? F0??      00998         CALL    __gptrput1
                      00999 ;       .line   499; ../../RF24Mesh_cg.c        mesh.addrList[position].address = address;
Message[1301]: Using default destination of 0 (Access Bank).
0000E8 6A??           01000         CLRF    r0x00
0000EA ????           01001         BANKSEL (_mesh + 3)
0000EC 51??           01002         MOVF    (_mesh + 3), W, B
0000EE 26??           01003         ADDWF   r0x03, F
0000F0 ????           01004         BANKSEL (_mesh + 4)
0000F2 51??           01005         MOVF    (_mesh + 4), W, B
0000F4 22??           01006         ADDWFC  r0x05, F
0000F6 ????           01007         BANKSEL (_mesh + 5)
0000F8 51??           01008         MOVF    (_mesh + 5), W, B
0000FA 22??           01009         ADDWFC  r0x00, F
0000FC 2A??           01010         INCF    r0x03, F
0000FE E3??           01011         BNC     _00617_DS_
000100 4A??           01012         INFSNZ  r0x05, F
000102 2A??           01013         INCF    r0x00, F
000104                01014 _00617_DS_:
000104 C??? F???      01015         MOVFF   r0x01, POSTDEC1
000108 C??? F???      01016         MOVFF   r0x02, PRODH
00010C C??? F???      01017         MOVFF   r0x03, FSR0L
000110 C??? F???      01018         MOVFF   r0x05, PRODL
000114 50??           01019         MOVF    r0x00, W
000116 EC?? F0??      01020         CALL    __gptrput2
                      01021 ;       .line   501; ../../RF24Mesh_cg.c        if(position == mesh.addrListTop){
00011A C??? F???      01022         MOVFF   (_mesh + 6), r0x00
00011E 50??           01023         MOVF    r0x04, W
000120 18??           01024         XORWF   r0x00, W
000122 E0??           01025         BZ      _00619_DS_
000124 D???           01026         BRA     _00600_DS_
000126                01027 _00619_DS_:
                      01028 ;       .line   502; ../../RF24Mesh_cg.c        ++mesh.addrListTop;  
000126 2A??           01029         INCF    r0x00, F
000128 50??           01030         MOVF    r0x00, W
00012A ????           01031         BANKSEL (_mesh + 6)
00012C 6F??           01032         MOVWF   (_mesh + 6), B
00012E ????           01033         BANKSEL (_mesh + 5)
                      01034 ;       .line   503; ../../RF24Mesh_cg.c        mesh.addrList = (addrListStruct*)realloc(mesh.addrList,(
                            mesh.addrListTop + 1) * sizeof(addrListStruct));
000130 51??           01035         MOVF    (_mesh + 5), W, B
Message[1301]: Using default destination of 0 (Access Bank).
000132 6E??           01036         MOVWF   r0x03
000134 ????           01037         BANKSEL (_mesh + 4)
000136 51??           01038         MOVF    (_mesh + 4), W, B
Message[1301]: Using default destination of 0 (Access Bank).
000138 6E??           01039         MOVWF   r0x02
00013A ????           01040         BANKSEL (_mesh + 3)
00013C 51??           01041         MOVF    (_mesh + 3), W, B
gpasm-1.4.0 #1107 (May  9 2015) build/sdcc/pr   12-2-2016  22:31:29         PAGE 23


LOC    OBJECT CODE    LINE  SOURCE TEXT
  VALUE

Message[1301]: Using default destination of 0 (Access Bank).
00013E 6E??           01042         MOVWF   r0x01
Message[1301]: Using default destination of 0 (Access Bank).
000140 6A??           01043         CLRF    r0x04
000142 4A??           01044         INFSNZ  r0x00, F
000144 2A??           01045         INCF    r0x04, F
000146 50??           01046         MOVF    r0x04, W
Message[1301]: Using default destination of 0 (Access Bank).
000148 6EE5           01047         MOVWF   POSTDEC1
00014A 50??           01048         MOVF    r0x00, W
Message[1301]: Using default destination of 0 (Access Bank).
00014C 6EE5           01049         MOVWF   POSTDEC1
00014E 0E00           01050         MOVLW   0x00
Message[1301]: Using default destination of 0 (Access Bank).
000150 6EE5           01051         MOVWF   POSTDEC1
000152 0E03           01052         MOVLW   0x03
Message[1301]: Using default destination of 0 (Access Bank).
000154 6EE5           01053         MOVWF   POSTDEC1
000156 EC?? F0??      01054         CALL    __mulint
Message[1301]: Using default destination of 0 (Access Bank).
00015A 6E??           01055         MOVWF   r0x00
00015C CFF3 F000      01056         MOVFF   PRODL, r0x04
000160 0E04           01057         MOVLW   0x04
000162 26E1           01058         ADDWF   FSR1L, F
000164 B0D8           01059         BTFSC   STATUS, 0
000166 2AE2           01060         INCF    FSR1H, F
000168 50??           01061         MOVF    r0x04, W
Message[1301]: Using default destination of 0 (Access Bank).
00016A 6EE5           01062         MOVWF   POSTDEC1
00016C 50??           01063         MOVF    r0x00, W
Message[1301]: Using default destination of 0 (Access Bank).
00016E 6EE5           01064         MOVWF   POSTDEC1
000170 50??           01065         MOVF    r0x03, W
Message[1301]: Using default destination of 0 (Access Bank).
000172 6EE5           01066         MOVWF   POSTDEC1
000174 50??           01067         MOVF    r0x02, W
Message[1301]: Using default destination of 0 (Access Bank).
000176 6EE5           01068         MOVWF   POSTDEC1
000178 50??           01069         MOVF    r0x01, W
Message[1301]: Using default destination of 0 (Access Bank).
00017A 6EE5           01070         MOVWF   POSTDEC1
00017C EC?? F0??      01071         CALL    _realloc
Message[1301]: Using default destination of 0 (Access Bank).
000180 6E??           01072         MOVWF   r0x00
000182 CFF3 F000      01073         MOVFF   PRODL, r0x01
000186 CFF4 F000      01074         MOVFF   PRODH, r0x02
00018A 0E05           01075         MOVLW   0x05
00018C 26E1           01076         ADDWF   FSR1L, F
00018E B0D8           01077         BTFSC   STATUS, 0
000190 2AE2           01078         INCF    FSR1H, F
000192 50??           01079         MOVF    r0x02, W
Message[1301]: Using default destination of 0 (Access Bank).
000194 6E??           01080         MOVWF   r0x02
gpasm-1.4.0 #1107 (May  9 2015) build/sdcc/pr   12-2-2016  22:31:29         PAGE 24


LOC    OBJECT CODE    LINE  SOURCE TEXT
  VALUE

000196 50??           01081         MOVF    r0x01, W
Message[1301]: Using default destination of 0 (Access Bank).
000198 6E??           01082         MOVWF   r0x01
00019A 50??           01083         MOVF    r0x00, W
Message[1301]: Using default destination of 0 (Access Bank).
00019C 6E??           01084         MOVWF   r0x00
00019E 50??           01085         MOVF    r0x00, W
0001A0 ????           01086         BANKSEL (_mesh + 3)
0001A2 6F??           01087         MOVWF   (_mesh + 3), B
0001A4 50??           01088         MOVF    r0x01, W
0001A6 ????           01089         BANKSEL (_mesh + 4)
0001A8 6F??           01090         MOVWF   (_mesh + 4), B
0001AA 50??           01091         MOVF    r0x02, W
0001AC ????           01092         BANKSEL (_mesh + 5)
0001AE 6F??           01093         MOVWF   (_mesh + 5), B
0001B0                01094 _00600_DS_:
0001B0 CFE4 F000      01095         MOVFF   PREINC1, r0x0e
0001B4 CFE4 F000      01096         MOVFF   PREINC1, r0x0d
0001B8 CFE4 F000      01097         MOVFF   PREINC1, r0x0c
0001BC CFE4 F000      01098         MOVFF   PREINC1, r0x0b
0001C0 CFE4 F000      01099         MOVFF   PREINC1, r0x0a
0001C4 CFE4 F000      01100         MOVFF   PREINC1, r0x09
0001C8 CFE4 F000      01101         MOVFF   PREINC1, r0x08
0001CC CFE4 F000      01102         MOVFF   PREINC1, r0x07
0001D0 CFE4 F000      01103         MOVFF   PREINC1, r0x06
0001D4 CFE4 F000      01104         MOVFF   PREINC1, r0x05
0001D8 CFE4 F000      01105         MOVFF   PREINC1, r0x04
0001DC CFE4 F000      01106         MOVFF   PREINC1, r0x03
0001E0 CFE4 F000      01107         MOVFF   PREINC1, r0x02
0001E4 CFE4 F000      01108         MOVFF   PREINC1, r0x01
0001E8 CFE4 F000      01109         MOVFF   PREINC1, r0x00
0001EC CFE4 FFD9      01110         MOVFF   PREINC1, FSR2L
0001F0 CFE4 FFDA      01111         MOVFF   PREINC1, FSR2H
0001F4 0012           01112         RETURN  
                      01113 
                      01114 ; ; Starting pCode block
                      01115 S_RF24Mesh_cg__RF24M_setStaticAddress   code
000000                01116 _RF24M_setStaticAddress:
                      01117 ;       .line   482; ../../RF24Mesh_cg.c        void RF24M_setStaticAddress( uint8_t nodeID, uint16_t ad
                            dress){
000000 CFDA FFE5      01118         MOVFF   FSR2H, POSTDEC1
000004 CFD9 FFE5      01119         MOVFF   FSR2L, POSTDEC1
000008 CFE2 FFDA      01120         MOVFF   FSR1H, FSR2H
00000C CFE1 FFD9      01121         MOVFF   FSR1L, FSR2L
000010 C??? F???      01122         MOVFF   r0x00, POSTDEC1
000014 C??? F???      01123         MOVFF   r0x01, POSTDEC1
000018 C??? F???      01124         MOVFF   r0x02, POSTDEC1
00001C 0E03           01125         MOVLW   0x03
00001E CFDB F000      01126         MOVFF   PLUSW2, r0x00
000022 0E04           01127         MOVLW   0x04
000024 CFDB F000      01128         MOVFF   PLUSW2, r0x01
000028 0E05           01129         MOVLW   0x05
00002A CFDB F000      01130         MOVFF   PLUSW2, r0x02
gpasm-1.4.0 #1107 (May  9 2015) build/sdcc/pr   12-2-2016  22:31:29         PAGE 25


LOC    OBJECT CODE    LINE  SOURCE TEXT
  VALUE

                      01131 ;       .line   483; ../../RF24Mesh_cg.c        RF24M_setAddress(nodeID,address);
00002E 50??           01132         MOVF    r0x02, W
Message[1301]: Using default destination of 0 (Access Bank).
000030 6EE5           01133         MOVWF   POSTDEC1
000032 50??           01134         MOVF    r0x01, W
Message[1301]: Using default destination of 0 (Access Bank).
000034 6EE5           01135         MOVWF   POSTDEC1
000036 50??           01136         MOVF    r0x00, W
Message[1301]: Using default destination of 0 (Access Bank).
000038 6EE5           01137         MOVWF   POSTDEC1
00003A EC?? F0??      01138         CALL    _RF24M_setAddress
00003E 0E03           01139         MOVLW   0x03
000040 26E1           01140         ADDWF   FSR1L, F
000042 B0D8           01141         BTFSC   STATUS, 0
000044 2AE2           01142         INCF    FSR1H, F
000046 CFE4 F000      01143         MOVFF   PREINC1, r0x02
00004A CFE4 F000      01144         MOVFF   PREINC1, r0x01
00004E CFE4 F000      01145         MOVFF   PREINC1, r0x00
000052 CFE4 FFD9      01146         MOVFF   PREINC1, FSR2L
000056 CFE4 FFDA      01147         MOVFF   PREINC1, FSR2H
00005A 0012           01148         RETURN  
                      01149 
                      01150 ; ; Starting pCode block
                      01151 S_RF24Mesh_cg__RF24M_setNodeID  code
000000                01152 _RF24M_setNodeID:
                      01153 ;       .line   476; ../../RF24Mesh_cg.c        void RF24M_setNodeID( uint8_t nodeID){
000000 CFDA FFE5      01154         MOVFF   FSR2H, POSTDEC1
000004 CFD9 FFE5      01155         MOVFF   FSR2L, POSTDEC1
000008 CFE2 FFDA      01156         MOVFF   FSR1H, FSR2H
00000C CFE1 FFD9      01157         MOVFF   FSR1L, FSR2L
000010 C??? F???      01158         MOVFF   r0x00, POSTDEC1
000014 0E03           01159         MOVLW   0x03
000016 CFDB F000      01160         MOVFF   PLUSW2, r0x00
                      01161 ;       .line   477; ../../RF24Mesh_cg.c        mesh._nodeID = nodeID;
00001A 50??           01162         MOVF    r0x00, W
00001C ????           01163         BANKSEL _mesh
00001E 6F??           01164         MOVWF   _mesh, B
000020 CFE4 F000      01165         MOVFF   PREINC1, r0x00
000024 CFE4 FFD9      01166         MOVFF   PREINC1, FSR2L
000028 CFE4 FFDA      01167         MOVFF   PREINC1, FSR2H
00002C 0012           01168         RETURN  
                      01169 
                      01170 ; ; Starting pCode block
                      01171 S_RF24Mesh_cg__RF24M_requestAddress     code
000000                01172 _RF24M_requestAddress:
                      01173 ;       .line   304; ../../RF24Mesh_cg.c        uint8_t RF24M_requestAddress(uint8_t level){    
000000 CFDA FFE5      01174         MOVFF   FSR2H, POSTDEC1
000004 CFD9 FFE5      01175         MOVFF   FSR2L, POSTDEC1
000008 CFE2 FFDA      01176         MOVFF   FSR1H, FSR2H
00000C CFE1 FFD9      01177         MOVFF   FSR1L, FSR2L
000010 C??? F???      01178         MOVFF   r0x00, POSTDEC1
000014 C??? F???      01179         MOVFF   r0x01, POSTDEC1
000018 C??? F???      01180         MOVFF   r0x02, POSTDEC1
gpasm-1.4.0 #1107 (May  9 2015) build/sdcc/pr   12-2-2016  22:31:29         PAGE 26


LOC    OBJECT CODE    LINE  SOURCE TEXT
  VALUE

00001C C??? F???      01181         MOVFF   r0x03, POSTDEC1
000020 C??? F???      01182         MOVFF   r0x04, POSTDEC1
000024 C??? F???      01183         MOVFF   r0x05, POSTDEC1
000028 C??? F???      01184         MOVFF   r0x06, POSTDEC1
00002C C??? F???      01185         MOVFF   r0x07, POSTDEC1
000030 C??? F???      01186         MOVFF   r0x08, POSTDEC1
000034 C??? F???      01187         MOVFF   r0x09, POSTDEC1
000038 C??? F???      01188         MOVFF   r0x0a, POSTDEC1
00003C C??? F???      01189         MOVFF   r0x0b, POSTDEC1
000040 C??? F???      01190         MOVFF   r0x0c, POSTDEC1
000044 C??? F???      01191         MOVFF   r0x0d, POSTDEC1
000048 0E03           01192         MOVLW   0x03
00004A CFDB F000      01193         MOVFF   PLUSW2, r0x00
00004E ????           01194         BANKSEL _RF24M_requestAddress_newAddress_1_265
                      01195 ;       .line   313; ../../RF24Mesh_cg.c        uint16_t newAddress=0; 
000050 6B??           01196         CLRF    _RF24M_requestAddress_newAddress_1_265, B
000052 ????           01197         BANKSEL (_RF24M_requestAddress_newAddress_1_265 + 1)
000054 6B??           01198         CLRF    (_RF24M_requestAddress_newAddress_1_265 + 1), B
                      01199 ;       .line   315; ../../RF24Mesh_cg.c        uint8_t type=0;
Message[1301]: Using default destination of 0 (Access Bank).
000056 6A??           01200         CLRF    r0x01
                      01201 ;       .line   318; ../../RF24Mesh_cg.c        RF24NH_init(&header, 0100, NETWORK_POLL );
000058 0E??           01202         MOVLW   HIGH(_RF24M_requestAddress_header_1_265)
Message[1301]: Using default destination of 0 (Access Bank).
00005A 6E??           01203         MOVWF   r0x03
00005C 0E??           01204         MOVLW   LOW(_RF24M_requestAddress_header_1_265)
Message[1301]: Using default destination of 0 (Access Bank).
00005E 6E??           01205         MOVWF   r0x02
000060 0E80           01206         MOVLW   0x80
Message[1301]: Using default destination of 0 (Access Bank).
000062 6E??           01207         MOVWF   r0x04
000064 0EC2           01208         MOVLW   0xc2
Message[1301]: Using default destination of 0 (Access Bank).
000066 6EE5           01209         MOVWF   POSTDEC1
000068 0E00           01210         MOVLW   0x00
Message[1301]: Using default destination of 0 (Access Bank).
00006A 6EE5           01211         MOVWF   POSTDEC1
00006C 0E40           01212         MOVLW   0x40
Message[1301]: Using default destination of 0 (Access Bank).
00006E 6EE5           01213         MOVWF   POSTDEC1
000070 50??           01214         MOVF    r0x04, W
Message[1301]: Using default destination of 0 (Access Bank).
000072 6EE5           01215         MOVWF   POSTDEC1
000074 50??           01216         MOVF    r0x03, W
Message[1301]: Using default destination of 0 (Access Bank).
000076 6EE5           01217         MOVWF   POSTDEC1
000078 50??           01218         MOVF    r0x02, W
Message[1301]: Using default destination of 0 (Access Bank).
00007A 6EE5           01219         MOVWF   POSTDEC1
00007C EC?? F0??      01220         CALL    _RF24NH_init
000080 0E06           01221         MOVLW   0x06
000082 26E1           01222         ADDWF   FSR1L, F
000084 B0D8           01223         BTFSC   STATUS, 0
gpasm-1.4.0 #1107 (May  9 2015) build/sdcc/pr   12-2-2016  22:31:29         PAGE 27


LOC    OBJECT CODE    LINE  SOURCE TEXT
  VALUE

000086 2AE2           01224         INCF    FSR1H, F
                      01225 ;       .line   323; ../../RF24Mesh_cg.c        RF24N_multicast(&header,0,0,level);
000088 0E??           01226         MOVLW   HIGH(_RF24M_requestAddress_header_1_265)
Message[1301]: Using default destination of 0 (Access Bank).
00008A 6E??           01227         MOVWF   r0x03
00008C 0E??           01228         MOVLW   LOW(_RF24M_requestAddress_header_1_265)
Message[1301]: Using default destination of 0 (Access Bank).
00008E 6E??           01229         MOVWF   r0x02
000090 0E80           01230         MOVLW   0x80
Message[1301]: Using default destination of 0 (Access Bank).
000092 6E??           01231         MOVWF   r0x04
000094 50??           01232         MOVF    r0x00, W
Message[1301]: Using default destination of 0 (Access Bank).
000096 6EE5           01233         MOVWF   POSTDEC1
000098 0E00           01234         MOVLW   0x00
Message[1301]: Using default destination of 0 (Access Bank).
00009A 6EE5           01235         MOVWF   POSTDEC1
00009C 0E00           01236         MOVLW   0x00
Message[1301]: Using default destination of 0 (Access Bank).
00009E 6EE5           01237         MOVWF   POSTDEC1
0000A0 0E00           01238         MOVLW   0x00
Message[1301]: Using default destination of 0 (Access Bank).
0000A2 6EE5           01239         MOVWF   POSTDEC1
0000A4 0E00           01240         MOVLW   0x00
Message[1301]: Using default destination of 0 (Access Bank).
0000A6 6EE5           01241         MOVWF   POSTDEC1
0000A8 0E00           01242         MOVLW   0x00
Message[1301]: Using default destination of 0 (Access Bank).
0000AA 6EE5           01243         MOVWF   POSTDEC1
0000AC 50??           01244         MOVF    r0x04, W
Message[1301]: Using default destination of 0 (Access Bank).
0000AE 6EE5           01245         MOVWF   POSTDEC1
0000B0 50??           01246         MOVF    r0x03, W
Message[1301]: Using default destination of 0 (Access Bank).
0000B2 6EE5           01247         MOVWF   POSTDEC1
0000B4 50??           01248         MOVF    r0x02, W
Message[1301]: Using default destination of 0 (Access Bank).
0000B6 6EE5           01249         MOVWF   POSTDEC1
0000B8 EC?? F0??      01250         CALL    _RF24N_multicast
0000BC 0E09           01251         MOVLW   0x09
0000BE 26E1           01252         ADDWF   FSR1L, F
0000C0 B0D8           01253         BTFSC   STATUS, 0
0000C2 2AE2           01254         INCF    FSR1H, F
                      01255 ;       .line   325; ../../RF24Mesh_cg.c        timr = millis();
0000C4 EC?? F0??      01256         CALL    _millis
Message[1301]: Using default destination of 0 (Access Bank).
0000C8 6E??           01257         MOVWF   r0x00
0000CA CFF3 F000      01258         MOVFF   PRODL, r0x02
0000CE CFF4 F000      01259         MOVFF   PRODH, r0x03
0000D2 CFE9 F000      01260         MOVFF   FSR0L, r0x04
                      01261 ;       .line   327; ../../RF24Mesh_cg.c        while(1){
Message[1301]: Using default destination of 0 (Access Bank).
0000D6 6A??           01262         CLRF    r0x05
gpasm-1.4.0 #1107 (May  9 2015) build/sdcc/pr   12-2-2016  22:31:29         PAGE 28


LOC    OBJECT CODE    LINE  SOURCE TEXT
  VALUE

Message[1301]: Using default destination of 0 (Access Bank).
0000D8 6A??           01263         CLRF    r0x06
Message[1301]: Using default destination of 0 (Access Bank).
0000DA 6A??           01264         CLRF    r0x07
0000DC                01265 _00499_DS_:
                      01266 ;       .line   331; ../../RF24Mesh_cg.c        if(RF24N_update() == NETWORK_POLL){
0000DC EC?? F0??      01267         CALL    _RF24N_update
Message[1301]: Using default destination of 0 (Access Bank).
0000E0 6E??           01268         MOVWF   r0x08
0000E2 50??           01269         MOVF    r0x08, W
0000E4 0AC2           01270         XORLW   0xc2
0000E6 E1??           01271         BNZ     _00491_DS_
                      01272 ;       .line   332; ../../RF24Mesh_cg.c        memcpy(&contactNode[pollCount],& RF24N_getFrame_buffer()
                            [0],sizeof(uint16_t));
0000E8 0E??           01273         MOVLW   LOW(_RF24M_requestAddress_contactNode_1_265)
0000EA 24??           01274         ADDWF   r0x06, W
Message[1301]: Using default destination of 0 (Access Bank).
0000EC 6E??           01275         MOVWF   r0x08
0000EE 0E??           01276         MOVLW   HIGH(_RF24M_requestAddress_contactNode_1_265)
0000F0 20??           01277         ADDWFC  r0x07, W
Message[1301]: Using default destination of 0 (Access Bank).
0000F2 6E??           01278         MOVWF   r0x09
0000F4 50??           01279         MOVF    r0x09, W
Message[1301]: Using default destination of 0 (Access Bank).
0000F6 6E??           01280         MOVWF   r0x09
0000F8 50??           01281         MOVF    r0x08, W
Message[1301]: Using default destination of 0 (Access Bank).
0000FA 6E??           01282         MOVWF   r0x08
0000FC 0E80           01283         MOVLW   0x80
Message[1301]: Using default destination of 0 (Access Bank).
0000FE 6E??           01284         MOVWF   r0x0a
000100 EC?? F0??      01285         CALL    _RF24N_getFrame_buffer
Message[1301]: Using default destination of 0 (Access Bank).
000104 6E??           01286         MOVWF   r0x0b
000106 CFF3 F000      01287         MOVFF   PRODL, r0x0c
00010A CFF4 F000      01288         MOVFF   PRODH, r0x0d
00010E 50??           01289         MOVF    r0x0d, W
Message[1301]: Using default destination of 0 (Access Bank).
000110 6E??           01290         MOVWF   r0x0d
000112 50??           01291         MOVF    r0x0c, W
Message[1301]: Using default destination of 0 (Access Bank).
000114 6E??           01292         MOVWF   r0x0c
000116 50??           01293         MOVF    r0x0b, W
Message[1301]: Using default destination of 0 (Access Bank).
000118 6E??           01294         MOVWF   r0x0b
00011A 0E00           01295         MOVLW   0x00
Message[1301]: Using default destination of 0 (Access Bank).
00011C 6EE5           01296         MOVWF   POSTDEC1
00011E 0E02           01297         MOVLW   0x02
Message[1301]: Using default destination of 0 (Access Bank).
000120 6EE5           01298         MOVWF   POSTDEC1
000122 50??           01299         MOVF    r0x0d, W
Message[1301]: Using default destination of 0 (Access Bank).
gpasm-1.4.0 #1107 (May  9 2015) build/sdcc/pr   12-2-2016  22:31:29         PAGE 29


LOC    OBJECT CODE    LINE  SOURCE TEXT
  VALUE

000124 6EE5           01300         MOVWF   POSTDEC1
000126 50??           01301         MOVF    r0x0c, W
Message[1301]: Using default destination of 0 (Access Bank).
000128 6EE5           01302         MOVWF   POSTDEC1
00012A 50??           01303         MOVF    r0x0b, W
Message[1301]: Using default destination of 0 (Access Bank).
00012C 6EE5           01304         MOVWF   POSTDEC1
00012E 50??           01305         MOVF    r0x0a, W
Message[1301]: Using default destination of 0 (Access Bank).
000130 6EE5           01306         MOVWF   POSTDEC1
000132 50??           01307         MOVF    r0x09, W
Message[1301]: Using default destination of 0 (Access Bank).
000134 6EE5           01308         MOVWF   POSTDEC1
000136 50??           01309         MOVF    r0x08, W
Message[1301]: Using default destination of 0 (Access Bank).
000138 6EE5           01310         MOVWF   POSTDEC1
00013A EC?? F0??      01311         CALL    _memcpy
00013E 0E08           01312         MOVLW   0x08
000140 26E1           01313         ADDWF   FSR1L, F
000142 B0D8           01314         BTFSC   STATUS, 0
000144 2AE2           01315         INCF    FSR1H, F
                      01316 ;       .line   333; ../../RF24Mesh_cg.c        ++pollCount;
000146 0E02           01317         MOVLW   0x02
000148 26??           01318         ADDWF   r0x06, F
00014A B0D8           01319         BTFSC   STATUS, 0
00014C 2A??           01320         INCF    r0x07, F
00014E 2A??           01321         INCF    r0x05, F
000150                01322 _00491_DS_:
                      01323 ;       .line   353; ../../RF24Mesh_cg.c        if(millis() - timr > 55 || pollCount >=  MESH_MAXPOLLS )
                            {
000150 EC?? F0??      01324         CALL    _millis
Message[1301]: Using default destination of 0 (Access Bank).
000154 6E??           01325         MOVWF   r0x08
000156 CFF3 F000      01326         MOVFF   PRODL, r0x09
00015A CFF4 F000      01327         MOVFF   PRODH, r0x0a
00015E CFE9 F000      01328         MOVFF   FSR0L, r0x0b
000162 50??           01329         MOVF    r0x00, W
000164 5E??           01330         SUBWF   r0x08, F
000166 50??           01331         MOVF    r0x02, W
000168 5A??           01332         SUBWFB  r0x09, F
00016A 50??           01333         MOVF    r0x03, W
00016C 5A??           01334         SUBWFB  r0x0a, F
00016E 50??           01335         MOVF    r0x04, W
000170 5A??           01336         SUBWFB  r0x0b, F
000172 0E00           01337         MOVLW   0x00
000174 5C??           01338         SUBWF   r0x0b, W
000176 E1??           01339         BNZ     _00567_DS_
000178 0E00           01340         MOVLW   0x00
00017A 5C??           01341         SUBWF   r0x0a, W
00017C E1??           01342         BNZ     _00567_DS_
00017E 0E00           01343         MOVLW   0x00
000180 5C??           01344         SUBWF   r0x09, W
000182 E1??           01345         BNZ     _00567_DS_
gpasm-1.4.0 #1107 (May  9 2015) build/sdcc/pr   12-2-2016  22:31:29         PAGE 30


LOC    OBJECT CODE    LINE  SOURCE TEXT
  VALUE

000184 0E38           01346         MOVLW   0x38
000186 5C??           01347         SUBWF   r0x08, W
000188                01348 _00567_DS_:
000188 E2??           01349         BC      _00536_DS_
00018A 0E04           01350         MOVLW   0x04
00018C 5C??           01351         SUBWF   r0x05, W
00018E A0D8           01352         BTFSS   STATUS, 0
000190 D???           01353         BRA     _00499_DS_
000192                01354 _00536_DS_:
000192 C??? F???      01355         MOVFF   r0x05, r0x06
                      01356 ;       .line   354; ../../RF24Mesh_cg.c        if(!pollCount){
000196 50??           01357         MOVF    r0x05, W
000198 E1??           01358         BNZ     _00500_DS_
                      01359 ;       .line   360; ../../RF24Mesh_cg.c        return 0;
Message[1301]: Using default destination of 0 (Access Bank).
00019A 6AE8           01360         CLRF    WREG
00019C D???           01361         BRA     _00520_DS_
00019E                01362 _00500_DS_:
                      01363 ;       .line   382; ../../RF24Mesh_cg.c        for(i=0; i<pollCount; i++){
Message[1301]: Using default destination of 0 (Access Bank).
00019E 6A??           01364         CLRF    r0x05
0001A0                01365 _00518_DS_:
0001A0 50??           01366         MOVF    r0x06, W
0001A2 5C??           01367         SUBWF   r0x05, W
0001A4 B0D8           01368         BTFSC   STATUS, 0
0001A6 D???           01369         BRA     _00506_DS_
                      01370 ;       .line   385; ../../RF24Mesh_cg.c        header.type = NETWORK_REQ_ADDRESS;
0001A8 0EC3           01371         MOVLW   0xc3
0001AA ????           01372         BANKSEL (_RF24M_requestAddress_header_1_265 + 6)
0001AC 6F??           01373         MOVWF   (_RF24M_requestAddress_header_1_265 + 6), B
                      01374 ;       .line   386; ../../RF24Mesh_cg.c        header.reserved = RF24M_getNodeID(MESH_BLANK_ID);
0001AE 0EFF           01375         MOVLW   0xff
Message[1301]: Using default destination of 0 (Access Bank).
0001B0 6EE5           01376         MOVWF   POSTDEC1
0001B2 0EFF           01377         MOVLW   0xff
Message[1301]: Using default destination of 0 (Access Bank).
0001B4 6EE5           01378         MOVWF   POSTDEC1
0001B6 EC?? F0??      01379         CALL    _RF24M_getNodeID
Message[1301]: Using default destination of 0 (Access Bank).
0001BA 6E??           01380         MOVWF   r0x07
0001BC CFF3 F000      01381         MOVFF   PRODL, r0x08
0001C0 52E6           01382         MOVF    POSTINC1, F
0001C2 52E6           01383         MOVF    POSTINC1, F
0001C4 50??           01384         MOVF    r0x07, W
0001C6 ????           01385         BANKSEL (_RF24M_requestAddress_header_1_265 + 7)
0001C8 6F??           01386         MOVWF   (_RF24M_requestAddress_header_1_265 + 7), B
                      01387 ; ;multiply lit val:0x02 by variable r0x05 and store in r0x07
                      01388 ;       .line   387; ../../RF24Mesh_cg.c        header.to_node = contactNode[i];    
0001CA 50??           01389         MOVF    r0x05, W
0001CC 0D02           01390         MULLW   0x02
0001CE 50F4           01391         MOVF    PRODH, W
Message[1301]: Using default destination of 0 (Access Bank).
0001D0 6E??           01392         MOVWF   r0x08
gpasm-1.4.0 #1107 (May  9 2015) build/sdcc/pr   12-2-2016  22:31:29         PAGE 31


LOC    OBJECT CODE    LINE  SOURCE TEXT
  VALUE

0001D2 CFF3 F000      01393         MOVFF   PRODL, r0x07
0001D6 0E??           01394         MOVLW   LOW(_RF24M_requestAddress_contactNode_1_265)
0001D8 26??           01395         ADDWF   r0x07, F
0001DA 0E??           01396         MOVLW   HIGH(_RF24M_requestAddress_contactNode_1_265)
0001DC 22??           01397         ADDWFC  r0x08, F
0001DE C??? F???      01398         MOVFF   r0x07, FSR0L
0001E2 C??? F???      01399         MOVFF   r0x08, FSR0H
0001E6 CFEE F000      01400         MOVFF   POSTINC0, r0x09
0001EA CFEF F000      01401         MOVFF   INDF0, r0x0a
0001EE 50??           01402         MOVF    r0x09, W
0001F0 ????           01403         BANKSEL (_RF24M_requestAddress_header_1_265 + 2)
0001F2 6F??           01404         MOVWF   (_RF24M_requestAddress_header_1_265 + 2), B
0001F4 50??           01405         MOVF    r0x0a, W
0001F6 ????           01406         BANKSEL (_RF24M_requestAddress_header_1_265 + 3)
0001F8 6F??           01407         MOVWF   (_RF24M_requestAddress_header_1_265 + 3), B
                      01408 ;       .line   390; ../../RF24Mesh_cg.c        RF24N_write_(&header,0,0,contactNode[i]);
0001FA 0E??           01409         MOVLW   HIGH(_RF24M_requestAddress_header_1_265)
Message[1301]: Using default destination of 0 (Access Bank).
0001FC 6E??           01410         MOVWF   r0x0a
0001FE 0E??           01411         MOVLW   LOW(_RF24M_requestAddress_header_1_265)
Message[1301]: Using default destination of 0 (Access Bank).
000200 6E??           01412         MOVWF   r0x09
000202 0E80           01413         MOVLW   0x80
Message[1301]: Using default destination of 0 (Access Bank).
000204 6E??           01414         MOVWF   r0x0b
000206 C??? F???      01415         MOVFF   r0x07, FSR0L
00020A C??? F???      01416         MOVFF   r0x08, FSR0H
00020E CFEE F000      01417         MOVFF   POSTINC0, r0x07
000212 CFEF F000      01418         MOVFF   INDF0, r0x08
000216 50??           01419         MOVF    r0x08, W
Message[1301]: Using default destination of 0 (Access Bank).
000218 6EE5           01420         MOVWF   POSTDEC1
00021A 50??           01421         MOVF    r0x07, W
Message[1301]: Using default destination of 0 (Access Bank).
00021C 6EE5           01422         MOVWF   POSTDEC1
00021E 0E00           01423         MOVLW   0x00
Message[1301]: Using default destination of 0 (Access Bank).
000220 6EE5           01424         MOVWF   POSTDEC1
000222 0E00           01425         MOVLW   0x00
Message[1301]: Using default destination of 0 (Access Bank).
000224 6EE5           01426         MOVWF   POSTDEC1
000226 0E00           01427         MOVLW   0x00
Message[1301]: Using default destination of 0 (Access Bank).
000228 6EE5           01428         MOVWF   POSTDEC1
00022A 0E00           01429         MOVLW   0x00
Message[1301]: Using default destination of 0 (Access Bank).
00022C 6EE5           01430         MOVWF   POSTDEC1
00022E 0E00           01431         MOVLW   0x00
Message[1301]: Using default destination of 0 (Access Bank).
000230 6EE5           01432         MOVWF   POSTDEC1
000232 50??           01433         MOVF    r0x0b, W
Message[1301]: Using default destination of 0 (Access Bank).
000234 6EE5           01434         MOVWF   POSTDEC1
gpasm-1.4.0 #1107 (May  9 2015) build/sdcc/pr   12-2-2016  22:31:29         PAGE 32


LOC    OBJECT CODE    LINE  SOURCE TEXT
  VALUE

000236 50??           01435         MOVF    r0x0a, W
Message[1301]: Using default destination of 0 (Access Bank).
000238 6EE5           01436         MOVWF   POSTDEC1
00023A 50??           01437         MOVF    r0x09, W
Message[1301]: Using default destination of 0 (Access Bank).
00023C 6EE5           01438         MOVWF   POSTDEC1
00023E EC?? F0??      01439         CALL    _RF24N_write_
000242 0E0A           01440         MOVLW   0x0a
000244 26E1           01441         ADDWF   FSR1L, F
000246 B0D8           01442         BTFSC   STATUS, 0
000248 2AE2           01443         INCF    FSR1H, F
                      01444 ;       .line   397; ../../RF24Mesh_cg.c        timr = millis();    
00024A EC?? F0??      01445         CALL    _millis
Message[1301]: Using default destination of 0 (Access Bank).
00024E 6E??           01446         MOVWF   r0x00
000250 CFF3 F000      01447         MOVFF   PRODL, r0x02
000254 CFF4 F000      01448         MOVFF   PRODH, r0x03
000258 CFE9 F000      01449         MOVFF   FSR0L, r0x04
00025C                01450 _00503_DS_:
                      01451 ;       .line   399; ../../RF24Mesh_cg.c        while(millis()-timr<225){
00025C EC?? F0??      01452         CALL    _millis
Message[1301]: Using default destination of 0 (Access Bank).
000260 6E??           01453         MOVWF   r0x07
000262 CFF3 F000      01454         MOVFF   PRODL, r0x08
000266 CFF4 F000      01455         MOVFF   PRODH, r0x09
00026A CFE9 F000      01456         MOVFF   FSR0L, r0x0a
00026E 50??           01457         MOVF    r0x00, W
000270 5E??           01458         SUBWF   r0x07, F
000272 50??           01459         MOVF    r0x02, W
000274 5A??           01460         SUBWFB  r0x08, F
000276 50??           01461         MOVF    r0x03, W
000278 5A??           01462         SUBWFB  r0x09, F
00027A 50??           01463         MOVF    r0x04, W
00027C 5A??           01464         SUBWFB  r0x0a, F
00027E 0E00           01465         MOVLW   0x00
000280 5C??           01466         SUBWF   r0x0a, W
000282 E1??           01467         BNZ     _00570_DS_
000284 0E00           01468         MOVLW   0x00
000286 5C??           01469         SUBWF   r0x09, W
000288 E1??           01470         BNZ     _00570_DS_
00028A 0E00           01471         MOVLW   0x00
00028C 5C??           01472         SUBWF   r0x08, W
00028E E1??           01473         BNZ     _00570_DS_
000290 0EE1           01474         MOVLW   0xe1
000292 5C??           01475         SUBWF   r0x07, W
000294                01476 _00570_DS_:
000294 E2??           01477         BC      _00505_DS_
                      01478 ;       .line   400; ../../RF24Mesh_cg.c        if( (type = RF24N_update()) == NETWORK_ADDR_RESPONSE){
000296 EC?? F0??      01479         CALL    _RF24N_update
Message[1301]: Using default destination of 0 (Access Bank).
00029A 6E??           01480         MOVWF   r0x07
00029C C??? F???      01481         MOVFF   r0x07, r0x01
0002A0 50??           01482         MOVF    r0x07, W
gpasm-1.4.0 #1107 (May  9 2015) build/sdcc/pr   12-2-2016  22:31:29         PAGE 33


LOC    OBJECT CODE    LINE  SOURCE TEXT
  VALUE

0002A2 0A80           01483         XORLW   0x80
0002A4 E1??           01484         BNZ     _00503_DS_
                      01485 ;       .line   401; ../../RF24Mesh_cg.c        i=pollCount;
0002A6 C??? F???      01486         MOVFF   r0x06, r0x05
0002AA                01487 _00505_DS_:
                      01488 ;       .line   405; ../../RF24Mesh_cg.c        delay(5);
0002AA 0E00           01489         MOVLW   0x00
Message[1301]: Using default destination of 0 (Access Bank).
0002AC 6EE5           01490         MOVWF   POSTDEC1
0002AE 0E05           01491         MOVLW   0x05
Message[1301]: Using default destination of 0 (Access Bank).
0002B0 6EE5           01492         MOVWF   POSTDEC1
0002B2 EC?? F0??      01493         CALL    _delay
0002B6 52E6           01494         MOVF    POSTINC1, F
0002B8 52E6           01495         MOVF    POSTINC1, F
                      01496 ;       .line   382; ../../RF24Mesh_cg.c        for(i=0; i<pollCount; i++){
0002BA 2A??           01497         INCF    r0x05, F
0002BC D???           01498         BRA     _00518_DS_
0002BE                01499 _00506_DS_:
                      01500 ;       .line   407; ../../RF24Mesh_cg.c        if(type != NETWORK_ADDR_RESPONSE){
0002BE 50??           01501         MOVF    r0x01, W
0002C0 0A80           01502         XORLW   0x80
0002C2 E0??           01503         BZ      _00508_DS_
                      01504 ;       .line   408; ../../RF24Mesh_cg.c        return 0;
Message[1301]: Using default destination of 0 (Access Bank).
0002C4 6AE8           01505         CLRF    WREG
0002C6 D???           01506         BRA     _00520_DS_
0002C8                01507 _00508_DS_:
                      01508 ;       .line   418; ../../RF24Mesh_cg.c        memcpy(&newAddress,RF24N_getFrame_buffer()+sizeof(RF24Ne
                            tworkHeader),sizeof(newAddress));
0002C8 0E??           01509         MOVLW   HIGH(_RF24M_requestAddress_newAddress_1_265)
Message[1301]: Using default destination of 0 (Access Bank).
0002CA 6E??           01510         MOVWF   r0x01
0002CC 0E??           01511         MOVLW   LOW(_RF24M_requestAddress_newAddress_1_265)
Message[1301]: Using default destination of 0 (Access Bank).
0002CE 6E??           01512         MOVWF   r0x00
0002D0 0E80           01513         MOVLW   0x80
Message[1301]: Using default destination of 0 (Access Bank).
0002D2 6E??           01514         MOVWF   r0x02
0002D4 EC?? F0??      01515         CALL    _RF24N_getFrame_buffer
Message[1301]: Using default destination of 0 (Access Bank).
0002D8 6E??           01516         MOVWF   r0x03
0002DA CFF3 F000      01517         MOVFF   PRODL, r0x04
0002DE CFF4 F000      01518         MOVFF   PRODH, r0x05
0002E2 0E08           01519         MOVLW   0x08
0002E4 26??           01520         ADDWF   r0x03, F
0002E6 0E00           01521         MOVLW   0x00
0002E8 22??           01522         ADDWFC  r0x04, F
0002EA 22??           01523         ADDWFC  r0x05, F
0002EC 50??           01524         MOVF    r0x05, W
Message[1301]: Using default destination of 0 (Access Bank).
0002EE 6E??           01525         MOVWF   r0x05
0002F0 50??           01526         MOVF    r0x04, W
gpasm-1.4.0 #1107 (May  9 2015) build/sdcc/pr   12-2-2016  22:31:29         PAGE 34


LOC    OBJECT CODE    LINE  SOURCE TEXT
  VALUE

Message[1301]: Using default destination of 0 (Access Bank).
0002F2 6E??           01527         MOVWF   r0x04
0002F4 50??           01528         MOVF    r0x03, W
Message[1301]: Using default destination of 0 (Access Bank).
0002F6 6E??           01529         MOVWF   r0x03
0002F8 0E00           01530         MOVLW   0x00
Message[1301]: Using default destination of 0 (Access Bank).
0002FA 6EE5           01531         MOVWF   POSTDEC1
0002FC 0E02           01532         MOVLW   0x02
Message[1301]: Using default destination of 0 (Access Bank).
0002FE 6EE5           01533         MOVWF   POSTDEC1
000300 50??           01534         MOVF    r0x05, W
Message[1301]: Using default destination of 0 (Access Bank).
000302 6EE5           01535         MOVWF   POSTDEC1
000304 50??           01536         MOVF    r0x04, W
Message[1301]: Using default destination of 0 (Access Bank).
000306 6EE5           01537         MOVWF   POSTDEC1
000308 50??           01538         MOVF    r0x03, W
Message[1301]: Using default destination of 0 (Access Bank).
00030A 6EE5           01539         MOVWF   POSTDEC1
00030C 50??           01540         MOVF    r0x02, W
Message[1301]: Using default destination of 0 (Access Bank).
00030E 6EE5           01541         MOVWF   POSTDEC1
000310 50??           01542         MOVF    r0x01, W
Message[1301]: Using default destination of 0 (Access Bank).
000312 6EE5           01543         MOVWF   POSTDEC1
000314 50??           01544         MOVF    r0x00, W
Message[1301]: Using default destination of 0 (Access Bank).
000316 6EE5           01545         MOVWF   POSTDEC1
000318 EC?? F0??      01546         CALL    _memcpy
00031C 0E08           01547         MOVLW   0x08
00031E 26E1           01548         ADDWF   FSR1L, F
000320 B0D8           01549         BTFSC   STATUS, 0
000322 2AE2           01550         INCF    FSR1H, F
000324 ????           01551         BANKSEL _RF24M_requestAddress_newAddress_1_265
                      01552 ;       .line   420; ../../RF24Mesh_cg.c        if(!newAddress || RF24N_getFrame_buffer()[7] != RF24M_ge
                            tNodeID(MESH_BLANK_ID) ){
000326 51??           01553         MOVF    _RF24M_requestAddress_newAddress_1_265, W, B
000328 ????           01554         BANKSEL (_RF24M_requestAddress_newAddress_1_265 + 1)
00032A 11??           01555         IORWF   (_RF24M_requestAddress_newAddress_1_265 + 1), W, B
00032C E0??           01556         BZ      _00509_DS_
00032E EC?? F0??      01557         CALL    _RF24N_getFrame_buffer
Message[1301]: Using default destination of 0 (Access Bank).
000332 6E??           01558         MOVWF   r0x00
000334 CFF3 F000      01559         MOVFF   PRODL, r0x01
000338 CFF4 F000      01560         MOVFF   PRODH, r0x02
00033C 0E07           01561         MOVLW   0x07
00033E 26??           01562         ADDWF   r0x00, F
000340 0E00           01563         MOVLW   0x00
000342 22??           01564         ADDWFC  r0x01, F
000344 22??           01565         ADDWFC  r0x02, F
000346 C??? F???      01566         MOVFF   r0x00, FSR0L
00034A C??? F???      01567         MOVFF   r0x01, PRODL
gpasm-1.4.0 #1107 (May  9 2015) build/sdcc/pr   12-2-2016  22:31:29         PAGE 35


LOC    OBJECT CODE    LINE  SOURCE TEXT
  VALUE

00034E 50??           01568         MOVF    r0x02, W
000350 EC?? F0??      01569         CALL    __gptrget1
Message[1301]: Using default destination of 0 (Access Bank).
000354 6E??           01570         MOVWF   r0x00
000356 0EFF           01571         MOVLW   0xff
Message[1301]: Using default destination of 0 (Access Bank).
000358 6EE5           01572         MOVWF   POSTDEC1
00035A 0EFF           01573         MOVLW   0xff
Message[1301]: Using default destination of 0 (Access Bank).
00035C 6EE5           01574         MOVWF   POSTDEC1
00035E EC?? F0??      01575         CALL    _RF24M_getNodeID
Message[1301]: Using default destination of 0 (Access Bank).
000362 6E??           01576         MOVWF   r0x01
000364 CFF3 F000      01577         MOVFF   PRODL, r0x02
000368 52E6           01578         MOVF    POSTINC1, F
00036A 52E6           01579         MOVF    POSTINC1, F
Message[1301]: Using default destination of 0 (Access Bank).
00036C 6A??           01580         CLRF    r0x03
00036E 50??           01581         MOVF    r0x00, W
000370 18??           01582         XORWF   r0x01, W
000372 E1??           01583         BNZ     _00509_DS_
000374 50??           01584         MOVF    r0x03, W
000376 18??           01585         XORWF   r0x02, W
000378 E0??           01586         BZ      _00510_DS_
00037A                01587 _00509_DS_:
                      01588 ;       .line   427; ../../RF24Mesh_cg.c        return 0;
Message[1301]: Using default destination of 0 (Access Bank).
00037A 6AE8           01589         CLRF    WREG
00037C D???           01590         BRA     _00520_DS_
00037E                01591 _00510_DS_:
00037E ????           01592         BANKSEL _RF24M_requestAddress_newAddress_1_265
                      01593 ;       .line   441; ../../RF24Mesh_cg.c        mesh.mesh_address = newAddress;
000380 51??           01594         MOVF    _RF24M_requestAddress_newAddress_1_265, W, B
000382 ????           01595         BANKSEL (_mesh + 1)
000384 6F??           01596         MOVWF   (_mesh + 1), B
000386 ????           01597         BANKSEL (_RF24M_requestAddress_newAddress_1_265 + 1)
000388 51??           01598         MOVF    (_RF24M_requestAddress_newAddress_1_265 + 1), W, B
00038A ????           01599         BANKSEL (_mesh + 2)
00038C 6F??           01600         MOVWF   (_mesh + 2), B
                      01601 ;       .line   443; ../../RF24Mesh_cg.c        RF24_stopListening();
00038E EC?? F0??      01602         CALL    _RF24_stopListening
                      01603 ;       .line   444; ../../RF24Mesh_cg.c        delay(10);
000392 0E00           01604         MOVLW   0x00
Message[1301]: Using default destination of 0 (Access Bank).
000394 6EE5           01605         MOVWF   POSTDEC1
000396 0E0A           01606         MOVLW   0x0a
Message[1301]: Using default destination of 0 (Access Bank).
000398 6EE5           01607         MOVWF   POSTDEC1
00039A EC?? F0??      01608         CALL    _delay
00039E 52E6           01609         MOVF    POSTINC1, F
0003A0 52E6           01610         MOVF    POSTINC1, F
0003A2 ????           01611         BANKSEL (_mesh + 2)
                      01612 ;       .line   445; ../../RF24Mesh_cg.c        RF24N_begin(mesh.mesh_address);
gpasm-1.4.0 #1107 (May  9 2015) build/sdcc/pr   12-2-2016  22:31:29         PAGE 36


LOC    OBJECT CODE    LINE  SOURCE TEXT
  VALUE

0003A4 51??           01613         MOVF    (_mesh + 2), W, B
Message[1301]: Using default destination of 0 (Access Bank).
0003A6 6EE5           01614         MOVWF   POSTDEC1
0003A8 ????           01615         BANKSEL (_mesh + 1)
0003AA 51??           01616         MOVF    (_mesh + 1), W, B
Message[1301]: Using default destination of 0 (Access Bank).
0003AC 6EE5           01617         MOVWF   POSTDEC1
0003AE EC?? F0??      01618         CALL    _RF24N_begin
0003B2 52E6           01619         MOVF    POSTINC1, F
0003B4 52E6           01620         MOVF    POSTINC1, F
0003B6 ????           01621         BANKSEL (_RF24M_requestAddress_header_1_265 + 2)
                      01622 ;       .line   446; ../../RF24Mesh_cg.c        header.to_node = 00;
0003B8 6B??           01623         CLRF    (_RF24M_requestAddress_header_1_265 + 2), B
0003BA ????           01624         BANKSEL (_RF24M_requestAddress_header_1_265 + 3)
0003BC 6B??           01625         CLRF    (_RF24M_requestAddress_header_1_265 + 3), B
                      01626 ;       .line   447; ../../RF24Mesh_cg.c        header.type = MESH_ADDR_CONFIRM;
0003BE 0E81           01627         MOVLW   0x81
0003C0 ????           01628         BANKSEL (_RF24M_requestAddress_header_1_265 + 6)
0003C2 6F??           01629         MOVWF   (_RF24M_requestAddress_header_1_265 + 6), B
                      01630 ;       .line   449; ../../RF24Mesh_cg.c        while( !RF24N_write_m(&header,0,0) ){
Message[1301]: Using default destination of 0 (Access Bank).
0003C4 6A??           01631         CLRF    r0x00
0003C6                01632 _00514_DS_:
0003C6 0E??           01633         MOVLW   HIGH(_RF24M_requestAddress_header_1_265)
Message[1301]: Using default destination of 0 (Access Bank).
0003C8 6E??           01634         MOVWF   r0x02
0003CA 0E??           01635         MOVLW   LOW(_RF24M_requestAddress_header_1_265)
Message[1301]: Using default destination of 0 (Access Bank).
0003CC 6E??           01636         MOVWF   r0x01
0003CE 0E80           01637         MOVLW   0x80
Message[1301]: Using default destination of 0 (Access Bank).
0003D0 6E??           01638         MOVWF   r0x03
0003D2 0E00           01639         MOVLW   0x00
Message[1301]: Using default destination of 0 (Access Bank).
0003D4 6EE5           01640         MOVWF   POSTDEC1
0003D6 0E00           01641         MOVLW   0x00
Message[1301]: Using default destination of 0 (Access Bank).
0003D8 6EE5           01642         MOVWF   POSTDEC1
0003DA 0E00           01643         MOVLW   0x00
Message[1301]: Using default destination of 0 (Access Bank).
0003DC 6EE5           01644         MOVWF   POSTDEC1
0003DE 0E00           01645         MOVLW   0x00
Message[1301]: Using default destination of 0 (Access Bank).
0003E0 6EE5           01646         MOVWF   POSTDEC1
0003E2 0E00           01647         MOVLW   0x00
Message[1301]: Using default destination of 0 (Access Bank).
0003E4 6EE5           01648         MOVWF   POSTDEC1
0003E6 50??           01649         MOVF    r0x03, W
Message[1301]: Using default destination of 0 (Access Bank).
0003E8 6EE5           01650         MOVWF   POSTDEC1
0003EA 50??           01651         MOVF    r0x02, W
Message[1301]: Using default destination of 0 (Access Bank).
0003EC 6EE5           01652         MOVWF   POSTDEC1
gpasm-1.4.0 #1107 (May  9 2015) build/sdcc/pr   12-2-2016  22:31:29         PAGE 37


LOC    OBJECT CODE    LINE  SOURCE TEXT
  VALUE

0003EE 50??           01653         MOVF    r0x01, W
Message[1301]: Using default destination of 0 (Access Bank).
0003F0 6EE5           01654         MOVWF   POSTDEC1
0003F2 EC?? F0??      01655         CALL    _RF24N_write_m
Message[1301]: Using default destination of 0 (Access Bank).
0003F6 6E??           01656         MOVWF   r0x01
0003F8 0E08           01657         MOVLW   0x08
0003FA 26E1           01658         ADDWF   FSR1L, F
0003FC B0D8           01659         BTFSC   STATUS, 0
0003FE 2AE2           01660         INCF    FSR1H, F
000400 50??           01661         MOVF    r0x01, W
000402 E1??           01662         BNZ     _00516_DS_
                      01663 ;       .line   450; ../../RF24Mesh_cg.c        if(registerAddrCount++ >= 6 ){ 
000404 C??? F???      01664         MOVFF   r0x00, r0x01
000408 2A??           01665         INCF    r0x00, F
00040A 0E06           01666         MOVLW   0x06
00040C 5C??           01667         SUBWF   r0x01, W
00040E E3??           01668         BNC     _00513_DS_
                      01669 ;       .line   451; ../../RF24Mesh_cg.c        RF24N_begin(MESH_DEFAULT_ADDRESS);
000410 0E09           01670         MOVLW   0x09
Message[1301]: Using default destination of 0 (Access Bank).
000412 6EE5           01671         MOVWF   POSTDEC1
000414 0E24           01672         MOVLW   0x24
Message[1301]: Using default destination of 0 (Access Bank).
000416 6EE5           01673         MOVWF   POSTDEC1
000418 EC?? F0??      01674         CALL    _RF24N_begin
00041C 52E6           01675         MOVF    POSTINC1, F
00041E 52E6           01676         MOVF    POSTINC1, F
                      01677 ;       .line   452; ../../RF24Mesh_cg.c        mesh.mesh_address = MESH_DEFAULT_ADDRESS;
000420 0E24           01678         MOVLW   0x24
000422 ????           01679         BANKSEL (_mesh + 1)
000424 6F??           01680         MOVWF   (_mesh + 1), B
000426 0E09           01681         MOVLW   0x09
000428 ????           01682         BANKSEL (_mesh + 2)
00042A 6F??           01683         MOVWF   (_mesh + 2), B
                      01684 ;       .line   453; ../../RF24Mesh_cg.c        return 0;
Message[1301]: Using default destination of 0 (Access Bank).
00042C 6AE8           01685         CLRF    WREG
00042E D???           01686         BRA     _00520_DS_
000430                01687 _00513_DS_:
                      01688 ;       .line   455; ../../RF24Mesh_cg.c        delay(3);
000430 0E00           01689         MOVLW   0x00
Message[1301]: Using default destination of 0 (Access Bank).
000432 6EE5           01690         MOVWF   POSTDEC1
000434 0E03           01691         MOVLW   0x03
Message[1301]: Using default destination of 0 (Access Bank).
000436 6EE5           01692         MOVWF   POSTDEC1
000438 EC?? F0??      01693         CALL    _delay
00043C 52E6           01694         MOVF    POSTINC1, F
00043E 52E6           01695         MOVF    POSTINC1, F
000440 D???           01696         BRA     _00514_DS_
000442                01697 _00516_DS_:
                      01698 ;       .line   458; ../../RF24Mesh_cg.c        return 1;  
gpasm-1.4.0 #1107 (May  9 2015) build/sdcc/pr   12-2-2016  22:31:29         PAGE 38


LOC    OBJECT CODE    LINE  SOURCE TEXT
  VALUE

000442 0E01           01699         MOVLW   0x01
000444                01700 _00520_DS_:
000444 CFE4 F000      01701         MOVFF   PREINC1, r0x0d
000448 CFE4 F000      01702         MOVFF   PREINC1, r0x0c
00044C CFE4 F000      01703         MOVFF   PREINC1, r0x0b
000450 CFE4 F000      01704         MOVFF   PREINC1, r0x0a
000454 CFE4 F000      01705         MOVFF   PREINC1, r0x09
000458 CFE4 F000      01706         MOVFF   PREINC1, r0x08
00045C CFE4 F000      01707         MOVFF   PREINC1, r0x07
000460 CFE4 F000      01708         MOVFF   PREINC1, r0x06
000464 CFE4 F000      01709         MOVFF   PREINC1, r0x05
000468 CFE4 F000      01710         MOVFF   PREINC1, r0x04
00046C CFE4 F000      01711         MOVFF   PREINC1, r0x03
000470 CFE4 F000      01712         MOVFF   PREINC1, r0x02
000474 CFE4 F000      01713         MOVFF   PREINC1, r0x01
000478 CFE4 F000      01714         MOVFF   PREINC1, r0x00
00047C CFE4 FFD9      01715         MOVFF   PREINC1, FSR2L
000480 CFE4 FFDA      01716         MOVFF   PREINC1, FSR2H
000484 0012           01717         RETURN  
                      01718 
                      01719 ; ; Starting pCode block
                      01720 S_RF24Mesh_cg__RF24M_renewAddress       code
000000                01721 _RF24M_renewAddress:
                      01722 ;       .line   273; ../../RF24Mesh_cg.c        uint16_t RF24M_renewAddress( uint32_t timeout){
000000 CFDA FFE5      01723         MOVFF   FSR2H, POSTDEC1
000004 CFD9 FFE5      01724         MOVFF   FSR2L, POSTDEC1
000008 CFE2 FFDA      01725         MOVFF   FSR1H, FSR2H
00000C CFE1 FFD9      01726         MOVFF   FSR1L, FSR2L
000010 C??? F???      01727         MOVFF   r0x00, POSTDEC1
000014 C??? F???      01728         MOVFF   r0x01, POSTDEC1
000018 C??? F???      01729         MOVFF   r0x02, POSTDEC1
00001C C??? F???      01730         MOVFF   r0x03, POSTDEC1
000020 C??? F???      01731         MOVFF   r0x04, POSTDEC1
000024 C??? F???      01732         MOVFF   r0x05, POSTDEC1
000028 C??? F???      01733         MOVFF   r0x06, POSTDEC1
00002C C??? F???      01734         MOVFF   r0x07, POSTDEC1
000030 C??? F???      01735         MOVFF   r0x08, POSTDEC1
000034 C??? F???      01736         MOVFF   r0x09, POSTDEC1
000038 C??? F???      01737         MOVFF   r0x0a, POSTDEC1
00003C C??? F???      01738         MOVFF   r0x0b, POSTDEC1
000040 C??? F???      01739         MOVFF   r0x0c, POSTDEC1
000044 C??? F???      01740         MOVFF   r0x0d, POSTDEC1
000048 0E03           01741         MOVLW   0x03
00004A CFDB F000      01742         MOVFF   PLUSW2, r0x00
00004E 0E04           01743         MOVLW   0x04
000050 CFDB F000      01744         MOVFF   PLUSW2, r0x01
000054 0E05           01745         MOVLW   0x05
000056 CFDB F000      01746         MOVFF   PLUSW2, r0x02
00005A 0E06           01747         MOVLW   0x06
00005C CFDB F000      01748         MOVFF   PLUSW2, r0x03
                      01749 ;       .line   274; ../../RF24Mesh_cg.c        uint8_t reqCounter = 0;
Message[1301]: Using default destination of 0 (Access Bank).
000060 6A??           01750         CLRF    r0x04
gpasm-1.4.0 #1107 (May  9 2015) build/sdcc/pr   12-2-2016  22:31:29         PAGE 39


LOC    OBJECT CODE    LINE  SOURCE TEXT
  VALUE

                      01751 ;       .line   275; ../../RF24Mesh_cg.c        uint8_t totalReqs = 0;
Message[1301]: Using default destination of 0 (Access Bank).
000062 6A??           01752         CLRF    r0x05
                      01753 ;       .line   278; ../../RF24Mesh_cg.c        if(RF24_available()){ return 0; }
000064 EC?? F0??      01754         CALL    _RF24_available
Message[1301]: Using default destination of 0 (Access Bank).
000068 6E??           01755         MOVWF   r0x06
00006A 50??           01756         MOVF    r0x06, W
00006C E0??           01757         BZ      _00464_DS_
Message[1301]: Using default destination of 0 (Access Bank).
00006E 6AF3           01758         CLRF    PRODL
Message[1301]: Using default destination of 0 (Access Bank).
000070 6AE8           01759         CLRF    WREG
000072 D???           01760         BRA     _00470_DS_
000074                01761 _00464_DS_:
                      01762 ;       .line   280; ../../RF24Mesh_cg.c        RF24_stopListening();
000074 EC?? F0??      01763         CALL    _RF24_stopListening
                      01764 ;       .line   282; ../../RF24Mesh_cg.c        RF24N_setNetworkFlags(RF24N_getNetworkFlags() | 2);
000078 EC?? F0??      01765         CALL    _RF24N_getNetworkFlags
Message[1301]: Using default destination of 0 (Access Bank).
00007C 6E??           01766         MOVWF   r0x06
00007E 82??           01767         BSF     r0x06, 1
000080 50??           01768         MOVF    r0x06, W
Message[1301]: Using default destination of 0 (Access Bank).
000082 6EE5           01769         MOVWF   POSTDEC1
000084 EC?? F0??      01770         CALL    _RF24N_setNetworkFlags
000088 52E6           01771         MOVF    POSTINC1, F
                      01772 ;       .line   283; ../../RF24Mesh_cg.c        delay(10);
00008A 0E00           01773         MOVLW   0x00
Message[1301]: Using default destination of 0 (Access Bank).
00008C 6EE5           01774         MOVWF   POSTDEC1
00008E 0E0A           01775         MOVLW   0x0a
Message[1301]: Using default destination of 0 (Access Bank).
000090 6EE5           01776         MOVWF   POSTDEC1
000092 EC?? F0??      01777         CALL    _delay
000096 52E6           01778         MOVF    POSTINC1, F
000098 52E6           01779         MOVF    POSTINC1, F
                      01780 ;       .line   285; ../../RF24Mesh_cg.c        RF24N_begin(MESH_DEFAULT_ADDRESS);
00009A 0E09           01781         MOVLW   0x09
Message[1301]: Using default destination of 0 (Access Bank).
00009C 6EE5           01782         MOVWF   POSTDEC1
00009E 0E24           01783         MOVLW   0x24
Message[1301]: Using default destination of 0 (Access Bank).
0000A0 6EE5           01784         MOVWF   POSTDEC1
0000A2 EC?? F0??      01785         CALL    _RF24N_begin
0000A6 52E6           01786         MOVF    POSTINC1, F
0000A8 52E6           01787         MOVF    POSTINC1, F
                      01788 ;       .line   286; ../../RF24Mesh_cg.c        mesh.mesh_address = MESH_DEFAULT_ADDRESS;
0000AA 0E24           01789         MOVLW   0x24
0000AC ????           01790         BANKSEL (_mesh + 1)
0000AE 6F??           01791         MOVWF   (_mesh + 1), B
0000B0 0E09           01792         MOVLW   0x09
0000B2 ????           01793         BANKSEL (_mesh + 2)
gpasm-1.4.0 #1107 (May  9 2015) build/sdcc/pr   12-2-2016  22:31:29         PAGE 40


LOC    OBJECT CODE    LINE  SOURCE TEXT
  VALUE

0000B4 6F??           01794         MOVWF   (_mesh + 2), B
                      01795 ;       .line   288; ../../RF24Mesh_cg.c        start = millis();
0000B6 EC?? F0??      01796         CALL    _millis
Message[1301]: Using default destination of 0 (Access Bank).
0000BA 6E??           01797         MOVWF   r0x06
0000BC CFF3 F000      01798         MOVFF   PRODL, r0x07
0000C0 CFF4 F000      01799         MOVFF   PRODH, r0x08
0000C4 CFE9 F000      01800         MOVFF   FSR0L, r0x09
0000C8                01801 _00467_DS_:
                      01802 ;       .line   289; ../../RF24Mesh_cg.c        while(!RF24M_requestAddress(reqCounter)){
0000C8 50??           01803         MOVF    r0x04, W
Message[1301]: Using default destination of 0 (Access Bank).
0000CA 6EE5           01804         MOVWF   POSTDEC1
0000CC EC?? F0??      01805         CALL    _RF24M_requestAddress
Message[1301]: Using default destination of 0 (Access Bank).
0000D0 6E??           01806         MOVWF   r0x0a
0000D2 52E6           01807         MOVF    POSTINC1, F
0000D4 50??           01808         MOVF    r0x0a, W
0000D6 A4D8           01809         BTFSS   STATUS, 2
0000D8 D???           01810         BRA     _00469_DS_
                      01811 ;       .line   290; ../../RF24Mesh_cg.c        if(millis()-start > timeout){ return 0; }
0000DA EC?? F0??      01812         CALL    _millis
Message[1301]: Using default destination of 0 (Access Bank).
0000DE 6E??           01813         MOVWF   r0x0a
0000E0 CFF3 F000      01814         MOVFF   PRODL, r0x0b
0000E4 CFF4 F000      01815         MOVFF   PRODH, r0x0c
0000E8 CFE9 F000      01816         MOVFF   FSR0L, r0x0d
0000EC 50??           01817         MOVF    r0x06, W
0000EE 5E??           01818         SUBWF   r0x0a, F
0000F0 50??           01819         MOVF    r0x07, W
0000F2 5A??           01820         SUBWFB  r0x0b, F
0000F4 50??           01821         MOVF    r0x08, W
0000F6 5A??           01822         SUBWFB  r0x0c, F
0000F8 50??           01823         MOVF    r0x09, W
0000FA 5A??           01824         SUBWFB  r0x0d, F
0000FC 50??           01825         MOVF    r0x0d, W
0000FE 5C??           01826         SUBWF   r0x03, W
000100 E1??           01827         BNZ     _00485_DS_
000102 50??           01828         MOVF    r0x0c, W
000104 5C??           01829         SUBWF   r0x02, W
000106 E1??           01830         BNZ     _00485_DS_
000108 50??           01831         MOVF    r0x0b, W
00010A 5C??           01832         SUBWF   r0x01, W
00010C E1??           01833         BNZ     _00485_DS_
00010E 50??           01834         MOVF    r0x0a, W
000110 5C??           01835         SUBWF   r0x00, W
000112                01836 _00485_DS_:
000112 E2??           01837         BC      _00466_DS_
Message[1301]: Using default destination of 0 (Access Bank).
000114 6AF3           01838         CLRF    PRODL
Message[1301]: Using default destination of 0 (Access Bank).
000116 6AE8           01839         CLRF    WREG
000118 D???           01840         BRA     _00470_DS_
gpasm-1.4.0 #1107 (May  9 2015) build/sdcc/pr   12-2-2016  22:31:29         PAGE 41


LOC    OBJECT CODE    LINE  SOURCE TEXT
  VALUE

00011A                01841 _00466_DS_:
                      01842 ;       .line   291; ../../RF24Mesh_cg.c        delay(50 + ( (totalReqs+1)*(reqCounter+1)) * 2);
00011A C??? F???      01843         MOVFF   r0x05, r0x0a
Message[1301]: Using default destination of 0 (Access Bank).
00011E 6A??           01844         CLRF    r0x0b
000120 4A??           01845         INFSNZ  r0x0a, F
000122 2A??           01846         INCF    r0x0b, F
000124 C??? F???      01847         MOVFF   r0x04, r0x0c
Message[1301]: Using default destination of 0 (Access Bank).
000128 6A??           01848         CLRF    r0x0d
00012A 4A??           01849         INFSNZ  r0x0c, F
00012C 2A??           01850         INCF    r0x0d, F
00012E 50??           01851         MOVF    r0x0d, W
Message[1301]: Using default destination of 0 (Access Bank).
000130 6EE5           01852         MOVWF   POSTDEC1
000132 50??           01853         MOVF    r0x0c, W
Message[1301]: Using default destination of 0 (Access Bank).
000134 6EE5           01854         MOVWF   POSTDEC1
000136 50??           01855         MOVF    r0x0b, W
Message[1301]: Using default destination of 0 (Access Bank).
000138 6EE5           01856         MOVWF   POSTDEC1
00013A 50??           01857         MOVF    r0x0a, W
Message[1301]: Using default destination of 0 (Access Bank).
00013C 6EE5           01858         MOVWF   POSTDEC1
00013E EC?? F0??      01859         CALL    __mulint
Message[1301]: Using default destination of 0 (Access Bank).
000142 6E??           01860         MOVWF   r0x0a
000144 CFF3 F000      01861         MOVFF   PRODL, r0x0b
000148 0E04           01862         MOVLW   0x04
00014A 26E1           01863         ADDWF   FSR1L, F
00014C B0D8           01864         BTFSC   STATUS, 0
00014E 2AE2           01865         INCF    FSR1H, F
000150 50??           01866         MOVF    r0x0b, W
Message[1301]: Using default destination of 0 (Access Bank).
000152 6EE5           01867         MOVWF   POSTDEC1
000154 50??           01868         MOVF    r0x0a, W
Message[1301]: Using default destination of 0 (Access Bank).
000156 6EE5           01869         MOVWF   POSTDEC1
000158 0E00           01870         MOVLW   0x00
Message[1301]: Using default destination of 0 (Access Bank).
00015A 6EE5           01871         MOVWF   POSTDEC1
00015C 0E02           01872         MOVLW   0x02
Message[1301]: Using default destination of 0 (Access Bank).
00015E 6EE5           01873         MOVWF   POSTDEC1
000160 EC?? F0??      01874         CALL    __mulint
Message[1301]: Using default destination of 0 (Access Bank).
000164 6E??           01875         MOVWF   r0x0a
000166 CFF3 F000      01876         MOVFF   PRODL, r0x0b
00016A 0E04           01877         MOVLW   0x04
00016C 26E1           01878         ADDWF   FSR1L, F
00016E B0D8           01879         BTFSC   STATUS, 0
000170 2AE2           01880         INCF    FSR1H, F
000172 0E32           01881         MOVLW   0x32
gpasm-1.4.0 #1107 (May  9 2015) build/sdcc/pr   12-2-2016  22:31:29         PAGE 42


LOC    OBJECT CODE    LINE  SOURCE TEXT
  VALUE

000174 26??           01882         ADDWF   r0x0a, F
000176 B0D8           01883         BTFSC   STATUS, 0
000178 2A??           01884         INCF    r0x0b, F
00017A 50??           01885         MOVF    r0x0b, W
Message[1301]: Using default destination of 0 (Access Bank).
00017C 6EE5           01886         MOVWF   POSTDEC1
00017E 50??           01887         MOVF    r0x0a, W
Message[1301]: Using default destination of 0 (Access Bank).
000180 6EE5           01888         MOVWF   POSTDEC1
000182 EC?? F0??      01889         CALL    _delay
000186 52E6           01890         MOVF    POSTINC1, F
000188 52E6           01891         MOVF    POSTINC1, F
                      01892 ;       .line   292; ../../RF24Mesh_cg.c        reqCounter++;
00018A 2A??           01893         INCF    r0x04, F
                      01894 ;       .line   293; ../../RF24Mesh_cg.c        reqCounter = reqCounter%4;
00018C 0E03           01895         MOVLW   0x03
00018E 16??           01896         ANDWF   r0x04, F
                      01897 ;       .line   294; ../../RF24Mesh_cg.c        totalReqs++;
000190 2A??           01898         INCF    r0x05, F
                      01899 ;       .line   295; ../../RF24Mesh_cg.c        totalReqs = totalReqs%10;
000192 0E0A           01900         MOVLW   0x0a
Message[1301]: Using default destination of 0 (Access Bank).
000194 6EE5           01901         MOVWF   POSTDEC1
000196 C??? F???      01902         MOVFF   r0x05, POSTDEC1
00019A EC?? F0??      01903         CALL    __moduchar
Message[1301]: Using default destination of 0 (Access Bank).
00019E 6E??           01904         MOVWF   r0x05
0001A0 50E4           01905         MOVF    PREINC1, W
0001A2 50E4           01906         MOVF    PREINC1, W
0001A4 D???           01907         BRA     _00467_DS_
0001A6                01908 _00469_DS_:
                      01909 ;       .line   298; ../../RF24Mesh_cg.c        RF24N_setNetworkFlags(RF24N_getNetworkFlags() & ~2);
0001A6 EC?? F0??      01910         CALL    _RF24N_getNetworkFlags
Message[1301]: Using default destination of 0 (Access Bank).
0001AA 6E??           01911         MOVWF   r0x00
0001AC 92??           01912         BCF     r0x00, 1
0001AE 50??           01913         MOVF    r0x00, W
Message[1301]: Using default destination of 0 (Access Bank).
0001B0 6EE5           01914         MOVWF   POSTDEC1
0001B2 EC?? F0??      01915         CALL    _RF24N_setNetworkFlags
0001B6 52E6           01916         MOVF    POSTINC1, F
                      01917 ;       .line   299; ../../RF24Mesh_cg.c        return mesh.mesh_address;
0001B8 C??? F???      01918         MOVFF   (_mesh + 2), PRODL
0001BC ????           01919         BANKSEL (_mesh + 1)
0001BE 51??           01920         MOVF    (_mesh + 1), W, B
0001C0                01921 _00470_DS_:
0001C0 CFE4 F000      01922         MOVFF   PREINC1, r0x0d
0001C4 CFE4 F000      01923         MOVFF   PREINC1, r0x0c
0001C8 CFE4 F000      01924         MOVFF   PREINC1, r0x0b
0001CC CFE4 F000      01925         MOVFF   PREINC1, r0x0a
0001D0 CFE4 F000      01926         MOVFF   PREINC1, r0x09
0001D4 CFE4 F000      01927         MOVFF   PREINC1, r0x08
0001D8 CFE4 F000      01928         MOVFF   PREINC1, r0x07
gpasm-1.4.0 #1107 (May  9 2015) build/sdcc/pr   12-2-2016  22:31:29         PAGE 43


LOC    OBJECT CODE    LINE  SOURCE TEXT
  VALUE

0001DC CFE4 F000      01929         MOVFF   PREINC1, r0x06
0001E0 CFE4 F000      01930         MOVFF   PREINC1, r0x05
0001E4 CFE4 F000      01931         MOVFF   PREINC1, r0x04
0001E8 CFE4 F000      01932         MOVFF   PREINC1, r0x03
0001EC CFE4 F000      01933         MOVFF   PREINC1, r0x02
0001F0 CFE4 F000      01934         MOVFF   PREINC1, r0x01
0001F4 CFE4 F000      01935         MOVFF   PREINC1, r0x00
0001F8 CFE4 FFD9      01936         MOVFF   PREINC1, FSR2L
0001FC CFE4 FFDA      01937         MOVFF   PREINC1, FSR2H
000200 0012           01938         RETURN  
                      01939 
                      01940 ; ; Starting pCode block
                      01941 S_RF24Mesh_cg__RF24M_releaseAddress     code
000000                01942 _RF24M_releaseAddress:
                      01943 ;       .line   257; ../../RF24Mesh_cg.c        uint8_t RF24M_releaseAddress(void){
000000 CFDA FFE5      01944         MOVFF   FSR2H, POSTDEC1
000004 CFD9 FFE5      01945         MOVFF   FSR2L, POSTDEC1
000008 CFE2 FFDA      01946         MOVFF   FSR1H, FSR2H
00000C CFE1 FFD9      01947         MOVFF   FSR1L, FSR2L
000010 C??? F???      01948         MOVFF   r0x00, POSTDEC1
000014 C??? F???      01949         MOVFF   r0x01, POSTDEC1
000018 C??? F???      01950         MOVFF   r0x02, POSTDEC1
00001C ????           01951         BANKSEL (_mesh + 1)
                      01952 ;       .line   260; ../../RF24Mesh_cg.c        if(mesh.mesh_address == MESH_DEFAULT_ADDRESS){ return 0;
                             }
00001E 51??           01953         MOVF    (_mesh + 1), W, B
000020 0A24           01954         XORLW   0x24
000022 E1??           01955         BNZ     _00457_DS_
000024 ????           01956         BANKSEL (_mesh + 2)
000026 51??           01957         MOVF    (_mesh + 2), W, B
000028 0A09           01958         XORLW   0x09
00002A E0??           01959         BZ      _00458_DS_
00002C                01960 _00457_DS_:
00002C D???           01961         BRA     _00446_DS_
00002E                01962 _00458_DS_:
Message[1301]: Using default destination of 0 (Access Bank).
00002E 6AE8           01963         CLRF    WREG
000030 D???           01964         BRA     _00449_DS_
000032                01965 _00446_DS_:
                      01966 ;       .line   262; ../../RF24Mesh_cg.c        RF24NH_init(&header,00,MESH_ADDR_RELEASE);
000032 0E??           01967         MOVLW   HIGH(_RF24M_releaseAddress_header_1_256)
Message[1301]: Using default destination of 0 (Access Bank).
000034 6E??           01968         MOVWF   r0x01
000036 0E??           01969         MOVLW   LOW(_RF24M_releaseAddress_header_1_256)
Message[1301]: Using default destination of 0 (Access Bank).
000038 6E??           01970         MOVWF   r0x00
00003A 0E80           01971         MOVLW   0x80
Message[1301]: Using default destination of 0 (Access Bank).
00003C 6E??           01972         MOVWF   r0x02
00003E 0EC5           01973         MOVLW   0xc5
Message[1301]: Using default destination of 0 (Access Bank).
000040 6EE5           01974         MOVWF   POSTDEC1
000042 0E00           01975         MOVLW   0x00
gpasm-1.4.0 #1107 (May  9 2015) build/sdcc/pr   12-2-2016  22:31:29         PAGE 44


LOC    OBJECT CODE    LINE  SOURCE TEXT
  VALUE

Message[1301]: Using default destination of 0 (Access Bank).
000044 6EE5           01976         MOVWF   POSTDEC1
000046 0E00           01977         MOVLW   0x00
Message[1301]: Using default destination of 0 (Access Bank).
000048 6EE5           01978         MOVWF   POSTDEC1
00004A 50??           01979         MOVF    r0x02, W
Message[1301]: Using default destination of 0 (Access Bank).
00004C 6EE5           01980         MOVWF   POSTDEC1
00004E 50??           01981         MOVF    r0x01, W
Message[1301]: Using default destination of 0 (Access Bank).
000050 6EE5           01982         MOVWF   POSTDEC1
000052 50??           01983         MOVF    r0x00, W
Message[1301]: Using default destination of 0 (Access Bank).
000054 6EE5           01984         MOVWF   POSTDEC1
000056 EC?? F0??      01985         CALL    _RF24NH_init
00005A 0E06           01986         MOVLW   0x06
00005C 26E1           01987         ADDWF   FSR1L, F
00005E B0D8           01988         BTFSC   STATUS, 0
000060 2AE2           01989         INCF    FSR1H, F
                      01990 ;       .line   263; ../../RF24Mesh_cg.c        if(RF24N_write_m(&header,0,0)){
000062 0E??           01991         MOVLW   HIGH(_RF24M_releaseAddress_header_1_256)
Message[1301]: Using default destination of 0 (Access Bank).
000064 6E??           01992         MOVWF   r0x01
000066 0E??           01993         MOVLW   LOW(_RF24M_releaseAddress_header_1_256)
Message[1301]: Using default destination of 0 (Access Bank).
000068 6E??           01994         MOVWF   r0x00
00006A 0E80           01995         MOVLW   0x80
Message[1301]: Using default destination of 0 (Access Bank).
00006C 6E??           01996         MOVWF   r0x02
00006E 0E00           01997         MOVLW   0x00
Message[1301]: Using default destination of 0 (Access Bank).
000070 6EE5           01998         MOVWF   POSTDEC1
000072 0E00           01999         MOVLW   0x00
Message[1301]: Using default destination of 0 (Access Bank).
000074 6EE5           02000         MOVWF   POSTDEC1
000076 0E00           02001         MOVLW   0x00
Message[1301]: Using default destination of 0 (Access Bank).
000078 6EE5           02002         MOVWF   POSTDEC1
00007A 0E00           02003         MOVLW   0x00
Message[1301]: Using default destination of 0 (Access Bank).
00007C 6EE5           02004         MOVWF   POSTDEC1
00007E 0E00           02005         MOVLW   0x00
Message[1301]: Using default destination of 0 (Access Bank).
000080 6EE5           02006         MOVWF   POSTDEC1
000082 50??           02007         MOVF    r0x02, W
Message[1301]: Using default destination of 0 (Access Bank).
000084 6EE5           02008         MOVWF   POSTDEC1
000086 50??           02009         MOVF    r0x01, W
Message[1301]: Using default destination of 0 (Access Bank).
000088 6EE5           02010         MOVWF   POSTDEC1
00008A 50??           02011         MOVF    r0x00, W
Message[1301]: Using default destination of 0 (Access Bank).
00008C 6EE5           02012         MOVWF   POSTDEC1
gpasm-1.4.0 #1107 (May  9 2015) build/sdcc/pr   12-2-2016  22:31:29         PAGE 45


LOC    OBJECT CODE    LINE  SOURCE TEXT
  VALUE

00008E EC?? F0??      02013         CALL    _RF24N_write_m
Message[1301]: Using default destination of 0 (Access Bank).
000092 6E??           02014         MOVWF   r0x00
000094 0E08           02015         MOVLW   0x08
000096 26E1           02016         ADDWF   FSR1L, F
000098 B0D8           02017         BTFSC   STATUS, 0
00009A 2AE2           02018         INCF    FSR1H, F
00009C 50??           02019         MOVF    r0x00, W
00009E E0??           02020         BZ      _00448_DS_
                      02021 ;       .line   264; ../../RF24Mesh_cg.c        RF24N_begin(MESH_DEFAULT_ADDRESS);
0000A0 0E09           02022         MOVLW   0x09
Message[1301]: Using default destination of 0 (Access Bank).
0000A2 6EE5           02023         MOVWF   POSTDEC1
0000A4 0E24           02024         MOVLW   0x24
Message[1301]: Using default destination of 0 (Access Bank).
0000A6 6EE5           02025         MOVWF   POSTDEC1
0000A8 EC?? F0??      02026         CALL    _RF24N_begin
0000AC 52E6           02027         MOVF    POSTINC1, F
0000AE 52E6           02028         MOVF    POSTINC1, F
                      02029 ;       .line   265; ../../RF24Mesh_cg.c        mesh.mesh_address=MESH_DEFAULT_ADDRESS;
0000B0 0E24           02030         MOVLW   0x24
0000B2 ????           02031         BANKSEL (_mesh + 1)
0000B4 6F??           02032         MOVWF   (_mesh + 1), B
0000B6 0E09           02033         MOVLW   0x09
0000B8 ????           02034         BANKSEL (_mesh + 2)
0000BA 6F??           02035         MOVWF   (_mesh + 2), B
                      02036 ;       .line   266; ../../RF24Mesh_cg.c        return 1;
0000BC 0E01           02037         MOVLW   0x01
0000BE D???           02038         BRA     _00449_DS_
0000C0                02039 _00448_DS_:
                      02040 ;       .line   268; ../../RF24Mesh_cg.c        return 0;
Message[1301]: Using default destination of 0 (Access Bank).
0000C0 6AE8           02041         CLRF    WREG
0000C2                02042 _00449_DS_:
0000C2 CFE4 F000      02043         MOVFF   PREINC1, r0x02
0000C6 CFE4 F000      02044         MOVFF   PREINC1, r0x01
0000CA CFE4 F000      02045         MOVFF   PREINC1, r0x00
0000CE CFE4 FFD9      02046         MOVFF   PREINC1, FSR2L
0000D2 CFE4 FFDA      02047         MOVFF   PREINC1, FSR2H
0000D6 0012           02048         RETURN  
                      02049 
                      02050 ; ; Starting pCode block
                      02051 S_RF24Mesh_cg__RF24M_getNodeID  code
000000                02052 _RF24M_getNodeID:
                      02053 ;       .line   222; ../../RF24Mesh_cg.c        int16_t RF24M_getNodeID(uint16_t address){
000000 CFDA FFE5      02054         MOVFF   FSR2H, POSTDEC1
000004 CFD9 FFE5      02055         MOVFF   FSR2L, POSTDEC1
000008 CFE2 FFDA      02056         MOVFF   FSR1H, FSR2H
00000C CFE1 FFD9      02057         MOVFF   FSR1L, FSR2L
000010 C??? F???      02058         MOVFF   r0x00, POSTDEC1
000014 C??? F???      02059         MOVFF   r0x01, POSTDEC1
000018 C??? F???      02060         MOVFF   r0x02, POSTDEC1
00001C C??? F???      02061         MOVFF   r0x03, POSTDEC1
gpasm-1.4.0 #1107 (May  9 2015) build/sdcc/pr   12-2-2016  22:31:29         PAGE 46


LOC    OBJECT CODE    LINE  SOURCE TEXT
  VALUE

000020 C??? F???      02062         MOVFF   r0x04, POSTDEC1
000024 C??? F???      02063         MOVFF   r0x05, POSTDEC1
000028 C??? F???      02064         MOVFF   r0x06, POSTDEC1
00002C C??? F???      02065         MOVFF   r0x07, POSTDEC1
000030 C??? F???      02066         MOVFF   r0x08, POSTDEC1
000034 C??? F???      02067         MOVFF   r0x09, POSTDEC1
000038 C??? F???      02068         MOVFF   r0x0a, POSTDEC1
00003C 0E03           02069         MOVLW   0x03
00003E CFDB F000      02070         MOVFF   PLUSW2, _RF24M_getNodeID_address_1_243
000042 0E04           02071         MOVLW   0x04
000044 CFDB F000      02072         MOVFF   PLUSW2, (_RF24M_getNodeID_address_1_243 + 1)
000048 ????           02073         BANKSEL _RF24M_getNodeID_address_1_243
                      02074 ;       .line   224; ../../RF24Mesh_cg.c        if(address == MESH_BLANK_ID){
00004A 51??           02075         MOVF    _RF24M_getNodeID_address_1_243, W, B
00004C 0AFF           02076         XORLW   0xff
00004E E1??           02077         BNZ     _00431_DS_
000050 ????           02078         BANKSEL (_RF24M_getNodeID_address_1_243 + 1)
000052 51??           02079         MOVF    (_RF24M_getNodeID_address_1_243 + 1), W, B
000054 0AFF           02080         XORLW   0xff
000056 E0??           02081         BZ      _00432_DS_
000058                02082 _00431_DS_:
000058 D???           02083         BRA     _00376_DS_
00005A                02084 _00432_DS_:
                      02085 ;       .line   225; ../../RF24Mesh_cg.c        return mesh._nodeID;
00005A C??? F???      02086         MOVFF   _mesh, r0x00
Message[1301]: Using default destination of 0 (Access Bank).
00005E 6A??           02087         CLRF    r0x01
000060 C??? F???      02088         MOVFF   r0x01, PRODL
000064 50??           02089         MOVF    r0x00, W
000066 D???           02090         BRA     _00396_DS_
000068                02091 _00376_DS_:
000068 ????           02092         BANKSEL _RF24M_getNodeID_address_1_243
                      02093 ;       .line   227; ../../RF24Mesh_cg.c        if(address == 0){
00006A 51??           02094         MOVF    _RF24M_getNodeID_address_1_243, W, B
00006C ????           02095         BANKSEL (_RF24M_getNodeID_address_1_243 + 1)
00006E 11??           02096         IORWF   (_RF24M_getNodeID_address_1_243 + 1), W, B
000070 E1??           02097         BNZ     _00377_DS_
                      02098 ;       .line   228; ../../RF24Mesh_cg.c        return 0;
Message[1301]: Using default destination of 0 (Access Bank).
000072 6AF3           02099         CLRF    PRODL
Message[1301]: Using default destination of 0 (Access Bank).
000074 6AE8           02100         CLRF    WREG
000076 D???           02101         BRA     _00396_DS_
000078                02102 _00377_DS_:
                      02103 ;       .line   231; ../../RF24Mesh_cg.c        if(!mesh.mesh_address){ //Master Node
000078 C??? F???      02104         MOVFF   (_mesh + 1), r0x00
00007C C??? F???      02105         MOVFF   (_mesh + 2), r0x01
000080 50??           02106         MOVF    r0x00, W
000082 10??           02107         IORWF   r0x01, W
000084 A4D8           02108         BTFSS   STATUS, 2
000086 D???           02109         BRA     _00391_DS_
                      02110 ;       .line   233; ../../RF24Mesh_cg.c        for(i=0; i< mesh.addrListTop; i++){
Message[1301]: Using default destination of 0 (Access Bank).
gpasm-1.4.0 #1107 (May  9 2015) build/sdcc/pr   12-2-2016  22:31:29         PAGE 47


LOC    OBJECT CODE    LINE  SOURCE TEXT
  VALUE

000088 6A??           02111         CLRF    r0x02
Message[1301]: Using default destination of 0 (Access Bank).
00008A 6A??           02112         CLRF    r0x03
Message[1301]: Using default destination of 0 (Access Bank).
00008C 6A??           02113         CLRF    r0x04
00008E                02114 _00394_DS_:
00008E ????           02115         BANKSEL (_mesh + 6)
000090 51??           02116         MOVF    (_mesh + 6), W, B
000092 5C??           02117         SUBWF   r0x02, W
000094 B0D8           02118         BTFSC   STATUS, 0
000096 D???           02119         BRA     _00392_DS_
                      02120 ;       .line   234; ../../RF24Mesh_cg.c        if(mesh.addrList[i].address == address){
000098 50??           02121         MOVF    r0x03, W
00009A ????           02122         BANKSEL (_mesh + 3)
00009C 25??           02123         ADDWF   (_mesh + 3), W, B
Message[1301]: Using default destination of 0 (Access Bank).
00009E 6E??           02124         MOVWF   r0x05
0000A0 50??           02125         MOVF    r0x04, W
0000A2 ????           02126         BANKSEL (_mesh + 4)
0000A4 21??           02127         ADDWFC  (_mesh + 4), W, B
Message[1301]: Using default destination of 0 (Access Bank).
0000A6 6E??           02128         MOVWF   r0x06
Message[1301]: Using default destination of 0 (Access Bank).
0000A8 6AE8           02129         CLRF    WREG
0000AA ????           02130         BANKSEL (_mesh + 5)
0000AC 21??           02131         ADDWFC  (_mesh + 5), W, B
Message[1301]: Using default destination of 0 (Access Bank).
0000AE 6E??           02132         MOVWF   r0x07
0000B0 50??           02133         MOVF    r0x05, W
0000B2 0F01           02134         ADDLW   0x01
Message[1301]: Using default destination of 0 (Access Bank).
0000B4 6E??           02135         MOVWF   r0x08
0000B6 0E00           02136         MOVLW   0x00
0000B8 20??           02137         ADDWFC  r0x06, W
Message[1301]: Using default destination of 0 (Access Bank).
0000BA 6E??           02138         MOVWF   r0x09
0000BC 0E00           02139         MOVLW   0x00
0000BE 20??           02140         ADDWFC  r0x07, W
Message[1301]: Using default destination of 0 (Access Bank).
0000C0 6E??           02141         MOVWF   r0x0a
0000C2 C??? F???      02142         MOVFF   r0x08, FSR0L
0000C6 C??? F???      02143         MOVFF   r0x09, PRODL
0000CA 50??           02144         MOVF    r0x0a, W
0000CC EC?? F0??      02145         CALL    __gptrget2
Message[1301]: Using default destination of 0 (Access Bank).
0000D0 6E??           02146         MOVWF   r0x08
0000D2 CFF3 F000      02147         MOVFF   PRODL, r0x09
0000D6 50??           02148         MOVF    r0x08, W
0000D8 ????           02149         BANKSEL _RF24M_getNodeID_address_1_243
0000DA 19??           02150         XORWF   _RF24M_getNodeID_address_1_243, W, B
0000DC E1??           02151         BNZ     _00434_DS_
0000DE 50??           02152         MOVF    r0x09, W
0000E0 ????           02153         BANKSEL (_RF24M_getNodeID_address_1_243 + 1)
gpasm-1.4.0 #1107 (May  9 2015) build/sdcc/pr   12-2-2016  22:31:29         PAGE 48


LOC    OBJECT CODE    LINE  SOURCE TEXT
  VALUE

0000E2 19??           02154         XORWF   (_RF24M_getNodeID_address_1_243 + 1), W, B
0000E4 E0??           02155         BZ      _00435_DS_
0000E6                02156 _00434_DS_:
0000E6 D???           02157         BRA     _00395_DS_
0000E8                02158 _00435_DS_:
                      02159 ;       .line   235; ../../RF24Mesh_cg.c        return mesh.addrList[i].nodeID;
0000E8 C??? F???      02160         MOVFF   r0x05, FSR0L
0000EC C??? F???      02161         MOVFF   r0x06, PRODL
0000F0 50??           02162         MOVF    r0x07, W
0000F2 EC?? F0??      02163         CALL    __gptrget1
Message[1301]: Using default destination of 0 (Access Bank).
0000F6 6E??           02164         MOVWF   r0x05
Message[1301]: Using default destination of 0 (Access Bank).
0000F8 6A??           02165         CLRF    r0x06
0000FA C??? F???      02166         MOVFF   r0x06, PRODL
0000FE 50??           02167         MOVF    r0x05, W
000100 D???           02168         BRA     _00396_DS_
000102                02169 _00395_DS_:
                      02170 ;       .line   233; ../../RF24Mesh_cg.c        for(i=0; i< mesh.addrListTop; i++){
000102 0E03           02171         MOVLW   0x03
000104 26??           02172         ADDWF   r0x03, F
000106 B0D8           02173         BTFSC   STATUS, 0
000108 2A??           02174         INCF    r0x04, F
00010A 2A??           02175         INCF    r0x02, F
00010C D???           02176         BRA     _00394_DS_
00010E                02177 _00391_DS_:
                      02178 ;       .line   240; ../../RF24Mesh_cg.c        if(mesh.mesh_address == MESH_DEFAULT_ADDRESS){ return -1
                            ; }
00010E 50??           02179         MOVF    r0x00, W
000110 0A24           02180         XORLW   0x24
000112 E1??           02181         BNZ     _00436_DS_
000114 50??           02182         MOVF    r0x01, W
000116 0A09           02183         XORLW   0x09
000118 E0??           02184         BZ      _00437_DS_
00011A                02185 _00436_DS_:
00011A D???           02186         BRA     _00382_DS_
00011C                02187 _00437_DS_:
Message[1301]: Using default destination of 0 (Access Bank).
00011C 68F3           02188         SETF    PRODL
Message[1301]: Using default destination of 0 (Access Bank).
00011E 68E8           02189         SETF    WREG
000120 D???           02190         BRA     _00396_DS_
000122                02191 _00382_DS_:
                      02192 ;       .line   241; ../../RF24Mesh_cg.c        RF24NH_init(&header, 00, MESH_ID_LOOKUP );
000122 0E??           02193         MOVLW   HIGH(_RF24M_getNodeID_header_2_250)
Message[1301]: Using default destination of 0 (Access Bank).
000124 6E??           02194         MOVWF   r0x01
000126 0E??           02195         MOVLW   LOW(_RF24M_getNodeID_header_2_250)
Message[1301]: Using default destination of 0 (Access Bank).
000128 6E??           02196         MOVWF   r0x00
00012A 0E80           02197         MOVLW   0x80
Message[1301]: Using default destination of 0 (Access Bank).
00012C 6E??           02198         MOVWF   r0x02
gpasm-1.4.0 #1107 (May  9 2015) build/sdcc/pr   12-2-2016  22:31:29         PAGE 49


LOC    OBJECT CODE    LINE  SOURCE TEXT
  VALUE

00012E 0EC6           02199         MOVLW   0xc6
Message[1301]: Using default destination of 0 (Access Bank).
000130 6EE5           02200         MOVWF   POSTDEC1
000132 0E00           02201         MOVLW   0x00
Message[1301]: Using default destination of 0 (Access Bank).
000134 6EE5           02202         MOVWF   POSTDEC1
000136 0E00           02203         MOVLW   0x00
Message[1301]: Using default destination of 0 (Access Bank).
000138 6EE5           02204         MOVWF   POSTDEC1
00013A 50??           02205         MOVF    r0x02, W
Message[1301]: Using default destination of 0 (Access Bank).
00013C 6EE5           02206         MOVWF   POSTDEC1
00013E 50??           02207         MOVF    r0x01, W
Message[1301]: Using default destination of 0 (Access Bank).
000140 6EE5           02208         MOVWF   POSTDEC1
000142 50??           02209         MOVF    r0x00, W
Message[1301]: Using default destination of 0 (Access Bank).
000144 6EE5           02210         MOVWF   POSTDEC1
000146 EC?? F0??      02211         CALL    _RF24NH_init
00014A 0E06           02212         MOVLW   0x06
00014C 26E1           02213         ADDWF   FSR1L, F
00014E B0D8           02214         BTFSC   STATUS, 0
000150 2AE2           02215         INCF    FSR1H, F
                      02216 ;       .line   242; ../../RF24Mesh_cg.c        if(RF24N_write_m(&header,&address,sizeof(address)) ){
000152 0E??           02217         MOVLW   HIGH(_RF24M_getNodeID_header_2_250)
Message[1301]: Using default destination of 0 (Access Bank).
000154 6E??           02218         MOVWF   r0x01
000156 0E??           02219         MOVLW   LOW(_RF24M_getNodeID_header_2_250)
Message[1301]: Using default destination of 0 (Access Bank).
000158 6E??           02220         MOVWF   r0x00
00015A 0E80           02221         MOVLW   0x80
Message[1301]: Using default destination of 0 (Access Bank).
00015C 6E??           02222         MOVWF   r0x02
00015E 0E??           02223         MOVLW   HIGH(_RF24M_getNodeID_address_1_243)
Message[1301]: Using default destination of 0 (Access Bank).
000160 6E??           02224         MOVWF   r0x04
000162 0E??           02225         MOVLW   LOW(_RF24M_getNodeID_address_1_243)
Message[1301]: Using default destination of 0 (Access Bank).
000164 6E??           02226         MOVWF   r0x03
000166 0E80           02227         MOVLW   0x80
Message[1301]: Using default destination of 0 (Access Bank).
000168 6E??           02228         MOVWF   r0x05
00016A 0E00           02229         MOVLW   0x00
Message[1301]: Using default destination of 0 (Access Bank).
00016C 6EE5           02230         MOVWF   POSTDEC1
00016E 0E02           02231         MOVLW   0x02
Message[1301]: Using default destination of 0 (Access Bank).
000170 6EE5           02232         MOVWF   POSTDEC1
000172 50??           02233         MOVF    r0x05, W
Message[1301]: Using default destination of 0 (Access Bank).
000174 6EE5           02234         MOVWF   POSTDEC1
000176 50??           02235         MOVF    r0x04, W
Message[1301]: Using default destination of 0 (Access Bank).
gpasm-1.4.0 #1107 (May  9 2015) build/sdcc/pr   12-2-2016  22:31:29         PAGE 50


LOC    OBJECT CODE    LINE  SOURCE TEXT
  VALUE

000178 6EE5           02236         MOVWF   POSTDEC1
00017A 50??           02237         MOVF    r0x03, W
Message[1301]: Using default destination of 0 (Access Bank).
00017C 6EE5           02238         MOVWF   POSTDEC1
00017E 50??           02239         MOVF    r0x02, W
Message[1301]: Using default destination of 0 (Access Bank).
000180 6EE5           02240         MOVWF   POSTDEC1
000182 50??           02241         MOVF    r0x01, W
Message[1301]: Using default destination of 0 (Access Bank).
000184 6EE5           02242         MOVWF   POSTDEC1
000186 50??           02243         MOVF    r0x00, W
Message[1301]: Using default destination of 0 (Access Bank).
000188 6EE5           02244         MOVWF   POSTDEC1
00018A EC?? F0??      02245         CALL    _RF24N_write_m
Message[1301]: Using default destination of 0 (Access Bank).
00018E 6E??           02246         MOVWF   r0x00
000190 0E08           02247         MOVLW   0x08
000192 26E1           02248         ADDWF   FSR1L, F
000194 B0D8           02249         BTFSC   STATUS, 0
000196 2AE2           02250         INCF    FSR1H, F
000198 50??           02251         MOVF    r0x00, W
00019A B4D8           02252         BTFSC   STATUS, 2
00019C D???           02253         BRA     _00392_DS_
                      02254 ;       .line   243; ../../RF24Mesh_cg.c        uint32_t timer=millis(), timeout = 500; 
00019E EC?? F0??      02255         CALL    _millis
Message[1301]: Using default destination of 0 (Access Bank).
0001A2 6E??           02256         MOVWF   r0x00
0001A4 CFF3 F000      02257         MOVFF   PRODL, r0x01
0001A8 CFF4 F000      02258         MOVFF   PRODH, r0x02
0001AC CFE9 F000      02259         MOVFF   FSR0L, r0x03
0001B0                02260 _00385_DS_:
                      02261 ;       .line   245; ../../RF24Mesh_cg.c        while(RF24N_update() != MESH_ID_LOOKUP){            
0001B0 EC?? F0??      02262         CALL    _RF24N_update
Message[1301]: Using default destination of 0 (Access Bank).
0001B4 6E??           02263         MOVWF   r0x04
0001B6 50??           02264         MOVF    r0x04, W
0001B8 0AC6           02265         XORLW   0xc6
0001BA E0??           02266         BZ      _00387_DS_
                      02267 ;       .line   246; ../../RF24Mesh_cg.c        if(millis()-timer > timeout){ return -1; }
0001BC EC?? F0??      02268         CALL    _millis
Message[1301]: Using default destination of 0 (Access Bank).
0001C0 6E??           02269         MOVWF   r0x04
0001C2 CFF3 F000      02270         MOVFF   PRODL, r0x05
0001C6 CFF4 F000      02271         MOVFF   PRODH, r0x06
0001CA CFE9 F000      02272         MOVFF   FSR0L, r0x07
0001CE 50??           02273         MOVF    r0x00, W
0001D0 5E??           02274         SUBWF   r0x04, F
0001D2 50??           02275         MOVF    r0x01, W
0001D4 5A??           02276         SUBWFB  r0x05, F
0001D6 50??           02277         MOVF    r0x02, W
0001D8 5A??           02278         SUBWFB  r0x06, F
0001DA 50??           02279         MOVF    r0x03, W
0001DC 5A??           02280         SUBWFB  r0x07, F
gpasm-1.4.0 #1107 (May  9 2015) build/sdcc/pr   12-2-2016  22:31:29         PAGE 51


LOC    OBJECT CODE    LINE  SOURCE TEXT
  VALUE

0001DE 0E00           02281         MOVLW   0x00
0001E0 5C??           02282         SUBWF   r0x07, W
0001E2 E1??           02283         BNZ     _00440_DS_
0001E4 0E00           02284         MOVLW   0x00
0001E6 5C??           02285         SUBWF   r0x06, W
0001E8 E1??           02286         BNZ     _00440_DS_
0001EA 0E01           02287         MOVLW   0x01
0001EC 5C??           02288         SUBWF   r0x05, W
0001EE E1??           02289         BNZ     _00440_DS_
0001F0 0EF5           02290         MOVLW   0xf5
0001F2 5C??           02291         SUBWF   r0x04, W
0001F4                02292 _00440_DS_:
0001F4 E3??           02293         BNC     _00385_DS_
Message[1301]: Using default destination of 0 (Access Bank).
0001F6 68F3           02294         SETF    PRODL
Message[1301]: Using default destination of 0 (Access Bank).
0001F8 68E8           02295         SETF    WREG
0001FA D???           02296         BRA     _00396_DS_
0001FC                02297 _00387_DS_:
                      02298 ;       .line   249; ../../RF24Mesh_cg.c        memcpy(&ID,&RF24N_getFrame_buffer()[sizeof(RF24NetworkHe
                            ader)],sizeof(ID));
0001FC 0E??           02299         MOVLW   HIGH(_RF24M_getNodeID_ID_3_252)
Message[1301]: Using default destination of 0 (Access Bank).
0001FE 6E??           02300         MOVWF   r0x01
000200 0E??           02301         MOVLW   LOW(_RF24M_getNodeID_ID_3_252)
Message[1301]: Using default destination of 0 (Access Bank).
000202 6E??           02302         MOVWF   r0x00
000204 0E80           02303         MOVLW   0x80
Message[1301]: Using default destination of 0 (Access Bank).
000206 6E??           02304         MOVWF   r0x02
000208 EC?? F0??      02305         CALL    _RF24N_getFrame_buffer
Message[1301]: Using default destination of 0 (Access Bank).
00020C 6E??           02306         MOVWF   r0x03
00020E CFF3 F000      02307         MOVFF   PRODL, r0x04
000212 CFF4 F000      02308         MOVFF   PRODH, r0x05
000216 0E08           02309         MOVLW   0x08
000218 26??           02310         ADDWF   r0x03, F
00021A 0E00           02311         MOVLW   0x00
00021C 22??           02312         ADDWFC  r0x04, F
00021E 22??           02313         ADDWFC  r0x05, F
000220 50??           02314         MOVF    r0x05, W
Message[1301]: Using default destination of 0 (Access Bank).
000222 6E??           02315         MOVWF   r0x05
000224 50??           02316         MOVF    r0x04, W
Message[1301]: Using default destination of 0 (Access Bank).
000226 6E??           02317         MOVWF   r0x04
000228 50??           02318         MOVF    r0x03, W
Message[1301]: Using default destination of 0 (Access Bank).
00022A 6E??           02319         MOVWF   r0x03
00022C 0E00           02320         MOVLW   0x00
Message[1301]: Using default destination of 0 (Access Bank).
00022E 6EE5           02321         MOVWF   POSTDEC1
000230 0E02           02322         MOVLW   0x02
gpasm-1.4.0 #1107 (May  9 2015) build/sdcc/pr   12-2-2016  22:31:29         PAGE 52


LOC    OBJECT CODE    LINE  SOURCE TEXT
  VALUE

Message[1301]: Using default destination of 0 (Access Bank).
000232 6EE5           02323         MOVWF   POSTDEC1
000234 50??           02324         MOVF    r0x05, W
Message[1301]: Using default destination of 0 (Access Bank).
000236 6EE5           02325         MOVWF   POSTDEC1
000238 50??           02326         MOVF    r0x04, W
Message[1301]: Using default destination of 0 (Access Bank).
00023A 6EE5           02327         MOVWF   POSTDEC1
00023C 50??           02328         MOVF    r0x03, W
Message[1301]: Using default destination of 0 (Access Bank).
00023E 6EE5           02329         MOVWF   POSTDEC1
000240 50??           02330         MOVF    r0x02, W
Message[1301]: Using default destination of 0 (Access Bank).
000242 6EE5           02331         MOVWF   POSTDEC1
000244 50??           02332         MOVF    r0x01, W
Message[1301]: Using default destination of 0 (Access Bank).
000246 6EE5           02333         MOVWF   POSTDEC1
000248 50??           02334         MOVF    r0x00, W
Message[1301]: Using default destination of 0 (Access Bank).
00024A 6EE5           02335         MOVWF   POSTDEC1
00024C EC?? F0??      02336         CALL    _memcpy
000250 0E08           02337         MOVLW   0x08
000252 26E1           02338         ADDWF   FSR1L, F
000254 B0D8           02339         BTFSC   STATUS, 0
000256 2AE2           02340         INCF    FSR1H, F
                      02341 ;       .line   250; ../../RF24Mesh_cg.c        return ID;
000258 C??? F???      02342         MOVFF   (_RF24M_getNodeID_ID_3_252 + 1), PRODL
00025C ????           02343         BANKSEL _RF24M_getNodeID_ID_3_252
00025E 51??           02344         MOVF    _RF24M_getNodeID_ID_3_252, W, B
000260 D???           02345         BRA     _00396_DS_
000262                02346 _00392_DS_:
                      02347 ;       .line   253; ../../RF24Mesh_cg.c        return -1;
Message[1301]: Using default destination of 0 (Access Bank).
000262 68F3           02348         SETF    PRODL
Message[1301]: Using default destination of 0 (Access Bank).
000264 68E8           02349         SETF    WREG
000266                02350 _00396_DS_:
000266 CFE4 F000      02351         MOVFF   PREINC1, r0x0a
00026A CFE4 F000      02352         MOVFF   PREINC1, r0x09
00026E CFE4 F000      02353         MOVFF   PREINC1, r0x08
000272 CFE4 F000      02354         MOVFF   PREINC1, r0x07
000276 CFE4 F000      02355         MOVFF   PREINC1, r0x06
00027A CFE4 F000      02356         MOVFF   PREINC1, r0x05
00027E CFE4 F000      02357         MOVFF   PREINC1, r0x04
000282 CFE4 F000      02358         MOVFF   PREINC1, r0x03
000286 CFE4 F000      02359         MOVFF   PREINC1, r0x02
00028A CFE4 F000      02360         MOVFF   PREINC1, r0x01
00028E CFE4 F000      02361         MOVFF   PREINC1, r0x00
000292 CFE4 FFD9      02362         MOVFF   PREINC1, FSR2L
000296 CFE4 FFDA      02363         MOVFF   PREINC1, FSR2H
00029A 0012           02364         RETURN  
                      02365 
                      02366 ; ; Starting pCode block
gpasm-1.4.0 #1107 (May  9 2015) build/sdcc/pr   12-2-2016  22:31:29         PAGE 53


LOC    OBJECT CODE    LINE  SOURCE TEXT
  VALUE

                      02367 S_RF24Mesh_cg__RF24M_getAddress code
000000                02368 _RF24M_getAddress:
                      02369 ;       .line   187; ../../RF24Mesh_cg.c        int16_t RF24M_getAddress(uint8_t nodeID){
000000 CFDA FFE5      02370         MOVFF   FSR2H, POSTDEC1
000004 CFD9 FFE5      02371         MOVFF   FSR2L, POSTDEC1
000008 CFE2 FFDA      02372         MOVFF   FSR1H, FSR2H
00000C CFE1 FFD9      02373         MOVFF   FSR1L, FSR2L
000010 C??? F???      02374         MOVFF   r0x00, POSTDEC1
000014 C??? F???      02375         MOVFF   r0x01, POSTDEC1
000018 C??? F???      02376         MOVFF   r0x02, POSTDEC1
00001C C??? F???      02377         MOVFF   r0x03, POSTDEC1
000020 C??? F???      02378         MOVFF   r0x04, POSTDEC1
000024 C??? F???      02379         MOVFF   r0x05, POSTDEC1
000028 C??? F???      02380         MOVFF   r0x06, POSTDEC1
00002C C??? F???      02381         MOVFF   r0x07, POSTDEC1
000030 C??? F???      02382         MOVFF   r0x08, POSTDEC1
000034 0E03           02383         MOVLW   0x03
000036 CFDB F000      02384         MOVFF   PLUSW2, _RF24M_getAddress_nodeID_1_232
00003A ????           02385         BANKSEL _RF24M_getAddress_address_1_233
                      02386 ;       .line   188; ../../RF24Mesh_cg.c        int16_t address = 0;
00003C 6B??           02387         CLRF    _RF24M_getAddress_address_1_233, B
00003E ????           02388         BANKSEL (_RF24M_getAddress_address_1_233 + 1)
000040 6B??           02389         CLRF    (_RF24M_getAddress_address_1_233 + 1), B
                      02390 ;       .line   192; ../../RF24Mesh_cg.c        if(!RF24M_getNodeID(MESH_BLANK_ID)){ //Master Node
000042 0EFF           02391         MOVLW   0xff
Message[1301]: Using default destination of 0 (Access Bank).
000044 6EE5           02392         MOVWF   POSTDEC1
000046 0EFF           02393         MOVLW   0xff
Message[1301]: Using default destination of 0 (Access Bank).
000048 6EE5           02394         MOVWF   POSTDEC1
00004A EC?? F0??      02395         CALL    _RF24M_getNodeID
Message[1301]: Using default destination of 0 (Access Bank).
00004E 6E??           02396         MOVWF   r0x00
000050 CFF3 F000      02397         MOVFF   PRODL, r0x01
000054 52E6           02398         MOVF    POSTINC1, F
000056 52E6           02399         MOVF    POSTINC1, F
000058 50??           02400         MOVF    r0x00, W
00005A 10??           02401         IORWF   r0x01, W
00005C A4D8           02402         BTFSS   STATUS, 2
00005E D???           02403         BRA     _00307_DS_
000060 ????           02404         BANKSEL _RF24M_getAddress_address_1_233
                      02405 ;       .line   194; ../../RF24Mesh_cg.c        address = 0;
000062 6B??           02406         CLRF    _RF24M_getAddress_address_1_233, B
000064 ????           02407         BANKSEL (_RF24M_getAddress_address_1_233 + 1)
000066 6B??           02408         CLRF    (_RF24M_getAddress_address_1_233 + 1), B
                      02409 ;       .line   196; ../../RF24Mesh_cg.c        for(i=0; i< mesh.addrListTop; i++){
Message[1301]: Using default destination of 0 (Access Bank).
000068 6A??           02410         CLRF    r0x00
Message[1301]: Using default destination of 0 (Access Bank).
00006A 6A??           02411         CLRF    r0x01
Message[1301]: Using default destination of 0 (Access Bank).
00006C 6A??           02412         CLRF    r0x02
00006E                02413 _00321_DS_:
gpasm-1.4.0 #1107 (May  9 2015) build/sdcc/pr   12-2-2016  22:31:29         PAGE 54


LOC    OBJECT CODE    LINE  SOURCE TEXT
  VALUE

00006E ????           02414         BANKSEL (_mesh + 6)
000070 51??           02415         MOVF    (_mesh + 6), W, B
000072 5C??           02416         SUBWF   r0x00, W
000074 B0D8           02417         BTFSC   STATUS, 0
000076 D???           02418         BRA     _00305_DS_
                      02419 ;       .line   197; ../../RF24Mesh_cg.c        if(mesh.addrList[i].nodeID == nodeID){
000078 C??? F???      02420         MOVFF   (_mesh + 3), r0x03
00007C C??? F???      02421         MOVFF   (_mesh + 4), r0x04
000080 C??? F???      02422         MOVFF   (_mesh + 5), r0x05
000084 50??           02423         MOVF    r0x01, W
000086 24??           02424         ADDWF   r0x03, W
Message[1301]: Using default destination of 0 (Access Bank).
000088 6E??           02425         MOVWF   r0x06
00008A 50??           02426         MOVF    r0x02, W
00008C 20??           02427         ADDWFC  r0x04, W
Message[1301]: Using default destination of 0 (Access Bank).
00008E 6E??           02428         MOVWF   r0x07
Message[1301]: Using default destination of 0 (Access Bank).
000090 6AE8           02429         CLRF    WREG
000092 20??           02430         ADDWFC  r0x05, W
Message[1301]: Using default destination of 0 (Access Bank).
000094 6E??           02431         MOVWF   r0x08
000096 C??? F???      02432         MOVFF   r0x06, FSR0L
00009A C??? F???      02433         MOVFF   r0x07, PRODL
00009E 50??           02434         MOVF    r0x08, W
0000A0 EC?? F0??      02435         CALL    __gptrget1
Message[1301]: Using default destination of 0 (Access Bank).
0000A4 6E??           02436         MOVWF   r0x06
0000A6 50??           02437         MOVF    r0x06, W
0000A8 ????           02438         BANKSEL _RF24M_getAddress_nodeID_1_232
0000AA 19??           02439         XORWF   _RF24M_getAddress_nodeID_1_232, W, B
0000AC E1??           02440         BNZ     _00322_DS_
                      02441 ;       .line   198; ../../RF24Mesh_cg.c        address = mesh.addrList[i].address;
0000AE 50??           02442         MOVF    r0x01, W
0000B0 26??           02443         ADDWF   r0x03, F
0000B2 50??           02444         MOVF    r0x02, W
0000B4 22??           02445         ADDWFC  r0x04, F
Message[1301]: Using default destination of 0 (Access Bank).
0000B6 6AE8           02446         CLRF    WREG
0000B8 22??           02447         ADDWFC  r0x05, F
0000BA 2A??           02448         INCF    r0x03, F
0000BC E3??           02449         BNC     _00363_DS_
0000BE 4A??           02450         INFSNZ  r0x04, F
0000C0 2A??           02451         INCF    r0x05, F
0000C2                02452 _00363_DS_:
0000C2 C??? F???      02453         MOVFF   r0x03, FSR0L
0000C6 C??? F???      02454         MOVFF   r0x04, PRODL
0000CA 50??           02455         MOVF    r0x05, W
0000CC EC?? F0??      02456         CALL    __gptrget2
Message[1301]: Using default destination of 0 (Access Bank).
0000D0 6E??           02457         MOVWF   r0x03
0000D2 CFF3 F000      02458         MOVFF   PRODL, r0x04
0000D6 C??? F???      02459         MOVFF   r0x03, _RF24M_getAddress_address_1_233
gpasm-1.4.0 #1107 (May  9 2015) build/sdcc/pr   12-2-2016  22:31:29         PAGE 55


LOC    OBJECT CODE    LINE  SOURCE TEXT
  VALUE

0000DA C??? F???      02460         MOVFF   r0x04, (_RF24M_getAddress_address_1_233 + 1)
                      02461 ;       .line   199; ../../RF24Mesh_cg.c        return address;
0000DE C??? F???      02462         MOVFF   r0x04, PRODL
0000E2 50??           02463         MOVF    r0x03, W
0000E4 D???           02464         BRA     _00323_DS_
0000E6                02465 _00322_DS_:
                      02466 ;       .line   196; ../../RF24Mesh_cg.c        for(i=0; i< mesh.addrListTop; i++){
0000E6 0E03           02467         MOVLW   0x03
0000E8 26??           02468         ADDWF   r0x01, F
0000EA B0D8           02469         BTFSC   STATUS, 0
0000EC 2A??           02470         INCF    r0x02, F
0000EE 2A??           02471         INCF    r0x00, F
0000F0 D???           02472         BRA     _00321_DS_
0000F2                02473 _00305_DS_:
                      02474 ;       .line   202; ../../RF24Mesh_cg.c        return -1;
Message[1301]: Using default destination of 0 (Access Bank).
0000F2 68F3           02475         SETF    PRODL
Message[1301]: Using default destination of 0 (Access Bank).
0000F4 68E8           02476         SETF    WREG
0000F6 D???           02477         BRA     _00323_DS_
0000F8                02478 _00307_DS_:
0000F8 ????           02479         BANKSEL (_mesh + 1)
                      02480 ;       .line   205; ../../RF24Mesh_cg.c        if(mesh.mesh_address == MESH_DEFAULT_ADDRESS){ return -1
                            ; }
0000FA 51??           02481         MOVF    (_mesh + 1), W, B
0000FC 0A24           02482         XORLW   0x24
0000FE E1??           02483         BNZ     _00364_DS_
000100 ????           02484         BANKSEL (_mesh + 2)
000102 51??           02485         MOVF    (_mesh + 2), W, B
000104 0A09           02486         XORLW   0x09
000106 E0??           02487         BZ      _00365_DS_
000108                02488 _00364_DS_:
000108 D???           02489         BRA     _00309_DS_
00010A                02490 _00365_DS_:
Message[1301]: Using default destination of 0 (Access Bank).
00010A 68F3           02491         SETF    PRODL
Message[1301]: Using default destination of 0 (Access Bank).
00010C 68E8           02492         SETF    WREG
00010E D???           02493         BRA     _00323_DS_
000110                02494 _00309_DS_:
000110 ????           02495         BANKSEL _RF24M_getAddress_nodeID_1_232
                      02496 ;       .line   206; ../../RF24Mesh_cg.c        if(!nodeID){return 0;}
000112 51??           02497         MOVF    _RF24M_getAddress_nodeID_1_232, W, B
000114 E1??           02498         BNZ     _00311_DS_
Message[1301]: Using default destination of 0 (Access Bank).
000116 6AF3           02499         CLRF    PRODL
Message[1301]: Using default destination of 0 (Access Bank).
000118 6AE8           02500         CLRF    WREG
00011A D???           02501         BRA     _00323_DS_
00011C                02502 _00311_DS_:
                      02503 ;       .line   208; ../../RF24Mesh_cg.c        RF24NH_init(&header, 00, MESH_ADDR_LOOKUP );
00011C 0E??           02504         MOVLW   HIGH(_RF24M_getAddress_header_1_233)
Message[1301]: Using default destination of 0 (Access Bank).
gpasm-1.4.0 #1107 (May  9 2015) build/sdcc/pr   12-2-2016  22:31:29         PAGE 56


LOC    OBJECT CODE    LINE  SOURCE TEXT
  VALUE

00011E 6E??           02505         MOVWF   r0x01
000120 0E??           02506         MOVLW   LOW(_RF24M_getAddress_header_1_233)
Message[1301]: Using default destination of 0 (Access Bank).
000122 6E??           02507         MOVWF   r0x00
000124 0E80           02508         MOVLW   0x80
Message[1301]: Using default destination of 0 (Access Bank).
000126 6E??           02509         MOVWF   r0x02
000128 0EC4           02510         MOVLW   0xc4
Message[1301]: Using default destination of 0 (Access Bank).
00012A 6EE5           02511         MOVWF   POSTDEC1
00012C 0E00           02512         MOVLW   0x00
Message[1301]: Using default destination of 0 (Access Bank).
00012E 6EE5           02513         MOVWF   POSTDEC1
000130 0E00           02514         MOVLW   0x00
Message[1301]: Using default destination of 0 (Access Bank).
000132 6EE5           02515         MOVWF   POSTDEC1
000134 50??           02516         MOVF    r0x02, W
Message[1301]: Using default destination of 0 (Access Bank).
000136 6EE5           02517         MOVWF   POSTDEC1
000138 50??           02518         MOVF    r0x01, W
Message[1301]: Using default destination of 0 (Access Bank).
00013A 6EE5           02519         MOVWF   POSTDEC1
00013C 50??           02520         MOVF    r0x00, W
Message[1301]: Using default destination of 0 (Access Bank).
00013E 6EE5           02521         MOVWF   POSTDEC1
000140 EC?? F0??      02522         CALL    _RF24NH_init
000144 0E06           02523         MOVLW   0x06
000146 26E1           02524         ADDWF   FSR1L, F
000148 B0D8           02525         BTFSC   STATUS, 0
00014A 2AE2           02526         INCF    FSR1H, F
                      02527 ;       .line   209; ../../RF24Mesh_cg.c        if(RF24N_write_m(&header,&nodeID,sizeof(nodeID)+1) ){
00014C 0E??           02528         MOVLW   HIGH(_RF24M_getAddress_header_1_233)
Message[1301]: Using default destination of 0 (Access Bank).
00014E 6E??           02529         MOVWF   r0x01
000150 0E??           02530         MOVLW   LOW(_RF24M_getAddress_header_1_233)
Message[1301]: Using default destination of 0 (Access Bank).
000152 6E??           02531         MOVWF   r0x00
000154 0E80           02532         MOVLW   0x80
Message[1301]: Using default destination of 0 (Access Bank).
000156 6E??           02533         MOVWF   r0x02
000158 0E??           02534         MOVLW   HIGH(_RF24M_getAddress_nodeID_1_232)
Message[1301]: Using default destination of 0 (Access Bank).
00015A 6E??           02535         MOVWF   r0x04
00015C 0E??           02536         MOVLW   LOW(_RF24M_getAddress_nodeID_1_232)
Message[1301]: Using default destination of 0 (Access Bank).
00015E 6E??           02537         MOVWF   r0x03
000160 0E80           02538         MOVLW   0x80
Message[1301]: Using default destination of 0 (Access Bank).
000162 6E??           02539         MOVWF   r0x05
000164 0E00           02540         MOVLW   0x00
Message[1301]: Using default destination of 0 (Access Bank).
000166 6EE5           02541         MOVWF   POSTDEC1
000168 0E02           02542         MOVLW   0x02
gpasm-1.4.0 #1107 (May  9 2015) build/sdcc/pr   12-2-2016  22:31:29         PAGE 57


LOC    OBJECT CODE    LINE  SOURCE TEXT
  VALUE

Message[1301]: Using default destination of 0 (Access Bank).
00016A 6EE5           02543         MOVWF   POSTDEC1
00016C 50??           02544         MOVF    r0x05, W
Message[1301]: Using default destination of 0 (Access Bank).
00016E 6EE5           02545         MOVWF   POSTDEC1
000170 50??           02546         MOVF    r0x04, W
Message[1301]: Using default destination of 0 (Access Bank).
000172 6EE5           02547         MOVWF   POSTDEC1
000174 50??           02548         MOVF    r0x03, W
Message[1301]: Using default destination of 0 (Access Bank).
000176 6EE5           02549         MOVWF   POSTDEC1
000178 50??           02550         MOVF    r0x02, W
Message[1301]: Using default destination of 0 (Access Bank).
00017A 6EE5           02551         MOVWF   POSTDEC1
00017C 50??           02552         MOVF    r0x01, W
Message[1301]: Using default destination of 0 (Access Bank).
00017E 6EE5           02553         MOVWF   POSTDEC1
000180 50??           02554         MOVF    r0x00, W
Message[1301]: Using default destination of 0 (Access Bank).
000182 6EE5           02555         MOVWF   POSTDEC1
000184 EC?? F0??      02556         CALL    _RF24N_write_m
Message[1301]: Using default destination of 0 (Access Bank).
000188 6E??           02557         MOVWF   r0x00
00018A 0E08           02558         MOVLW   0x08
00018C 26E1           02559         ADDWF   FSR1L, F
00018E B0D8           02560         BTFSC   STATUS, 0
000190 2AE2           02561         INCF    FSR1H, F
000192 50??           02562         MOVF    r0x00, W
000194 E0??           02563         BZ      _00318_DS_
                      02564 ;       .line   210; ../../RF24Mesh_cg.c        uint32_t timer=millis(), timeout = 150;         
000196 EC?? F0??      02565         CALL    _millis
Message[1301]: Using default destination of 0 (Access Bank).
00019A 6E??           02566         MOVWF   r0x00
00019C CFF3 F000      02567         MOVFF   PRODL, r0x01
0001A0 CFF4 F000      02568         MOVFF   PRODH, r0x02
0001A4 CFE9 F000      02569         MOVFF   FSR0L, r0x03
0001A8                02570 _00314_DS_:
                      02571 ;       .line   211; ../../RF24Mesh_cg.c        while(RF24N_update() != MESH_ADDR_LOOKUP){
0001A8 EC?? F0??      02572         CALL    _RF24N_update
Message[1301]: Using default destination of 0 (Access Bank).
0001AC 6E??           02573         MOVWF   r0x04
0001AE 50??           02574         MOVF    r0x04, W
0001B0 0AC4           02575         XORLW   0xc4
0001B2 E0??           02576         BZ      _00319_DS_
                      02577 ;       .line   212; ../../RF24Mesh_cg.c        if(millis()-timer > timeout){ return -1; }
0001B4 EC?? F0??      02578         CALL    _millis
Message[1301]: Using default destination of 0 (Access Bank).
0001B8 6E??           02579         MOVWF   r0x04
0001BA CFF3 F000      02580         MOVFF   PRODL, r0x05
0001BE CFF4 F000      02581         MOVFF   PRODH, r0x06
0001C2 CFE9 F000      02582         MOVFF   FSR0L, r0x07
0001C6 50??           02583         MOVF    r0x00, W
0001C8 5E??           02584         SUBWF   r0x04, F
gpasm-1.4.0 #1107 (May  9 2015) build/sdcc/pr   12-2-2016  22:31:29         PAGE 58


LOC    OBJECT CODE    LINE  SOURCE TEXT
  VALUE

0001CA 50??           02585         MOVF    r0x01, W
0001CC 5A??           02586         SUBWFB  r0x05, F
0001CE 50??           02587         MOVF    r0x02, W
0001D0 5A??           02588         SUBWFB  r0x06, F
0001D2 50??           02589         MOVF    r0x03, W
0001D4 5A??           02590         SUBWFB  r0x07, F
0001D6 0E00           02591         MOVLW   0x00
0001D8 5C??           02592         SUBWF   r0x07, W
0001DA E1??           02593         BNZ     _00368_DS_
0001DC 0E00           02594         MOVLW   0x00
0001DE 5C??           02595         SUBWF   r0x06, W
0001E0 E1??           02596         BNZ     _00368_DS_
0001E2 0E00           02597         MOVLW   0x00
0001E4 5C??           02598         SUBWF   r0x05, W
0001E6 E1??           02599         BNZ     _00368_DS_
0001E8 0E97           02600         MOVLW   0x97
0001EA 5C??           02601         SUBWF   r0x04, W
0001EC                02602 _00368_DS_:
0001EC E3??           02603         BNC     _00314_DS_
Message[1301]: Using default destination of 0 (Access Bank).
0001EE 68F3           02604         SETF    PRODL
Message[1301]: Using default destination of 0 (Access Bank).
0001F0 68E8           02605         SETF    WREG
0001F2 D???           02606         BRA     _00323_DS_
0001F4                02607 _00318_DS_:
                      02608 ;       .line   215; ../../RF24Mesh_cg.c        return -1;
Message[1301]: Using default destination of 0 (Access Bank).
0001F4 68F3           02609         SETF    PRODL
Message[1301]: Using default destination of 0 (Access Bank).
0001F6 68E8           02610         SETF    WREG
0001F8 D???           02611         BRA     _00323_DS_
0001FA                02612 _00319_DS_:
0001FA ????           02613         BANKSEL _RF24M_getAddress_address_1_233
                      02614 ;       .line   217; ../../RF24Mesh_cg.c        address = 0;
0001FC 6B??           02615         CLRF    _RF24M_getAddress_address_1_233, B
0001FE ????           02616         BANKSEL (_RF24M_getAddress_address_1_233 + 1)
000200 6B??           02617         CLRF    (_RF24M_getAddress_address_1_233 + 1), B
                      02618 ;       .line   218; ../../RF24Mesh_cg.c        memcpy(&address,RF24N_getFrame_buffer()+sizeof(RF24Netwo
                            rkHeader),sizeof(address));
000202 0E??           02619         MOVLW   HIGH(_RF24M_getAddress_address_1_233)
Message[1301]: Using default destination of 0 (Access Bank).
000204 6E??           02620         MOVWF   r0x01
000206 0E??           02621         MOVLW   LOW(_RF24M_getAddress_address_1_233)
Message[1301]: Using default destination of 0 (Access Bank).
000208 6E??           02622         MOVWF   r0x00
00020A 0E80           02623         MOVLW   0x80
Message[1301]: Using default destination of 0 (Access Bank).
00020C 6E??           02624         MOVWF   r0x02
00020E EC?? F0??      02625         CALL    _RF24N_getFrame_buffer
Message[1301]: Using default destination of 0 (Access Bank).
000212 6E??           02626         MOVWF   r0x03
000214 CFF3 F000      02627         MOVFF   PRODL, r0x04
000218 CFF4 F000      02628         MOVFF   PRODH, r0x05
gpasm-1.4.0 #1107 (May  9 2015) build/sdcc/pr   12-2-2016  22:31:29         PAGE 59


LOC    OBJECT CODE    LINE  SOURCE TEXT
  VALUE

00021C 0E08           02629         MOVLW   0x08
00021E 26??           02630         ADDWF   r0x03, F
000220 0E00           02631         MOVLW   0x00
000222 22??           02632         ADDWFC  r0x04, F
000224 22??           02633         ADDWFC  r0x05, F
000226 50??           02634         MOVF    r0x05, W
Message[1301]: Using default destination of 0 (Access Bank).
000228 6E??           02635         MOVWF   r0x05
00022A 50??           02636         MOVF    r0x04, W
Message[1301]: Using default destination of 0 (Access Bank).
00022C 6E??           02637         MOVWF   r0x04
00022E 50??           02638         MOVF    r0x03, W
Message[1301]: Using default destination of 0 (Access Bank).
000230 6E??           02639         MOVWF   r0x03
000232 0E00           02640         MOVLW   0x00
Message[1301]: Using default destination of 0 (Access Bank).
000234 6EE5           02641         MOVWF   POSTDEC1
000236 0E02           02642         MOVLW   0x02
Message[1301]: Using default destination of 0 (Access Bank).
000238 6EE5           02643         MOVWF   POSTDEC1
00023A 50??           02644         MOVF    r0x05, W
Message[1301]: Using default destination of 0 (Access Bank).
00023C 6EE5           02645         MOVWF   POSTDEC1
00023E 50??           02646         MOVF    r0x04, W
Message[1301]: Using default destination of 0 (Access Bank).
000240 6EE5           02647         MOVWF   POSTDEC1
000242 50??           02648         MOVF    r0x03, W
Message[1301]: Using default destination of 0 (Access Bank).
000244 6EE5           02649         MOVWF   POSTDEC1
000246 50??           02650         MOVF    r0x02, W
Message[1301]: Using default destination of 0 (Access Bank).
000248 6EE5           02651         MOVWF   POSTDEC1
00024A 50??           02652         MOVF    r0x01, W
Message[1301]: Using default destination of 0 (Access Bank).
00024C 6EE5           02653         MOVWF   POSTDEC1
00024E 50??           02654         MOVF    r0x00, W
Message[1301]: Using default destination of 0 (Access Bank).
000250 6EE5           02655         MOVWF   POSTDEC1
000252 EC?? F0??      02656         CALL    _memcpy
000256 0E08           02657         MOVLW   0x08
000258 26E1           02658         ADDWF   FSR1L, F
00025A B0D8           02659         BTFSC   STATUS, 0
00025C 2AE2           02660         INCF    FSR1H, F
                      02661 ;       .line   219; ../../RF24Mesh_cg.c        return address >= 0 ? address: -2;      
00025E 80D8           02662         BSF     STATUS, 0
000260 ????           02663         BANKSEL (_RF24M_getAddress_address_1_233 + 1)
000262 AF??           02664         BTFSS   (_RF24M_getAddress_address_1_233 + 1), 7, B
000264 90D8           02665         BCF     STATUS, 0
000266 E2??           02666         BC      _00325_DS_
000268 C??? F???      02667         MOVFF   _RF24M_getAddress_address_1_233, r0x00
00026C C??? F???      02668         MOVFF   (_RF24M_getAddress_address_1_233 + 1), r0x01
000270 D???           02669         BRA     _00326_DS_
000272                02670 _00325_DS_:
gpasm-1.4.0 #1107 (May  9 2015) build/sdcc/pr   12-2-2016  22:31:29         PAGE 60


LOC    OBJECT CODE    LINE  SOURCE TEXT
  VALUE

000272 0EFE           02671         MOVLW   0xfe
Message[1301]: Using default destination of 0 (Access Bank).
000274 6E??           02672         MOVWF   r0x00
000276 0EFF           02673         MOVLW   0xff
Message[1301]: Using default destination of 0 (Access Bank).
000278 6E??           02674         MOVWF   r0x01
00027A                02675 _00326_DS_:
00027A C??? F???      02676         MOVFF   r0x01, PRODL
00027E 50??           02677         MOVF    r0x00, W
000280                02678 _00323_DS_:
000280 CFE4 F000      02679         MOVFF   PREINC1, r0x08
000284 CFE4 F000      02680         MOVFF   PREINC1, r0x07
000288 CFE4 F000      02681         MOVFF   PREINC1, r0x06
00028C CFE4 F000      02682         MOVFF   PREINC1, r0x05
000290 CFE4 F000      02683         MOVFF   PREINC1, r0x04
000294 CFE4 F000      02684         MOVFF   PREINC1, r0x03
000298 CFE4 F000      02685         MOVFF   PREINC1, r0x02
00029C CFE4 F000      02686         MOVFF   PREINC1, r0x01
0002A0 CFE4 F000      02687         MOVFF   PREINC1, r0x00
0002A4 CFE4 FFD9      02688         MOVFF   PREINC1, FSR2L
0002A8 CFE4 FFDA      02689         MOVFF   PREINC1, FSR2H
0002AC 0012           02690         RETURN  
                      02691 
                      02692 ; ; Starting pCode block
                      02693 S_RF24Mesh_cg__RF24M_checkConnection    code
000000                02694 _RF24M_checkConnection:
                      02695 ;       .line   163; ../../RF24Mesh_cg.c        uint8_t RF24M_checkConnection(void){
000000 CFDA FFE5      02696         MOVFF   FSR2H, POSTDEC1
000004 CFD9 FFE5      02697         MOVFF   FSR2L, POSTDEC1
000008 CFE2 FFDA      02698         MOVFF   FSR1H, FSR2H
00000C CFE1 FFD9      02699         MOVFF   FSR1L, FSR2L
000010 C??? F???      02700         MOVFF   r0x00, POSTDEC1
000014 C??? F???      02701         MOVFF   r0x01, POSTDEC1
000018 C??? F???      02702         MOVFF   r0x02, POSTDEC1
00001C C??? F???      02703         MOVFF   r0x03, POSTDEC1
000020 C??? F???      02704         MOVFF   r0x04, POSTDEC1
                      02705 ;       .line   166; ../../RF24Mesh_cg.c        uint8_t ok = 0;
Message[1301]: Using default destination of 0 (Access Bank).
000024 6A??           02706         CLRF    r0x00
                      02707 ;       .line   167; ../../RF24Mesh_cg.c        while(count-- && mesh.mesh_address != MESH_DEFAULT_ADDRE
                            SS){
000026 0E03           02708         MOVLW   0x03
Message[1301]: Using default destination of 0 (Access Bank).
000028 6E??           02709         MOVWF   r0x01
00002A                02710 _00271_DS_:
00002A C??? F???      02711         MOVFF   r0x01, r0x02
00002E 06??           02712         DECF    r0x01, F
000030 50??           02713         MOVF    r0x02, W
000032 B4D8           02714         BTFSC   STATUS, 2
000034 D???           02715         BRA     _00273_DS_
000036 ????           02716         BANKSEL (_mesh + 1)
000038 51??           02717         MOVF    (_mesh + 1), W, B
00003A 0A24           02718         XORLW   0x24
gpasm-1.4.0 #1107 (May  9 2015) build/sdcc/pr   12-2-2016  22:31:29         PAGE 61


LOC    OBJECT CODE    LINE  SOURCE TEXT
  VALUE

00003C E1??           02719         BNZ     _00297_DS_
00003E ????           02720         BANKSEL (_mesh + 2)
000040 51??           02721         MOVF    (_mesh + 2), W, B
000042 0A09           02722         XORLW   0x09
000044 E1??           02723         BNZ     _00297_DS_
000046 D???           02724         BRA     _00273_DS_
000048                02725 _00297_DS_:
                      02726 ;       .line   170; ../../RF24Mesh_cg.c        RF24M_update();
000048 EC?? F0??      02727         CALL    _RF24M_update
                      02728 ;       .line   171; ../../RF24Mesh_cg.c        if(RF24_rxFifoFull() || (RF24N_getNetworkFlags() & 1)){
00004C EC?? F0??      02729         CALL    _RF24_rxFifoFull
Message[1301]: Using default destination of 0 (Access Bank).
000050 6E??           02730         MOVWF   r0x02
000052 50??           02731         MOVF    r0x02, W
000054 E1??           02732         BNZ     _00265_DS_
000056 EC?? F0??      02733         CALL    _RF24N_getNetworkFlags
Message[1301]: Using default destination of 0 (Access Bank).
00005A 6E??           02734         MOVWF   r0x02
00005C A0??           02735         BTFSS   r0x02, 0
00005E D???           02736         BRA     _00266_DS_
000060                02737 _00265_DS_:
                      02738 ;       .line   172; ../../RF24Mesh_cg.c        return 1;
000060 0E01           02739         MOVLW   0x01
000062 D???           02740         BRA     _00276_DS_
000064                02741 _00266_DS_:
                      02742 ;       .line   175; ../../RF24Mesh_cg.c        RF24NH_init(&header,00,NETWORK_PING);
000064 0E??           02743         MOVLW   HIGH(_RF24M_checkConnection_header_2_228)
Message[1301]: Using default destination of 0 (Access Bank).
000066 6E??           02744         MOVWF   r0x03
000068 0E??           02745         MOVLW   LOW(_RF24M_checkConnection_header_2_228)
Message[1301]: Using default destination of 0 (Access Bank).
00006A 6E??           02746         MOVWF   r0x02
00006C 0E80           02747         MOVLW   0x80
Message[1301]: Using default destination of 0 (Access Bank).
00006E 6E??           02748         MOVWF   r0x04
000070 0E82           02749         MOVLW   0x82
Message[1301]: Using default destination of 0 (Access Bank).
000072 6EE5           02750         MOVWF   POSTDEC1
000074 0E00           02751         MOVLW   0x00
Message[1301]: Using default destination of 0 (Access Bank).
000076 6EE5           02752         MOVWF   POSTDEC1
000078 0E00           02753         MOVLW   0x00
Message[1301]: Using default destination of 0 (Access Bank).
00007A 6EE5           02754         MOVWF   POSTDEC1
00007C 50??           02755         MOVF    r0x04, W
Message[1301]: Using default destination of 0 (Access Bank).
00007E 6EE5           02756         MOVWF   POSTDEC1
000080 50??           02757         MOVF    r0x03, W
Message[1301]: Using default destination of 0 (Access Bank).
000082 6EE5           02758         MOVWF   POSTDEC1
000084 50??           02759         MOVF    r0x02, W
Message[1301]: Using default destination of 0 (Access Bank).
000086 6EE5           02760         MOVWF   POSTDEC1
gpasm-1.4.0 #1107 (May  9 2015) build/sdcc/pr   12-2-2016  22:31:29         PAGE 62


LOC    OBJECT CODE    LINE  SOURCE TEXT
  VALUE

000088 EC?? F0??      02761         CALL    _RF24NH_init
00008C 0E06           02762         MOVLW   0x06
00008E 26E1           02763         ADDWF   FSR1L, F
000090 B0D8           02764         BTFSC   STATUS, 0
000092 2AE2           02765         INCF    FSR1H, F
                      02766 ;       .line   176; ../../RF24Mesh_cg.c        ok = RF24N_write_m(&header,0,0);
000094 0E??           02767         MOVLW   HIGH(_RF24M_checkConnection_header_2_228)
Message[1301]: Using default destination of 0 (Access Bank).
000096 6E??           02768         MOVWF   r0x03
000098 0E??           02769         MOVLW   LOW(_RF24M_checkConnection_header_2_228)
Message[1301]: Using default destination of 0 (Access Bank).
00009A 6E??           02770         MOVWF   r0x02
00009C 0E80           02771         MOVLW   0x80
Message[1301]: Using default destination of 0 (Access Bank).
00009E 6E??           02772         MOVWF   r0x04
0000A0 0E00           02773         MOVLW   0x00
Message[1301]: Using default destination of 0 (Access Bank).
0000A2 6EE5           02774         MOVWF   POSTDEC1
0000A4 0E00           02775         MOVLW   0x00
Message[1301]: Using default destination of 0 (Access Bank).
0000A6 6EE5           02776         MOVWF   POSTDEC1
0000A8 0E00           02777         MOVLW   0x00
Message[1301]: Using default destination of 0 (Access Bank).
0000AA 6EE5           02778         MOVWF   POSTDEC1
0000AC 0E00           02779         MOVLW   0x00
Message[1301]: Using default destination of 0 (Access Bank).
0000AE 6EE5           02780         MOVWF   POSTDEC1
0000B0 0E00           02781         MOVLW   0x00
Message[1301]: Using default destination of 0 (Access Bank).
0000B2 6EE5           02782         MOVWF   POSTDEC1
0000B4 50??           02783         MOVF    r0x04, W
Message[1301]: Using default destination of 0 (Access Bank).
0000B6 6EE5           02784         MOVWF   POSTDEC1
0000B8 50??           02785         MOVF    r0x03, W
Message[1301]: Using default destination of 0 (Access Bank).
0000BA 6EE5           02786         MOVWF   POSTDEC1
0000BC 50??           02787         MOVF    r0x02, W
Message[1301]: Using default destination of 0 (Access Bank).
0000BE 6EE5           02788         MOVWF   POSTDEC1
0000C0 EC?? F0??      02789         CALL    _RF24N_write_m
Message[1301]: Using default destination of 0 (Access Bank).
0000C4 6E??           02790         MOVWF   r0x00
0000C6 0E08           02791         MOVLW   0x08
0000C8 26E1           02792         ADDWF   FSR1L, F
0000CA B0D8           02793         BTFSC   STATUS, 0
0000CC 2AE2           02794         INCF    FSR1H, F
                      02795 ;       .line   177; ../../RF24Mesh_cg.c        if(ok){break;}
0000CE 50??           02796         MOVF    r0x00, W
0000D0 E1??           02797         BNZ     _00273_DS_
                      02798 ;       .line   178; ../../RF24Mesh_cg.c        delay(103);
0000D2 0E00           02799         MOVLW   0x00
Message[1301]: Using default destination of 0 (Access Bank).
0000D4 6EE5           02800         MOVWF   POSTDEC1
gpasm-1.4.0 #1107 (May  9 2015) build/sdcc/pr   12-2-2016  22:31:29         PAGE 63


LOC    OBJECT CODE    LINE  SOURCE TEXT
  VALUE

0000D6 0E67           02801         MOVLW   0x67
Message[1301]: Using default destination of 0 (Access Bank).
0000D8 6EE5           02802         MOVWF   POSTDEC1
0000DA EC?? F0??      02803         CALL    _delay
0000DE 52E6           02804         MOVF    POSTINC1, F
0000E0 52E6           02805         MOVF    POSTINC1, F
0000E2 D???           02806         BRA     _00271_DS_
0000E4                02807 _00273_DS_:
                      02808 ;       .line   180; ../../RF24Mesh_cg.c        if(!ok){ RF24_stopListening(); }
0000E4 50??           02809         MOVF    r0x00, W
0000E6 E1??           02810         BNZ     _00275_DS_
0000E8 EC?? F0??      02811         CALL    _RF24_stopListening
0000EC                02812 _00275_DS_:
                      02813 ;       .line   181; ../../RF24Mesh_cg.c        return ok;
0000EC 50??           02814         MOVF    r0x00, W
0000EE                02815 _00276_DS_:
0000EE CFE4 F000      02816         MOVFF   PREINC1, r0x04
0000F2 CFE4 F000      02817         MOVFF   PREINC1, r0x03
0000F6 CFE4 F000      02818         MOVFF   PREINC1, r0x02
0000FA CFE4 F000      02819         MOVFF   PREINC1, r0x01
0000FE CFE4 F000      02820         MOVFF   PREINC1, r0x00
000102 CFE4 FFD9      02821         MOVFF   PREINC1, FSR2L
000106 CFE4 FFDA      02822         MOVFF   PREINC1, FSR2H
00010A 0012           02823         RETURN  
                      02824 
                      02825 ; ; Starting pCode block
                      02826 S_RF24Mesh_cg__RF24M_setChild   code
000000                02827 _RF24M_setChild:
                      02828 ;       .line   154; ../../RF24Mesh_cg.c        void RF24M_setChild(uint8_t allow){
000000 CFDA FFE5      02829         MOVFF   FSR2H, POSTDEC1
000004 CFD9 FFE5      02830         MOVFF   FSR2L, POSTDEC1
000008 CFE2 FFDA      02831         MOVFF   FSR1H, FSR2H
00000C CFE1 FFD9      02832         MOVFF   FSR1L, FSR2L
000010 C??? F???      02833         MOVFF   r0x00, POSTDEC1
000014 C??? F???      02834         MOVFF   r0x01, POSTDEC1
000018 0E03           02835         MOVLW   0x03
00001A CFDB F000      02836         MOVFF   PLUSW2, r0x00
                      02837 ;       .line   158; ../../RF24Mesh_cg.c        RF24N_setNetworkFlags( allow ? RF24N_getNetworkFlags() &
                             ~FLAG_NO_POLL : RF24N_getNetworkFlags() | FLAG_NO_POLL); 
00001E 50??           02838         MOVF    r0x00, W
000020 E0??           02839         BZ      _00259_DS_
000022 EC?? F0??      02840         CALL    _RF24N_getNetworkFlags
Message[1301]: Using default destination of 0 (Access Bank).
000026 6E??           02841         MOVWF   r0x00
000028 96??           02842         BCF     r0x00, 3
00002A D???           02843         BRA     _00260_DS_
00002C                02844 _00259_DS_:
00002C EC?? F0??      02845         CALL    _RF24N_getNetworkFlags
Message[1301]: Using default destination of 0 (Access Bank).
000030 6E??           02846         MOVWF   r0x01
000032 0E08           02847         MOVLW   0x08
000034 10??           02848         IORWF   r0x01, W
Message[1301]: Using default destination of 0 (Access Bank).
gpasm-1.4.0 #1107 (May  9 2015) build/sdcc/pr   12-2-2016  22:31:29         PAGE 64


LOC    OBJECT CODE    LINE  SOURCE TEXT
  VALUE

000036 6E??           02849         MOVWF   r0x00
000038                02850 _00260_DS_:
000038 50??           02851         MOVF    r0x00, W
Message[1301]: Using default destination of 0 (Access Bank).
00003A 6EE5           02852         MOVWF   POSTDEC1
00003C EC?? F0??      02853         CALL    _RF24N_setNetworkFlags
000040 52E6           02854         MOVF    POSTINC1, F
000042 CFE4 F000      02855         MOVFF   PREINC1, r0x01
000046 CFE4 F000      02856         MOVFF   PREINC1, r0x00
00004A CFE4 FFD9      02857         MOVFF   PREINC1, FSR2L
00004E CFE4 FFDA      02858         MOVFF   PREINC1, FSR2H
000052 0012           02859         RETURN  
                      02860 
                      02861 ; ; Starting pCode block
                      02862 S_RF24Mesh_cg__RF24M_setChannel code
000000                02863 _RF24M_setChannel:
                      02864 ;       .line   147; ../../RF24Mesh_cg.c        void RF24M_setChannel( uint8_t _channel){
000000 CFDA FFE5      02865         MOVFF   FSR2H, POSTDEC1
000004 CFD9 FFE5      02866         MOVFF   FSR2L, POSTDEC1
000008 CFE2 FFDA      02867         MOVFF   FSR1H, FSR2H
00000C CFE1 FFD9      02868         MOVFF   FSR1L, FSR2L
000010 C??? F???      02869         MOVFF   r0x00, POSTDEC1
000014 0E03           02870         MOVLW   0x03
000016 CFDB F000      02871         MOVFF   PLUSW2, r0x00
                      02872 ;       .line   149; ../../RF24Mesh_cg.c        mesh.radio_channel = _channel;
00001A 50??           02873         MOVF    r0x00, W
00001C ????           02874         BANKSEL (_mesh + 16)
00001E 6F??           02875         MOVWF   (_mesh + 16), B
                      02876 ;       .line   150; ../../RF24Mesh_cg.c        RF24_setChannel(mesh.radio_channel);
000020 50??           02877         MOVF    r0x00, W
Message[1301]: Using default destination of 0 (Access Bank).
000022 6EE5           02878         MOVWF   POSTDEC1
000024 EC?? F0??      02879         CALL    _RF24_setChannel
000028 52E6           02880         MOVF    POSTINC1, F
                      02881 ;       .line   151; ../../RF24Mesh_cg.c        RF24_startListening();
00002A EC?? F0??      02882         CALL    _RF24_startListening
00002E CFE4 F000      02883         MOVFF   PREINC1, r0x00
000032 CFE4 FFD9      02884         MOVFF   PREINC1, FSR2L
000036 CFE4 FFDA      02885         MOVFF   PREINC1, FSR2H
00003A 0012           02886         RETURN  
                      02887 
                      02888 ; ; Starting pCode block
                      02889 S_RF24Mesh_cg__RF24M_write      code
000000                02890 _RF24M_write:
                      02891 ;       .line   125; ../../RF24Mesh_cg.c        uint8_t RF24M_write( const void* data, uint8_t msg_type,
                             size_t size, uint8_t nodeID){
000000 CFDA FFE5      02892         MOVFF   FSR2H, POSTDEC1
000004 CFD9 FFE5      02893         MOVFF   FSR2L, POSTDEC1
000008 CFE2 FFDA      02894         MOVFF   FSR1H, FSR2H
00000C CFE1 FFD9      02895         MOVFF   FSR1L, FSR2L
000010 C??? F???      02896         MOVFF   r0x00, POSTDEC1
000014 C??? F???      02897         MOVFF   r0x01, POSTDEC1
000018 C??? F???      02898         MOVFF   r0x02, POSTDEC1
gpasm-1.4.0 #1107 (May  9 2015) build/sdcc/pr   12-2-2016  22:31:29         PAGE 65


LOC    OBJECT CODE    LINE  SOURCE TEXT
  VALUE

00001C C??? F???      02899         MOVFF   r0x03, POSTDEC1
000020 C??? F???      02900         MOVFF   r0x04, POSTDEC1
000024 C??? F???      02901         MOVFF   r0x05, POSTDEC1
000028 C??? F???      02902         MOVFF   r0x06, POSTDEC1
00002C C??? F???      02903         MOVFF   r0x07, POSTDEC1
000030 C??? F???      02904         MOVFF   r0x08, POSTDEC1
000034 C??? F???      02905         MOVFF   r0x09, POSTDEC1
000038 C??? F???      02906         MOVFF   r0x0a, POSTDEC1
00003C C??? F???      02907         MOVFF   r0x0b, POSTDEC1
000040 C??? F???      02908         MOVFF   r0x0c, POSTDEC1
000044 C??? F???      02909         MOVFF   r0x0d, POSTDEC1
000048 C??? F???      02910         MOVFF   r0x0e, POSTDEC1
00004C C??? F???      02911         MOVFF   r0x0f, POSTDEC1
000050 C??? F???      02912         MOVFF   r0x10, POSTDEC1
000054 C??? F???      02913         MOVFF   r0x11, POSTDEC1
000058 C??? F???      02914         MOVFF   r0x12, POSTDEC1
00005C C??? F???      02915         MOVFF   r0x13, POSTDEC1
000060 C??? F???      02916         MOVFF   r0x14, POSTDEC1
000064 0E03           02917         MOVLW   0x03
000066 CFDB F000      02918         MOVFF   PLUSW2, r0x00
00006A 0E04           02919         MOVLW   0x04
00006C CFDB F000      02920         MOVFF   PLUSW2, r0x01
000070 0E05           02921         MOVLW   0x05
000072 CFDB F000      02922         MOVFF   PLUSW2, r0x02
000076 0E06           02923         MOVLW   0x06
000078 CFDB F000      02924         MOVFF   PLUSW2, r0x03
00007C 0E07           02925         MOVLW   0x07
00007E CFDB F000      02926         MOVFF   PLUSW2, r0x04
000082 0E08           02927         MOVLW   0x08
000084 CFDB F000      02928         MOVFF   PLUSW2, r0x05
000088 0E09           02929         MOVLW   0x09
00008A CFDB F000      02930         MOVFF   PLUSW2, r0x06
                      02931 ;       .line   126; ../../RF24Mesh_cg.c        int16_t toNode = 0;
Message[1301]: Using default destination of 0 (Access Bank).
00008E 6A??           02932         CLRF    r0x07
Message[1301]: Using default destination of 0 (Access Bank).
000090 6A??           02933         CLRF    r0x08
                      02934 ;       .line   127; ../../RF24Mesh_cg.c        int32_t lookupTimeout = millis()+ MESH_LOOKUP_TIMEOUT;
000092 EC?? F0??      02935         CALL    _millis
Message[1301]: Using default destination of 0 (Access Bank).
000096 6E??           02936         MOVWF   r0x09
000098 CFF3 F000      02937         MOVFF   PRODL, r0x0a
00009C CFF4 F000      02938         MOVFF   PRODH, r0x0b
0000A0 CFE9 F000      02939         MOVFF   FSR0L, r0x0c
0000A4 0EB8           02940         MOVLW   0xb8
0000A6 26??           02941         ADDWF   r0x09, F
0000A8 0E0B           02942         MOVLW   0x0b
0000AA 22??           02943         ADDWFC  r0x0a, F
0000AC 0E00           02944         MOVLW   0x00
0000AE 22??           02945         ADDWFC  r0x0b, F
0000B0 22??           02946         ADDWFC  r0x0c, F
0000B2 ????           02947         BANKSEL (_mesh + 1)
                      02948 ;       .line   130; ../../RF24Mesh_cg.c        if(mesh.mesh_address == MESH_DEFAULT_ADDRESS){ return 0;
gpasm-1.4.0 #1107 (May  9 2015) build/sdcc/pr   12-2-2016  22:31:29         PAGE 66


LOC    OBJECT CODE    LINE  SOURCE TEXT
  VALUE

                             }
0000B4 51??           02949         MOVF    (_mesh + 1), W, B
0000B6 0A24           02950         XORLW   0x24
0000B8 E1??           02951         BNZ     _00218_DS_
0000BA ????           02952         BANKSEL (_mesh + 2)
0000BC 51??           02953         MOVF    (_mesh + 2), W, B
0000BE 0A09           02954         XORLW   0x09
0000C0 E0??           02955         BZ      _00244_DS_
0000C2                02956 _00243_DS_:
0000C2 D???           02957         BRA     _00218_DS_
0000C4                02958 _00244_DS_:
Message[1301]: Using default destination of 0 (Access Bank).
0000C4 6AE8           02959         CLRF    WREG
0000C6 D???           02960         BRA     _00227_DS_
0000C8                02961 _00218_DS_:
                      02962 ;       .line   132; ../../RF24Mesh_cg.c        if(nodeID){
0000C8 50??           02963         MOVF    r0x06, W
0000CA B4D8           02964         BTFSC   STATUS, 2
0000CC D???           02965         BRA     _00226_DS_
                      02966 ;       .line   134; ../../RF24Mesh_cg.c        while( (toNode=RF24M_getAddress(nodeID)) < 0 ){
0000CE 0E32           02967         MOVLW   0x32
Message[1301]: Using default destination of 0 (Access Bank).
0000D0 6E??           02968         MOVWF   r0x0d
Message[1301]: Using default destination of 0 (Access Bank).
0000D2 6A??           02969         CLRF    r0x0e
Message[1301]: Using default destination of 0 (Access Bank).
0000D4 6A??           02970         CLRF    r0x0f
Message[1301]: Using default destination of 0 (Access Bank).
0000D6 6A??           02971         CLRF    r0x10
0000D8                02972 _00222_DS_:
0000D8 50??           02973         MOVF    r0x06, W
Message[1301]: Using default destination of 0 (Access Bank).
0000DA 6EE5           02974         MOVWF   POSTDEC1
0000DC EC?? F0??      02975         CALL    _RF24M_getAddress
Message[1301]: Using default destination of 0 (Access Bank).
0000E0 6E??           02976         MOVWF   r0x11
0000E2 CFF3 F000      02977         MOVFF   PRODL, r0x12
0000E6 52E6           02978         MOVF    POSTINC1, F
0000E8 C??? F???      02979         MOVFF   r0x11, r0x07
0000EC C??? F???      02980         MOVFF   r0x12, r0x08
0000F0 80D8           02981         BSF     STATUS, 0
0000F2 AE??           02982         BTFSS   r0x12, 7
0000F4 90D8           02983         BCF     STATUS, 0
0000F6 E3??           02984         BNC     _00226_DS_
                      02985 ;       .line   135; ../../RF24Mesh_cg.c        if(millis() > lookupTimeout || toNode == -2){
0000F8 EC?? F0??      02986         CALL    _millis
Message[1301]: Using default destination of 0 (Access Bank).
0000FC 6E??           02987         MOVWF   r0x11
0000FE CFF3 F000      02988         MOVFF   PRODL, r0x12
000102 CFF4 F000      02989         MOVFF   PRODH, r0x13
000106 CFE9 F000      02990         MOVFF   FSR0L, r0x14
00010A 50??           02991         MOVF    r0x0c, W
00010C 0F80           02992         ADDLW   0x80
gpasm-1.4.0 #1107 (May  9 2015) build/sdcc/pr   12-2-2016  22:31:29         PAGE 67


LOC    OBJECT CODE    LINE  SOURCE TEXT
  VALUE

Message[1301]: Using default destination of 0 (Access Bank).
00010E 6EF3           02993         MOVWF   PRODL
000110 50??           02994         MOVF    r0x14, W
000112 0F80           02995         ADDLW   0x80
000114 5CF3           02996         SUBWF   PRODL, W
000116 E1??           02997         BNZ     _00245_DS_
000118 50??           02998         MOVF    r0x13, W
00011A 5C??           02999         SUBWF   r0x0b, W
00011C E1??           03000         BNZ     _00245_DS_
00011E 50??           03001         MOVF    r0x12, W
000120 5C??           03002         SUBWF   r0x0a, W
000122 E1??           03003         BNZ     _00245_DS_
000124 50??           03004         MOVF    r0x11, W
000126 5C??           03005         SUBWF   r0x09, W
000128                03006 _00245_DS_:
000128 E3??           03007         BNC     _00219_DS_
00012A 50??           03008         MOVF    r0x07, W
00012C 0AFE           03009         XORLW   0xfe
00012E E1??           03010         BNZ     _00220_DS_
000130 50??           03011         MOVF    r0x08, W
000132 0AFF           03012         XORLW   0xff
000134 E0??           03013         BZ      _00219_DS_
000136                03014 _00246_DS_:
000136 D???           03015         BRA     _00220_DS_
000138                03016 _00219_DS_:
                      03017 ;       .line   136; ../../RF24Mesh_cg.c        return 0;
Message[1301]: Using default destination of 0 (Access Bank).
000138 6AE8           03018         CLRF    WREG
00013A D???           03019         BRA     _00227_DS_
00013C                03020 _00220_DS_:
                      03021 ;       .line   138; ../../RF24Mesh_cg.c        retryDelay+=50;
00013C 0E32           03022         MOVLW   0x32
00013E 26??           03023         ADDWF   r0x0d, F
000140 0E00           03024         MOVLW   0x00
000142 22??           03025         ADDWFC  r0x0e, F
000144 22??           03026         ADDWFC  r0x0f, F
000146 22??           03027         ADDWFC  r0x10, F
                      03028 ;       .line   139; ../../RF24Mesh_cg.c        delay(retryDelay);
000148 50??           03029         MOVF    r0x0d, W
Message[1301]: Using default destination of 0 (Access Bank).
00014A 6E??           03030         MOVWF   r0x11
00014C 50??           03031         MOVF    r0x0e, W
Message[1301]: Using default destination of 0 (Access Bank).
00014E 6E??           03032         MOVWF   r0x12
000150 50??           03033         MOVF    r0x12, W
Message[1301]: Using default destination of 0 (Access Bank).
000152 6EE5           03034         MOVWF   POSTDEC1
000154 50??           03035         MOVF    r0x11, W
Message[1301]: Using default destination of 0 (Access Bank).
000156 6EE5           03036         MOVWF   POSTDEC1
000158 EC?? F0??      03037         CALL    _delay
00015C 52E6           03038         MOVF    POSTINC1, F
00015E 52E6           03039         MOVF    POSTINC1, F
gpasm-1.4.0 #1107 (May  9 2015) build/sdcc/pr   12-2-2016  22:31:29         PAGE 68


LOC    OBJECT CODE    LINE  SOURCE TEXT
  VALUE

000160 D???           03040         BRA     _00222_DS_
000162                03041 _00226_DS_:
                      03042 ;       .line   142; ../../RF24Mesh_cg.c        return RF24M_write_n(toNode,data,msg_type,size);
000162 50??           03043         MOVF    r0x05, W
Message[1301]: Using default destination of 0 (Access Bank).
000164 6EE5           03044         MOVWF   POSTDEC1
000166 50??           03045         MOVF    r0x04, W
Message[1301]: Using default destination of 0 (Access Bank).
000168 6EE5           03046         MOVWF   POSTDEC1
00016A 50??           03047         MOVF    r0x03, W
Message[1301]: Using default destination of 0 (Access Bank).
00016C 6EE5           03048         MOVWF   POSTDEC1
00016E 50??           03049         MOVF    r0x02, W
Message[1301]: Using default destination of 0 (Access Bank).
000170 6EE5           03050         MOVWF   POSTDEC1
000172 50??           03051         MOVF    r0x01, W
Message[1301]: Using default destination of 0 (Access Bank).
000174 6EE5           03052         MOVWF   POSTDEC1
000176 50??           03053         MOVF    r0x00, W
Message[1301]: Using default destination of 0 (Access Bank).
000178 6EE5           03054         MOVWF   POSTDEC1
00017A 50??           03055         MOVF    r0x08, W
Message[1301]: Using default destination of 0 (Access Bank).
00017C 6EE5           03056         MOVWF   POSTDEC1
00017E 50??           03057         MOVF    r0x07, W
Message[1301]: Using default destination of 0 (Access Bank).
000180 6EE5           03058         MOVWF   POSTDEC1
000182 EC?? F0??      03059         CALL    _RF24M_write_n
Message[1301]: Using default destination of 0 (Access Bank).
000186 6E??           03060         MOVWF   r0x00
000188 0E08           03061         MOVLW   0x08
00018A 26E1           03062         ADDWF   FSR1L, F
00018C B0D8           03063         BTFSC   STATUS, 0
00018E 2AE2           03064         INCF    FSR1H, F
000190 50??           03065         MOVF    r0x00, W
000192                03066 _00227_DS_:
000192 CFE4 F000      03067         MOVFF   PREINC1, r0x14
000196 CFE4 F000      03068         MOVFF   PREINC1, r0x13
00019A CFE4 F000      03069         MOVFF   PREINC1, r0x12
00019E CFE4 F000      03070         MOVFF   PREINC1, r0x11
0001A2 CFE4 F000      03071         MOVFF   PREINC1, r0x10
0001A6 CFE4 F000      03072         MOVFF   PREINC1, r0x0f
0001AA CFE4 F000      03073         MOVFF   PREINC1, r0x0e
0001AE CFE4 F000      03074         MOVFF   PREINC1, r0x0d
0001B2 CFE4 F000      03075         MOVFF   PREINC1, r0x0c
0001B6 CFE4 F000      03076         MOVFF   PREINC1, r0x0b
0001BA CFE4 F000      03077         MOVFF   PREINC1, r0x0a
0001BE CFE4 F000      03078         MOVFF   PREINC1, r0x09
0001C2 CFE4 F000      03079         MOVFF   PREINC1, r0x08
0001C6 CFE4 F000      03080         MOVFF   PREINC1, r0x07
0001CA CFE4 F000      03081         MOVFF   PREINC1, r0x06
0001CE CFE4 F000      03082         MOVFF   PREINC1, r0x05
0001D2 CFE4 F000      03083         MOVFF   PREINC1, r0x04
gpasm-1.4.0 #1107 (May  9 2015) build/sdcc/pr   12-2-2016  22:31:29         PAGE 69


LOC    OBJECT CODE    LINE  SOURCE TEXT
  VALUE

0001D6 CFE4 F000      03084         MOVFF   PREINC1, r0x03
0001DA CFE4 F000      03085         MOVFF   PREINC1, r0x02
0001DE CFE4 F000      03086         MOVFF   PREINC1, r0x01
0001E2 CFE4 F000      03087         MOVFF   PREINC1, r0x00
0001E6 CFE4 FFD9      03088         MOVFF   PREINC1, FSR2L
0001EA CFE4 FFDA      03089         MOVFF   PREINC1, FSR2H
0001EE 0012           03090         RETURN  
                      03091 
                      03092 ; ; Starting pCode block
                      03093 S_RF24Mesh_cg__RF24M_write_n    code
000000                03094 _RF24M_write_n:
                      03095 ;       .line   116; ../../RF24Mesh_cg.c        uint8_t RF24M_write_n( uint16_t to_node, const void* dat
                            a, uint8_t msg_type, size_t size ){
000000 CFDA FFE5      03096         MOVFF   FSR2H, POSTDEC1
000004 CFD9 FFE5      03097         MOVFF   FSR2L, POSTDEC1
000008 CFE2 FFDA      03098         MOVFF   FSR1H, FSR2H
00000C CFE1 FFD9      03099         MOVFF   FSR1L, FSR2L
000010 C??? F???      03100         MOVFF   r0x00, POSTDEC1
000014 C??? F???      03101         MOVFF   r0x01, POSTDEC1
000018 C??? F???      03102         MOVFF   r0x02, POSTDEC1
00001C C??? F???      03103         MOVFF   r0x03, POSTDEC1
000020 C??? F???      03104         MOVFF   r0x04, POSTDEC1
000024 C??? F???      03105         MOVFF   r0x05, POSTDEC1
000028 C??? F???      03106         MOVFF   r0x06, POSTDEC1
00002C C??? F???      03107         MOVFF   r0x07, POSTDEC1
000030 C??? F???      03108         MOVFF   r0x08, POSTDEC1
000034 C??? F???      03109         MOVFF   r0x09, POSTDEC1
000038 C??? F???      03110         MOVFF   r0x0a, POSTDEC1
00003C 0E03           03111         MOVLW   0x03
00003E CFDB F000      03112         MOVFF   PLUSW2, r0x00
000042 0E04           03113         MOVLW   0x04
000044 CFDB F000      03114         MOVFF   PLUSW2, r0x01
000048 0E05           03115         MOVLW   0x05
00004A CFDB F000      03116         MOVFF   PLUSW2, r0x02
00004E 0E06           03117         MOVLW   0x06
000050 CFDB F000      03118         MOVFF   PLUSW2, r0x03
000054 0E07           03119         MOVLW   0x07
000056 CFDB F000      03120         MOVFF   PLUSW2, r0x04
00005A 0E08           03121         MOVLW   0x08
00005C CFDB F000      03122         MOVFF   PLUSW2, r0x05
000060 0E09           03123         MOVLW   0x09
000062 CFDB F000      03124         MOVFF   PLUSW2, r0x06
000066 0E0A           03125         MOVLW   0x0a
000068 CFDB F000      03126         MOVFF   PLUSW2, r0x07
00006C ????           03127         BANKSEL (_mesh + 1)
                      03128 ;       .line   118; ../../RF24Mesh_cg.c        if(mesh.mesh_address == MESH_DEFAULT_ADDRESS){ return 0;
                             }
00006E 51??           03129         MOVF    (_mesh + 1), W, B
000070 0A24           03130         XORLW   0x24
000072 E1??           03131         BNZ     _00211_DS_
000074 ????           03132         BANKSEL (_mesh + 2)
000076 51??           03133         MOVF    (_mesh + 2), W, B
000078 0A09           03134         XORLW   0x09
gpasm-1.4.0 #1107 (May  9 2015) build/sdcc/pr   12-2-2016  22:31:29         PAGE 70


LOC    OBJECT CODE    LINE  SOURCE TEXT
  VALUE

00007A E0??           03135         BZ      _00212_DS_
00007C                03136 _00211_DS_:
00007C D???           03137         BRA     _00205_DS_
00007E                03138 _00212_DS_:
Message[1301]: Using default destination of 0 (Access Bank).
00007E 6AE8           03139         CLRF    WREG
000080 D???           03140         BRA     _00206_DS_
000082                03141 _00205_DS_:
                      03142 ;       .line   119; ../../RF24Mesh_cg.c        RF24NH_init(&header,to_node,msg_type);  
000082 0E??           03143         MOVLW   HIGH(_RF24M_write_n_header_1_214)
Message[1301]: Using default destination of 0 (Access Bank).
000084 6E??           03144         MOVWF   r0x09
000086 0E??           03145         MOVLW   LOW(_RF24M_write_n_header_1_214)
Message[1301]: Using default destination of 0 (Access Bank).
000088 6E??           03146         MOVWF   r0x08
00008A 0E80           03147         MOVLW   0x80
Message[1301]: Using default destination of 0 (Access Bank).
00008C 6E??           03148         MOVWF   r0x0a
00008E 50??           03149         MOVF    r0x05, W
Message[1301]: Using default destination of 0 (Access Bank).
000090 6EE5           03150         MOVWF   POSTDEC1
000092 50??           03151         MOVF    r0x01, W
Message[1301]: Using default destination of 0 (Access Bank).
000094 6EE5           03152         MOVWF   POSTDEC1
000096 50??           03153         MOVF    r0x00, W
Message[1301]: Using default destination of 0 (Access Bank).
000098 6EE5           03154         MOVWF   POSTDEC1
00009A 50??           03155         MOVF    r0x0a, W
Message[1301]: Using default destination of 0 (Access Bank).
00009C 6EE5           03156         MOVWF   POSTDEC1
00009E 50??           03157         MOVF    r0x09, W
Message[1301]: Using default destination of 0 (Access Bank).
0000A0 6EE5           03158         MOVWF   POSTDEC1
0000A2 50??           03159         MOVF    r0x08, W
Message[1301]: Using default destination of 0 (Access Bank).
0000A4 6EE5           03160         MOVWF   POSTDEC1
0000A6 EC?? F0??      03161         CALL    _RF24NH_init
0000AA 0E06           03162         MOVLW   0x06
0000AC 26E1           03163         ADDWF   FSR1L, F
0000AE B0D8           03164         BTFSC   STATUS, 0
0000B0 2AE2           03165         INCF    FSR1H, F
                      03166 ;       .line   120; ../../RF24Mesh_cg.c        return RF24N_write_m(&header,data,size);        
0000B2 0E??           03167         MOVLW   HIGH(_RF24M_write_n_header_1_214)
Message[1301]: Using default destination of 0 (Access Bank).
0000B4 6E??           03168         MOVWF   r0x01
0000B6 0E??           03169         MOVLW   LOW(_RF24M_write_n_header_1_214)
Message[1301]: Using default destination of 0 (Access Bank).
0000B8 6E??           03170         MOVWF   r0x00
0000BA 0E80           03171         MOVLW   0x80
Message[1301]: Using default destination of 0 (Access Bank).
0000BC 6E??           03172         MOVWF   r0x05
0000BE 50??           03173         MOVF    r0x07, W
Message[1301]: Using default destination of 0 (Access Bank).
gpasm-1.4.0 #1107 (May  9 2015) build/sdcc/pr   12-2-2016  22:31:29         PAGE 71


LOC    OBJECT CODE    LINE  SOURCE TEXT
  VALUE

0000C0 6EE5           03174         MOVWF   POSTDEC1
0000C2 50??           03175         MOVF    r0x06, W
Message[1301]: Using default destination of 0 (Access Bank).
0000C4 6EE5           03176         MOVWF   POSTDEC1
0000C6 50??           03177         MOVF    r0x04, W
Message[1301]: Using default destination of 0 (Access Bank).
0000C8 6EE5           03178         MOVWF   POSTDEC1
0000CA 50??           03179         MOVF    r0x03, W
Message[1301]: Using default destination of 0 (Access Bank).
0000CC 6EE5           03180         MOVWF   POSTDEC1
0000CE 50??           03181         MOVF    r0x02, W
Message[1301]: Using default destination of 0 (Access Bank).
0000D0 6EE5           03182         MOVWF   POSTDEC1
0000D2 50??           03183         MOVF    r0x05, W
Message[1301]: Using default destination of 0 (Access Bank).
0000D4 6EE5           03184         MOVWF   POSTDEC1
0000D6 50??           03185         MOVF    r0x01, W
Message[1301]: Using default destination of 0 (Access Bank).
0000D8 6EE5           03186         MOVWF   POSTDEC1
0000DA 50??           03187         MOVF    r0x00, W
Message[1301]: Using default destination of 0 (Access Bank).
0000DC 6EE5           03188         MOVWF   POSTDEC1
0000DE EC?? F0??      03189         CALL    _RF24N_write_m
Message[1301]: Using default destination of 0 (Access Bank).
0000E2 6E??           03190         MOVWF   r0x00
0000E4 0E08           03191         MOVLW   0x08
0000E6 26E1           03192         ADDWF   FSR1L, F
0000E8 B0D8           03193         BTFSC   STATUS, 0
0000EA 2AE2           03194         INCF    FSR1H, F
0000EC 50??           03195         MOVF    r0x00, W
0000EE                03196 _00206_DS_:
0000EE CFE4 F000      03197         MOVFF   PREINC1, r0x0a
0000F2 CFE4 F000      03198         MOVFF   PREINC1, r0x09
0000F6 CFE4 F000      03199         MOVFF   PREINC1, r0x08
0000FA CFE4 F000      03200         MOVFF   PREINC1, r0x07
0000FE CFE4 F000      03201         MOVFF   PREINC1, r0x06
000102 CFE4 F000      03202         MOVFF   PREINC1, r0x05
000106 CFE4 F000      03203         MOVFF   PREINC1, r0x04
00010A CFE4 F000      03204         MOVFF   PREINC1, r0x03
00010E CFE4 F000      03205         MOVFF   PREINC1, r0x02
000112 CFE4 F000      03206         MOVFF   PREINC1, r0x01
000116 CFE4 F000      03207         MOVFF   PREINC1, r0x00
00011A CFE4 FFD9      03208         MOVFF   PREINC1, FSR2L
00011E CFE4 FFDA      03209         MOVFF   PREINC1, FSR2H
000122 0012           03210         RETURN  
                      03211 
                      03212 ; ; Starting pCode block
                      03213 S_RF24Mesh_cg__RF24M_update     code
000000                03214 _RF24M_update:
                      03215 ;       .line   65; ../../RF24Mesh_cg.c uint8_t RF24M_update(void){
000000 CFDA FFE5      03216         MOVFF   FSR2H, POSTDEC1
000004 CFD9 FFE5      03217         MOVFF   FSR2L, POSTDEC1
000008 CFE2 FFDA      03218         MOVFF   FSR1H, FSR2H
gpasm-1.4.0 #1107 (May  9 2015) build/sdcc/pr   12-2-2016  22:31:29         PAGE 72


LOC    OBJECT CODE    LINE  SOURCE TEXT
  VALUE

00000C CFE1 FFD9      03219         MOVFF   FSR1L, FSR2L
000010 C??? F???      03220         MOVFF   r0x00, POSTDEC1
000014 C??? F???      03221         MOVFF   r0x01, POSTDEC1
000018 C??? F???      03222         MOVFF   r0x02, POSTDEC1
00001C C??? F???      03223         MOVFF   r0x03, POSTDEC1
000020 C??? F???      03224         MOVFF   r0x04, POSTDEC1
000024 C??? F???      03225         MOVFF   r0x05, POSTDEC1
000028 C??? F???      03226         MOVFF   r0x06, POSTDEC1
00002C C??? F???      03227         MOVFF   r0x07, POSTDEC1
000030 C??? F???      03228         MOVFF   r0x08, POSTDEC1
000034 C??? F???      03229         MOVFF   r0x09, POSTDEC1
000038 C??? F???      03230         MOVFF   r0x0a, POSTDEC1
00003C C??? F???      03231         MOVFF   r0x0b, POSTDEC1
000040 C??? F???      03232         MOVFF   r0x0c, POSTDEC1
000044 C??? F???      03233         MOVFF   r0x0d, POSTDEC1
                      03234 ;       .line   69; ../../RF24Mesh_cg.c uint8_t type = RF24N_update();
000048 EC?? F0??      03235         CALL    _RF24N_update
Message[1301]: Using default destination of 0 (Access Bank).
00004C 6E??           03236         MOVWF   r0x00
00004E ????           03237         BANKSEL (_mesh + 1)
                      03238 ;       .line   70; ../../RF24Mesh_cg.c if(mesh.mesh_address == MESH_DEFAULT_ADDRESS){ return type; }
000050 51??           03239         MOVF    (_mesh + 1), W, B
000052 0A24           03240         XORLW   0x24
000054 E1??           03241         BNZ     _00182_DS_
000056 ????           03242         BANKSEL (_mesh + 2)
000058 51??           03243         MOVF    (_mesh + 2), W, B
00005A 0A09           03244         XORLW   0x09
00005C E0??           03245         BZ      _00183_DS_
00005E                03246 _00182_DS_:
00005E D???           03247         BRA     _00121_DS_
000060                03248 _00183_DS_:
000060 50??           03249         MOVF    r0x00, W
000062 D???           03250         BRA     _00146_DS_
000064                03251 _00121_DS_:
                      03252 ;       .line   73; ../../RF24Mesh_cg.c if(type == NETWORK_REQ_ADDRESS){
000064 50??           03253         MOVF    r0x00, W
000066 0AC3           03254         XORLW   0xc3
000068 E1??           03255         BNZ     _00123_DS_
                      03256 ;       .line   74; ../../RF24Mesh_cg.c mesh.doDHCP = 1;
00006A 0E01           03257         MOVLW   0x01
00006C ????           03258         BANKSEL (_mesh + 7)
00006E 6F??           03259         MOVWF   (_mesh + 7), B
000070                03260 _00123_DS_:
                      03261 ;       .line   77; ../../RF24Mesh_cg.c if(!RF24M_getNodeID(MESH_BLANK_ID)){
000070 0EFF           03262         MOVLW   0xff
Message[1301]: Using default destination of 0 (Access Bank).
000072 6EE5           03263         MOVWF   POSTDEC1
000074 0EFF           03264         MOVLW   0xff
Message[1301]: Using default destination of 0 (Access Bank).
000076 6EE5           03265         MOVWF   POSTDEC1
000078 EC?? F0??      03266         CALL    _RF24M_getNodeID
Message[1301]: Using default destination of 0 (Access Bank).
00007C 6E??           03267         MOVWF   r0x01
gpasm-1.4.0 #1107 (May  9 2015) build/sdcc/pr   12-2-2016  22:31:29         PAGE 73


LOC    OBJECT CODE    LINE  SOURCE TEXT
  VALUE

00007E CFF3 F000      03268         MOVFF   PRODL, r0x02
000082 52E6           03269         MOVF    POSTINC1, F
000084 52E6           03270         MOVF    POSTINC1, F
000086 50??           03271         MOVF    r0x01, W
000088 10??           03272         IORWF   r0x02, W
00008A A4D8           03273         BTFSS   STATUS, 2
00008C D???           03274         BRA     _00142_DS_
                      03275 ;       .line   78; ../../RF24Mesh_cg.c if( (type == MESH_ADDR_LOOKUP || type == MESH_ID_LOOKUP)) {
Message[1301]: Using default destination of 0 (Access Bank).
00008E 6A??           03276         CLRF    r0x01
000090 50??           03277         MOVF    r0x00, W
000092 0AC4           03278         XORLW   0xc4
000094 E1??           03279         BNZ     _00187_DS_
000096 2A??           03280         INCF    r0x01, F
000098                03281 _00187_DS_:
000098 50??           03282         MOVF    r0x01, W
00009A E1??           03283         BNZ     _00137_DS_
00009C 50??           03284         MOVF    r0x00, W
00009E 0AC6           03285         XORLW   0xc6
0000A0 E0??           03286         BZ      _00137_DS_
0000A2 D???           03287         BRA     _00138_DS_
0000A4                03288 _00137_DS_:
                      03289 ;       .line   79; ../../RF24Mesh_cg.c RF24NetworkHeader * header = (RF24NetworkHeader*) RF24N_getFrame
                            _buffer();
0000A4 EC?? F0??      03290         CALL    _RF24N_getFrame_buffer
Message[1301]: Using default destination of 0 (Access Bank).
0000A8 6E??           03291         MOVWF   r0x02
0000AA CFF3 F000      03292         MOVFF   PRODL, r0x03
0000AE CFF4 F000      03293         MOVFF   PRODH, r0x04
0000B2 50??           03294         MOVF    r0x04, W
Message[1301]: Using default destination of 0 (Access Bank).
0000B4 6E??           03295         MOVWF   r0x04
0000B6 50??           03296         MOVF    r0x03, W
Message[1301]: Using default destination of 0 (Access Bank).
0000B8 6E??           03297         MOVWF   r0x03
0000BA 50??           03298         MOVF    r0x02, W
Message[1301]: Using default destination of 0 (Access Bank).
0000BC 6E??           03299         MOVWF   r0x02
                      03300 ;       .line   80; ../../RF24Mesh_cg.c header->to_node = header->from_node;
0000BE 50??           03301         MOVF    r0x02, W
0000C0 0F02           03302         ADDLW   0x02
Message[1301]: Using default destination of 0 (Access Bank).
0000C2 6E??           03303         MOVWF   r0x05
0000C4 0E00           03304         MOVLW   0x00
0000C6 20??           03305         ADDWFC  r0x03, W
Message[1301]: Using default destination of 0 (Access Bank).
0000C8 6E??           03306         MOVWF   r0x06
0000CA 0E00           03307         MOVLW   0x00
0000CC 20??           03308         ADDWFC  r0x04, W
Message[1301]: Using default destination of 0 (Access Bank).
0000CE 6E??           03309         MOVWF   r0x07
0000D0 C??? F???      03310         MOVFF   r0x02, FSR0L
0000D4 C??? F???      03311         MOVFF   r0x03, PRODL
gpasm-1.4.0 #1107 (May  9 2015) build/sdcc/pr   12-2-2016  22:31:29         PAGE 74


LOC    OBJECT CODE    LINE  SOURCE TEXT
  VALUE

0000D8 50??           03312         MOVF    r0x04, W
0000DA EC?? F0??      03313         CALL    __gptrget2
Message[1301]: Using default destination of 0 (Access Bank).
0000DE 6E??           03314         MOVWF   r0x08
0000E0 CFF3 F000      03315         MOVFF   PRODL, r0x09
0000E4 C??? F???      03316         MOVFF   r0x08, POSTDEC1
0000E8 C??? F???      03317         MOVFF   r0x09, PRODH
0000EC C??? F???      03318         MOVFF   r0x05, FSR0L
0000F0 C??? F???      03319         MOVFF   r0x06, PRODL
0000F4 50??           03320         MOVF    r0x07, W
0000F6 EC?? F0??      03321         CALL    __gptrput2
                      03322 ;       .line   82; ../../RF24Mesh_cg.c if(type==MESH_ADDR_LOOKUP){
0000FA 50??           03323         MOVF    r0x01, W
0000FC E0??           03324         BZ      _00125_DS_
                      03325 ;       .line   83; ../../RF24Mesh_cg.c int16_t returnAddr = RF24M_getAddress(RF24N_getFrame_buffer()[si
                            zeof(RF24NetworkHeader)]);
0000FE EC?? F0??      03326         CALL    _RF24N_getFrame_buffer
Message[1301]: Using default destination of 0 (Access Bank).
000102 6E??           03327         MOVWF   r0x01
000104 CFF3 F000      03328         MOVFF   PRODL, r0x05
000108 CFF4 F000      03329         MOVFF   PRODH, r0x06
00010C 0E08           03330         MOVLW   0x08
00010E 26??           03331         ADDWF   r0x01, F
000110 0E00           03332         MOVLW   0x00
000112 22??           03333         ADDWFC  r0x05, F
000114 22??           03334         ADDWFC  r0x06, F
000116 C??? F???      03335         MOVFF   r0x01, FSR0L
00011A C??? F???      03336         MOVFF   r0x05, PRODL
00011E 50??           03337         MOVF    r0x06, W
000120 EC?? F0??      03338         CALL    __gptrget1
Message[1301]: Using default destination of 0 (Access Bank).
000124 6E??           03339         MOVWF   r0x01
000126 50??           03340         MOVF    r0x01, W
Message[1301]: Using default destination of 0 (Access Bank).
000128 6EE5           03341         MOVWF   POSTDEC1
00012A EC?? F0??      03342         CALL    _RF24M_getAddress
00012E ????           03343         BANKSEL _RF24M_update_returnAddr_4_206
000130 6F??           03344         MOVWF   _RF24M_update_returnAddr_4_206, B
000132 CFF3 F000      03345         MOVFF   PRODL, (_RF24M_update_returnAddr_4_206 + 1)
000136 52E6           03346         MOVF    POSTINC1, F
                      03347 ;       .line   84; ../../RF24Mesh_cg.c RF24N_write_m(header,&returnAddr,sizeof(returnAddr)); 
000138 0E??           03348         MOVLW   HIGH(_RF24M_update_returnAddr_4_206)
Message[1301]: Using default destination of 0 (Access Bank).
00013A 6E??           03349         MOVWF   r0x05
00013C 0E??           03350         MOVLW   LOW(_RF24M_update_returnAddr_4_206)
Message[1301]: Using default destination of 0 (Access Bank).
00013E 6E??           03351         MOVWF   r0x01
000140 0E80           03352         MOVLW   0x80
Message[1301]: Using default destination of 0 (Access Bank).
000142 6E??           03353         MOVWF   r0x06
000144 0E00           03354         MOVLW   0x00
Message[1301]: Using default destination of 0 (Access Bank).
000146 6EE5           03355         MOVWF   POSTDEC1
gpasm-1.4.0 #1107 (May  9 2015) build/sdcc/pr   12-2-2016  22:31:29         PAGE 75


LOC    OBJECT CODE    LINE  SOURCE TEXT
  VALUE

000148 0E02           03356         MOVLW   0x02
Message[1301]: Using default destination of 0 (Access Bank).
00014A 6EE5           03357         MOVWF   POSTDEC1
00014C 50??           03358         MOVF    r0x06, W
Message[1301]: Using default destination of 0 (Access Bank).
00014E 6EE5           03359         MOVWF   POSTDEC1
000150 50??           03360         MOVF    r0x05, W
Message[1301]: Using default destination of 0 (Access Bank).
000152 6EE5           03361         MOVWF   POSTDEC1
000154 50??           03362         MOVF    r0x01, W
Message[1301]: Using default destination of 0 (Access Bank).
000156 6EE5           03363         MOVWF   POSTDEC1
000158 50??           03364         MOVF    r0x04, W
Message[1301]: Using default destination of 0 (Access Bank).
00015A 6EE5           03365         MOVWF   POSTDEC1
00015C 50??           03366         MOVF    r0x03, W
Message[1301]: Using default destination of 0 (Access Bank).
00015E 6EE5           03367         MOVWF   POSTDEC1
000160 50??           03368         MOVF    r0x02, W
Message[1301]: Using default destination of 0 (Access Bank).
000162 6EE5           03369         MOVWF   POSTDEC1
000164 EC?? F0??      03370         CALL    _RF24N_write_m
000168 0E08           03371         MOVLW   0x08
00016A 26E1           03372         ADDWF   FSR1L, F
00016C B0D8           03373         BTFSC   STATUS, 0
00016E 2AE2           03374         INCF    FSR1H, F
000170 D???           03375         BRA     _00142_DS_
000172                03376 _00125_DS_:
                      03377 ;       .line   86; ../../RF24Mesh_cg.c int16_t returnAddr = RF24M_getNodeID(RF24N_getFrame_buffer()[siz
                            eof(RF24NetworkHeader)]);
000172 EC?? F0??      03378         CALL    _RF24N_getFrame_buffer
Message[1301]: Using default destination of 0 (Access Bank).
000176 6E??           03379         MOVWF   r0x01
000178 CFF3 F000      03380         MOVFF   PRODL, r0x05
00017C CFF4 F000      03381         MOVFF   PRODH, r0x06
000180 0E08           03382         MOVLW   0x08
000182 26??           03383         ADDWF   r0x01, F
000184 0E00           03384         MOVLW   0x00
000186 22??           03385         ADDWFC  r0x05, F
000188 22??           03386         ADDWFC  r0x06, F
00018A C??? F???      03387         MOVFF   r0x01, FSR0L
00018E C??? F???      03388         MOVFF   r0x05, PRODL
000192 50??           03389         MOVF    r0x06, W
000194 EC?? F0??      03390         CALL    __gptrget1
Message[1301]: Using default destination of 0 (Access Bank).
000198 6E??           03391         MOVWF   r0x01
Message[1301]: Using default destination of 0 (Access Bank).
00019A 6A??           03392         CLRF    r0x05
00019C 50??           03393         MOVF    r0x05, W
Message[1301]: Using default destination of 0 (Access Bank).
00019E 6EE5           03394         MOVWF   POSTDEC1
0001A0 50??           03395         MOVF    r0x01, W
Message[1301]: Using default destination of 0 (Access Bank).
gpasm-1.4.0 #1107 (May  9 2015) build/sdcc/pr   12-2-2016  22:31:29         PAGE 76


LOC    OBJECT CODE    LINE  SOURCE TEXT
  VALUE

0001A2 6EE5           03396         MOVWF   POSTDEC1
0001A4 EC?? F0??      03397         CALL    _RF24M_getNodeID
0001A8 ????           03398         BANKSEL _RF24M_update_returnAddr_4_207
0001AA 6F??           03399         MOVWF   _RF24M_update_returnAddr_4_207, B
0001AC CFF3 F000      03400         MOVFF   PRODL, (_RF24M_update_returnAddr_4_207 + 1)
0001B0 52E6           03401         MOVF    POSTINC1, F
0001B2 52E6           03402         MOVF    POSTINC1, F
                      03403 ;       .line   87; ../../RF24Mesh_cg.c RF24N_write_m(header,&returnAddr,sizeof(returnAddr));        
0001B4 0E??           03404         MOVLW   HIGH(_RF24M_update_returnAddr_4_207)
Message[1301]: Using default destination of 0 (Access Bank).
0001B6 6E??           03405         MOVWF   r0x05
0001B8 0E??           03406         MOVLW   LOW(_RF24M_update_returnAddr_4_207)
Message[1301]: Using default destination of 0 (Access Bank).
0001BA 6E??           03407         MOVWF   r0x01
0001BC 0E80           03408         MOVLW   0x80
Message[1301]: Using default destination of 0 (Access Bank).
0001BE 6E??           03409         MOVWF   r0x06
0001C0 0E00           03410         MOVLW   0x00
Message[1301]: Using default destination of 0 (Access Bank).
0001C2 6EE5           03411         MOVWF   POSTDEC1
0001C4 0E02           03412         MOVLW   0x02
Message[1301]: Using default destination of 0 (Access Bank).
0001C6 6EE5           03413         MOVWF   POSTDEC1
0001C8 50??           03414         MOVF    r0x06, W
Message[1301]: Using default destination of 0 (Access Bank).
0001CA 6EE5           03415         MOVWF   POSTDEC1
0001CC 50??           03416         MOVF    r0x05, W
Message[1301]: Using default destination of 0 (Access Bank).
0001CE 6EE5           03417         MOVWF   POSTDEC1
0001D0 50??           03418         MOVF    r0x01, W
Message[1301]: Using default destination of 0 (Access Bank).
0001D2 6EE5           03419         MOVWF   POSTDEC1
0001D4 50??           03420         MOVF    r0x04, W
Message[1301]: Using default destination of 0 (Access Bank).
0001D6 6EE5           03421         MOVWF   POSTDEC1
0001D8 50??           03422         MOVF    r0x03, W
Message[1301]: Using default destination of 0 (Access Bank).
0001DA 6EE5           03423         MOVWF   POSTDEC1
0001DC 50??           03424         MOVF    r0x02, W
Message[1301]: Using default destination of 0 (Access Bank).
0001DE 6EE5           03425         MOVWF   POSTDEC1
0001E0 EC?? F0??      03426         CALL    _RF24N_write_m
0001E4 0E08           03427         MOVLW   0x08
0001E6 26E1           03428         ADDWF   FSR1L, F
0001E8 B0D8           03429         BTFSC   STATUS, 0
0001EA 2AE2           03430         INCF    FSR1H, F
0001EC D???           03431         BRA     _00142_DS_
0001EE                03432 _00138_DS_:
                      03433 ;       .line   92; ../../RF24Mesh_cg.c if(type == MESH_ADDR_RELEASE ){
0001EE 50??           03434         MOVF    r0x00, W
0001F0 0AC5           03435         XORLW   0xc5
0001F2 E0??           03436         BZ      _00191_DS_
0001F4 D???           03437         BRA     _00135_DS_
gpasm-1.4.0 #1107 (May  9 2015) build/sdcc/pr   12-2-2016  22:31:29         PAGE 77


LOC    OBJECT CODE    LINE  SOURCE TEXT
  VALUE

0001F6                03438 _00191_DS_:
                      03439 ;       .line   94; ../../RF24Mesh_cg.c uint16_t *fromAddr = (uint16_t*)RF24N_getFrame_buffer();
0001F6 EC?? F0??      03440         CALL    _RF24N_getFrame_buffer
Message[1301]: Using default destination of 0 (Access Bank).
0001FA 6E??           03441         MOVWF   r0x01
0001FC CFF3 F000      03442         MOVFF   PRODL, r0x02
000200 CFF4 F000      03443         MOVFF   PRODH, r0x03
000204 50??           03444         MOVF    r0x03, W
Message[1301]: Using default destination of 0 (Access Bank).
000206 6E??           03445         MOVWF   r0x03
000208 50??           03446         MOVF    r0x02, W
Message[1301]: Using default destination of 0 (Access Bank).
00020A 6E??           03447         MOVWF   r0x02
00020C 50??           03448         MOVF    r0x01, W
Message[1301]: Using default destination of 0 (Access Bank).
00020E 6E??           03449         MOVWF   r0x01
                      03450 ;       .line   95; ../../RF24Mesh_cg.c for(i=0; i< mesh.addrListTop; i++){
Message[1301]: Using default destination of 0 (Access Bank).
000210 6A??           03451         CLRF    r0x04
Message[1301]: Using default destination of 0 (Access Bank).
000212 6A??           03452         CLRF    r0x05
Message[1301]: Using default destination of 0 (Access Bank).
000214 6A??           03453         CLRF    r0x06
000216                03454 _00144_DS_:
000216 ????           03455         BANKSEL (_mesh + 6)
000218 51??           03456         MOVF    (_mesh + 6), W, B
00021A 5C??           03457         SUBWF   r0x04, W
00021C B0D8           03458         BTFSC   STATUS, 0
00021E D???           03459         BRA     _00142_DS_
                      03460 ;       .line   96; ../../RF24Mesh_cg.c if(mesh.addrList[i].address == *fromAddr){
000220 50??           03461         MOVF    r0x05, W
000222 ????           03462         BANKSEL (_mesh + 3)
000224 25??           03463         ADDWF   (_mesh + 3), W, B
Message[1301]: Using default destination of 0 (Access Bank).
000226 6E??           03464         MOVWF   r0x07
000228 50??           03465         MOVF    r0x06, W
00022A ????           03466         BANKSEL (_mesh + 4)
00022C 21??           03467         ADDWFC  (_mesh + 4), W, B
Message[1301]: Using default destination of 0 (Access Bank).
00022E 6E??           03468         MOVWF   r0x08
Message[1301]: Using default destination of 0 (Access Bank).
000230 6AE8           03469         CLRF    WREG
000232 ????           03470         BANKSEL (_mesh + 5)
000234 21??           03471         ADDWFC  (_mesh + 5), W, B
Message[1301]: Using default destination of 0 (Access Bank).
000236 6E??           03472         MOVWF   r0x09
000238 2A??           03473         INCF    r0x07, F
00023A E3??           03474         BNC     _00193_DS_
00023C 4A??           03475         INFSNZ  r0x08, F
00023E 2A??           03476         INCF    r0x09, F
000240                03477 _00193_DS_:
000240 C??? F???      03478         MOVFF   r0x07, FSR0L
000244 C??? F???      03479         MOVFF   r0x08, PRODL
gpasm-1.4.0 #1107 (May  9 2015) build/sdcc/pr   12-2-2016  22:31:29         PAGE 78


LOC    OBJECT CODE    LINE  SOURCE TEXT
  VALUE

000248 50??           03480         MOVF    r0x09, W
00024A EC?? F0??      03481         CALL    __gptrget2
Message[1301]: Using default destination of 0 (Access Bank).
00024E 6E??           03482         MOVWF   r0x0a
000250 CFF3 F000      03483         MOVFF   PRODL, r0x0b
000254 C??? F???      03484         MOVFF   r0x01, FSR0L
000258 C??? F???      03485         MOVFF   r0x02, PRODL
00025C 50??           03486         MOVF    r0x03, W
00025E EC?? F0??      03487         CALL    __gptrget2
Message[1301]: Using default destination of 0 (Access Bank).
000262 6E??           03488         MOVWF   r0x0c
000264 CFF3 F000      03489         MOVFF   PRODL, r0x0d
000268 50??           03490         MOVF    r0x0a, W
00026A 18??           03491         XORWF   r0x0c, W
00026C E1??           03492         BNZ     _00194_DS_
00026E 50??           03493         MOVF    r0x0b, W
000270 18??           03494         XORWF   r0x0d, W
000272 E0??           03495         BZ      _00195_DS_
000274                03496 _00194_DS_:
000274 D???           03497         BRA     _00145_DS_
000276                03498 _00195_DS_:
                      03499 ;       .line   97; ../../RF24Mesh_cg.c mesh.addrList[i].address = 0;
000276 0E00           03500         MOVLW   0x00
Message[1301]: Using default destination of 0 (Access Bank).
000278 6EE5           03501         MOVWF   POSTDEC1
00027A 0E00           03502         MOVLW   0x00
Message[1301]: Using default destination of 0 (Access Bank).
00027C 6EF4           03503         MOVWF   PRODH
00027E C??? F???      03504         MOVFF   r0x07, FSR0L
000282 C??? F???      03505         MOVFF   r0x08, PRODL
000286 50??           03506         MOVF    r0x09, W
000288 EC?? F0??      03507         CALL    __gptrput2
00028C                03508 _00145_DS_:
                      03509 ;       .line   95; ../../RF24Mesh_cg.c for(i=0; i< mesh.addrListTop; i++){
00028C 0E03           03510         MOVLW   0x03
00028E 26??           03511         ADDWF   r0x05, F
000290 B0D8           03512         BTFSC   STATUS, 0
000292 2A??           03513         INCF    r0x06, F
000294 2A??           03514         INCF    r0x04, F
000296 D???           03515         BRA     _00144_DS_
000298                03516 _00135_DS_:
                      03517 ;       .line   103; ../../RF24Mesh_cg.c        if(type == MESH_ADDR_CONFIRM ){
000298 50??           03518         MOVF    r0x00, W
00029A 0A81           03519         XORLW   0x81
00029C E1??           03520         BNZ     _00142_DS_
                      03521 ;       .line   104; ../../RF24Mesh_cg.c        RF24NetworkHeader * header = (RF24NetworkHeader*)RF24N_g
                            etFrame_buffer();
00029E EC?? F0??      03522         CALL    _RF24N_getFrame_buffer
Message[1301]: Using default destination of 0 (Access Bank).
0002A2 6E??           03523         MOVWF   r0x01
0002A4 CFF3 F000      03524         MOVFF   PRODL, r0x02
0002A8 CFF4 F000      03525         MOVFF   PRODH, r0x03
0002AC 50??           03526         MOVF    r0x03, W
gpasm-1.4.0 #1107 (May  9 2015) build/sdcc/pr   12-2-2016  22:31:29         PAGE 79


LOC    OBJECT CODE    LINE  SOURCE TEXT
  VALUE

Message[1301]: Using default destination of 0 (Access Bank).
0002AE 6E??           03527         MOVWF   r0x03
0002B0 50??           03528         MOVF    r0x02, W
Message[1301]: Using default destination of 0 (Access Bank).
0002B2 6E??           03529         MOVWF   r0x02
0002B4 50??           03530         MOVF    r0x01, W
Message[1301]: Using default destination of 0 (Access Bank).
0002B6 6E??           03531         MOVWF   r0x01
                      03532 ;       .line   105; ../../RF24Mesh_cg.c        if(header->from_node == mesh.lastAddress){
0002B8 C??? F???      03533         MOVFF   r0x01, FSR0L
0002BC C??? F???      03534         MOVFF   r0x02, PRODL
0002C0 50??           03535         MOVF    r0x03, W
0002C2 EC?? F0??      03536         CALL    __gptrget2
Message[1301]: Using default destination of 0 (Access Bank).
0002C6 6E??           03537         MOVWF   r0x01
0002C8 CFF3 F000      03538         MOVFF   PRODL, r0x02
0002CC C??? F???      03539         MOVFF   (_mesh + 19), r0x03
0002D0 C??? F???      03540         MOVFF   (_mesh + 20), r0x04
0002D4 50??           03541         MOVF    r0x01, W
0002D6 18??           03542         XORWF   r0x03, W
0002D8 E1??           03543         BNZ     _00198_DS_
0002DA 50??           03544         MOVF    r0x02, W
0002DC 18??           03545         XORWF   r0x04, W
0002DE E0??           03546         BZ      _00199_DS_
0002E0                03547 _00198_DS_:
0002E0 D???           03548         BRA     _00142_DS_
0002E2                03549 _00199_DS_:
0002E2 ????           03550         BANKSEL (_mesh + 17)
                      03551 ;       .line   106; ../../RF24Mesh_cg.c        RF24M_setAddress(mesh.lastID,mesh.lastAddress);
0002E4 51??           03552         MOVF    (_mesh + 17), W, B
Message[1301]: Using default destination of 0 (Access Bank).
0002E6 6E??           03553         MOVWF   r0x01
0002E8 50??           03554         MOVF    r0x04, W
Message[1301]: Using default destination of 0 (Access Bank).
0002EA 6EE5           03555         MOVWF   POSTDEC1
0002EC 50??           03556         MOVF    r0x03, W
Message[1301]: Using default destination of 0 (Access Bank).
0002EE 6EE5           03557         MOVWF   POSTDEC1
0002F0 50??           03558         MOVF    r0x01, W
Message[1301]: Using default destination of 0 (Access Bank).
0002F2 6EE5           03559         MOVWF   POSTDEC1
0002F4 EC?? F0??      03560         CALL    _RF24M_setAddress
0002F8 0E03           03561         MOVLW   0x03
0002FA 26E1           03562         ADDWF   FSR1L, F
0002FC B0D8           03563         BTFSC   STATUS, 0
0002FE 2AE2           03564         INCF    FSR1H, F
000300                03565 _00142_DS_:
                      03566 ;       .line   113; ../../RF24Mesh_cg.c        return type;
000300 50??           03567         MOVF    r0x00, W
000302                03568 _00146_DS_:
000302 CFE4 F000      03569         MOVFF   PREINC1, r0x0d
000306 CFE4 F000      03570         MOVFF   PREINC1, r0x0c
00030A CFE4 F000      03571         MOVFF   PREINC1, r0x0b
gpasm-1.4.0 #1107 (May  9 2015) build/sdcc/pr   12-2-2016  22:31:29         PAGE 80


LOC    OBJECT CODE    LINE  SOURCE TEXT
  VALUE

00030E CFE4 F000      03572         MOVFF   PREINC1, r0x0a
000312 CFE4 F000      03573         MOVFF   PREINC1, r0x09
000316 CFE4 F000      03574         MOVFF   PREINC1, r0x08
00031A CFE4 F000      03575         MOVFF   PREINC1, r0x07
00031E CFE4 F000      03576         MOVFF   PREINC1, r0x06
000322 CFE4 F000      03577         MOVFF   PREINC1, r0x05
000326 CFE4 F000      03578         MOVFF   PREINC1, r0x04
00032A CFE4 F000      03579         MOVFF   PREINC1, r0x03
00032E CFE4 F000      03580         MOVFF   PREINC1, r0x02
000332 CFE4 F000      03581         MOVFF   PREINC1, r0x01
000336 CFE4 F000      03582         MOVFF   PREINC1, r0x00
00033A CFE4 FFD9      03583         MOVFF   PREINC1, FSR2L
00033E CFE4 FFDA      03584         MOVFF   PREINC1, FSR2H
000342 0012           03585         RETURN  
                      03586 
                      03587 ; ; Starting pCode block
                      03588 S_RF24Mesh_cg__RF24M_begin      code
000000                03589 _RF24M_begin:
                      03590 ;       .line   36; ../../RF24Mesh_cg.c uint8_t RF24M_begin( uint8_t channel, rf24_datarate_e data_rate,
                             uint32_t timeout){
000000 CFDA FFE5      03591         MOVFF   FSR2H, POSTDEC1
000004 CFD9 FFE5      03592         MOVFF   FSR2L, POSTDEC1
000008 CFE2 FFDA      03593         MOVFF   FSR1H, FSR2H
00000C CFE1 FFD9      03594         MOVFF   FSR1L, FSR2L
000010 C??? F???      03595         MOVFF   r0x00, POSTDEC1
000014 C??? F???      03596         MOVFF   r0x01, POSTDEC1
000018 C??? F???      03597         MOVFF   r0x02, POSTDEC1
00001C C??? F???      03598         MOVFF   r0x03, POSTDEC1
000020 C??? F???      03599         MOVFF   r0x04, POSTDEC1
000024 C??? F???      03600         MOVFF   r0x05, POSTDEC1
000028 0E03           03601         MOVLW   0x03
00002A CFDB F000      03602         MOVFF   PLUSW2, r0x00
00002E 0E04           03603         MOVLW   0x04
000030 CFDB F000      03604         MOVFF   PLUSW2, r0x01
000034 0E05           03605         MOVLW   0x05
000036 CFDB F000      03606         MOVFF   PLUSW2, r0x02
00003A 0E06           03607         MOVLW   0x06
00003C CFDB F000      03608         MOVFF   PLUSW2, r0x03
000040 0E07           03609         MOVLW   0x07
000042 CFDB F000      03610         MOVFF   PLUSW2, r0x04
000046 0E08           03611         MOVLW   0x08
000048 CFDB F000      03612         MOVFF   PLUSW2, r0x05
                      03613 ;       .line   38; ../../RF24Mesh_cg.c RF24_begin();
00004C EC?? F0??      03614         CALL    _RF24_begin
                      03615 ;       .line   39; ../../RF24Mesh_cg.c mesh.radio_channel = channel;
000050 50??           03616         MOVF    r0x00, W
000052 ????           03617         BANKSEL (_mesh + 16)
000054 6F??           03618         MOVWF   (_mesh + 16), B
                      03619 ;       .line   40; ../../RF24Mesh_cg.c RF24_setChannel(mesh.radio_channel);
000056 50??           03620         MOVF    r0x00, W
Message[1301]: Using default destination of 0 (Access Bank).
000058 6EE5           03621         MOVWF   POSTDEC1
00005A EC?? F0??      03622         CALL    _RF24_setChannel
gpasm-1.4.0 #1107 (May  9 2015) build/sdcc/pr   12-2-2016  22:31:29         PAGE 81


LOC    OBJECT CODE    LINE  SOURCE TEXT
  VALUE

00005E 52E6           03623         MOVF    POSTINC1, F
                      03624 ;       .line   41; ../../RF24Mesh_cg.c RF24_setDataRate(data_rate);  
000060 50??           03625         MOVF    r0x01, W
Message[1301]: Using default destination of 0 (Access Bank).
000062 6EE5           03626         MOVWF   POSTDEC1
000064 EC?? F0??      03627         CALL    _RF24_setDataRate
000068 52E6           03628         MOVF    POSTINC1, F
                      03629 ;       .line   42; ../../RF24Mesh_cg.c RF24N_setReturnSysMsgs(); 
00006A EC?? F0??      03630         CALL    _RF24N_setReturnSysMsgs
                      03631 ;       .line   45; ../../RF24Mesh_cg.c if(RF24M_getNodeID(MESH_BLANK_ID)){ //Not master node
00006E 0EFF           03632         MOVLW   0xff
Message[1301]: Using default destination of 0 (Access Bank).
000070 6EE5           03633         MOVWF   POSTDEC1
000072 0EFF           03634         MOVLW   0xff
Message[1301]: Using default destination of 0 (Access Bank).
000074 6EE5           03635         MOVWF   POSTDEC1
000076 EC?? F0??      03636         CALL    _RF24M_getNodeID
Message[1301]: Using default destination of 0 (Access Bank).
00007A 6E??           03637         MOVWF   r0x00
00007C CFF3 F000      03638         MOVFF   PRODL, r0x01
000080 52E6           03639         MOVF    POSTINC1, F
000082 52E6           03640         MOVF    POSTINC1, F
000084 50??           03641         MOVF    r0x00, W
000086 10??           03642         IORWF   r0x01, W
000088 E0??           03643         BZ      _00113_DS_
                      03644 ;       .line   46; ../../RF24Mesh_cg.c mesh.mesh_address = MESH_DEFAULT_ADDRESS;
00008A 0E24           03645         MOVLW   0x24
00008C ????           03646         BANKSEL (_mesh + 1)
00008E 6F??           03647         MOVWF   (_mesh + 1), B
000090 0E09           03648         MOVLW   0x09
000092 ????           03649         BANKSEL (_mesh + 2)
000094 6F??           03650         MOVWF   (_mesh + 2), B
                      03651 ;       .line   47; ../../RF24Mesh_cg.c if(!RF24M_renewAddress(timeout)){
000096 50??           03652         MOVF    r0x05, W
Message[1301]: Using default destination of 0 (Access Bank).
000098 6EE5           03653         MOVWF   POSTDEC1
00009A 50??           03654         MOVF    r0x04, W
Message[1301]: Using default destination of 0 (Access Bank).
00009C 6EE5           03655         MOVWF   POSTDEC1
00009E 50??           03656         MOVF    r0x03, W
Message[1301]: Using default destination of 0 (Access Bank).
0000A0 6EE5           03657         MOVWF   POSTDEC1
0000A2 50??           03658         MOVF    r0x02, W
Message[1301]: Using default destination of 0 (Access Bank).
0000A4 6EE5           03659         MOVWF   POSTDEC1
0000A6 EC?? F0??      03660         CALL    _RF24M_renewAddress
Message[1301]: Using default destination of 0 (Access Bank).
0000AA 6E??           03661         MOVWF   r0x00
0000AC CFF3 F000      03662         MOVFF   PRODL, r0x01
0000B0 0E04           03663         MOVLW   0x04
0000B2 26E1           03664         ADDWF   FSR1L, F
0000B4 B0D8           03665         BTFSC   STATUS, 0
0000B6 2AE2           03666         INCF    FSR1H, F
gpasm-1.4.0 #1107 (May  9 2015) build/sdcc/pr   12-2-2016  22:31:29         PAGE 82


LOC    OBJECT CODE    LINE  SOURCE TEXT
  VALUE

0000B8 50??           03667         MOVF    r0x00, W
0000BA 10??           03668         IORWF   r0x01, W
0000BC E1??           03669         BNZ     _00114_DS_
                      03670 ;       .line   48; ../../RF24Mesh_cg.c return 0;
Message[1301]: Using default destination of 0 (Access Bank).
0000BE 6AE8           03671         CLRF    WREG
0000C0 D???           03672         BRA     _00115_DS_
0000C2                03673 _00113_DS_:
                      03674 ;       .line   52; ../../RF24Mesh_cg.c mesh.addrList = (addrListStruct*)malloc(2 * sizeof(addrListStruc
                            t));
0000C2 0E00           03675         MOVLW   0x00
Message[1301]: Using default destination of 0 (Access Bank).
0000C4 6EE5           03676         MOVWF   POSTDEC1
0000C6 0E06           03677         MOVLW   0x06
Message[1301]: Using default destination of 0 (Access Bank).
0000C8 6EE5           03678         MOVWF   POSTDEC1
0000CA EC?? F0??      03679         CALL    _malloc
Message[1301]: Using default destination of 0 (Access Bank).
0000CE 6E??           03680         MOVWF   r0x00
0000D0 CFF3 F000      03681         MOVFF   PRODL, r0x01
0000D4 CFF4 F000      03682         MOVFF   PRODH, r0x02
0000D8 52E6           03683         MOVF    POSTINC1, F
0000DA 52E6           03684         MOVF    POSTINC1, F
0000DC 50??           03685         MOVF    r0x02, W
Message[1301]: Using default destination of 0 (Access Bank).
0000DE 6E??           03686         MOVWF   r0x02
0000E0 50??           03687         MOVF    r0x01, W
Message[1301]: Using default destination of 0 (Access Bank).
0000E2 6E??           03688         MOVWF   r0x01
0000E4 50??           03689         MOVF    r0x00, W
Message[1301]: Using default destination of 0 (Access Bank).
0000E6 6E??           03690         MOVWF   r0x00
0000E8 50??           03691         MOVF    r0x00, W
0000EA ????           03692         BANKSEL (_mesh + 3)
0000EC 6F??           03693         MOVWF   (_mesh + 3), B
0000EE 50??           03694         MOVF    r0x01, W
0000F0 ????           03695         BANKSEL (_mesh + 4)
0000F2 6F??           03696         MOVWF   (_mesh + 4), B
0000F4 50??           03697         MOVF    r0x02, W
0000F6 ????           03698         BANKSEL (_mesh + 5)
0000F8 6F??           03699         MOVWF   (_mesh + 5), B
0000FA ????           03700         BANKSEL (_mesh + 6)
                      03701 ;       .line   53; ../../RF24Mesh_cg.c mesh.addrListTop = 0;
0000FC 6B??           03702         CLRF    (_mesh + 6), B
                      03703 ;       .line   54; ../../RF24Mesh_cg.c RF24M_loadDHCP();
0000FE EC?? F0??      03704         CALL    _RF24M_loadDHCP
000102 ????           03705         BANKSEL (_mesh + 1)
                      03706 ;       .line   56; ../../RF24Mesh_cg.c mesh.mesh_address = 0;
000104 6B??           03707         CLRF    (_mesh + 1), B
000106 ????           03708         BANKSEL (_mesh + 2)
000108 6B??           03709         CLRF    (_mesh + 2), B
00010A ????           03710         BANKSEL (_mesh + 2)
                      03711 ;       .line   57; ../../RF24Mesh_cg.c RF24N_begin(mesh.mesh_address);
gpasm-1.4.0 #1107 (May  9 2015) build/sdcc/pr   12-2-2016  22:31:29         PAGE 83


LOC    OBJECT CODE    LINE  SOURCE TEXT
  VALUE

00010C 51??           03712         MOVF    (_mesh + 2), W, B
Message[1301]: Using default destination of 0 (Access Bank).
00010E 6EE5           03713         MOVWF   POSTDEC1
000110 ????           03714         BANKSEL (_mesh + 1)
000112 51??           03715         MOVF    (_mesh + 1), W, B
Message[1301]: Using default destination of 0 (Access Bank).
000114 6EE5           03716         MOVWF   POSTDEC1
000116 EC?? F0??      03717         CALL    _RF24N_begin
00011A 52E6           03718         MOVF    POSTINC1, F
00011C 52E6           03719         MOVF    POSTINC1, F
00011E                03720 _00114_DS_:
                      03721 ;       .line   60; ../../RF24Mesh_cg.c return 1;
00011E 0E01           03722         MOVLW   0x01
000120                03723 _00115_DS_:
000120 CFE4 F000      03724         MOVFF   PREINC1, r0x05
000124 CFE4 F000      03725         MOVFF   PREINC1, r0x04
000128 CFE4 F000      03726         MOVFF   PREINC1, r0x03
00012C CFE4 F000      03727         MOVFF   PREINC1, r0x02
000130 CFE4 F000      03728         MOVFF   PREINC1, r0x01
000134 CFE4 F000      03729         MOVFF   PREINC1, r0x00
000138 CFE4 FFD9      03730         MOVFF   PREINC1, FSR2L
00013C CFE4 FFDA      03731         MOVFF   PREINC1, FSR2H
000140 0012           03732         RETURN  
                      03733 
                      03734 ; ; Starting pCode block
                      03735 S_RF24Mesh_cg__RF24M_init       code
000000                03736 _RF24M_init:
                      03737 ;       .line   29; ../../RF24Mesh_cg.c void RF24M_init(void)
000000 CFDA FFE5      03738         MOVFF   FSR2H, POSTDEC1
000004 CFD9 FFE5      03739         MOVFF   FSR2L, POSTDEC1
000008 CFE2 FFDA      03740         MOVFF   FSR1H, FSR2H
00000C CFE1 FFD9      03741         MOVFF   FSR1L, FSR2L
                      03742 ;       .line   31; ../../RF24Mesh_cg.c }
000010 CFE4 FFD9      03743         MOVFF   PREINC1, FSR2L
000014 CFE4 FFDA      03744         MOVFF   PREINC1, FSR2H
000018 0012           03745         RETURN  
                      03746 
                      03747 
                      03748 
                      03749 ; Statistics:
                      03750 ; code size:     7374 (0x1cce) bytes ( 5.63%)
                      03751 ;                3687 (0x0e67) words
                      03752 ; udata size:     100 (0x0064) bytes ( 2.60%)
                      03753 ; access size:     21 (0x0015) bytes
                      03754 
                      03755 
                      03756         end
gpasm-1.4.0 #1107 (May  9 2015) build/sdcc/pr   12-2-2016  22:31:29         PAGE 84


SYMBOL TABLE
  LABEL                             VALUE

FSR0H                             00000FEA
FSR0L                             00000FE9
FSR1H                             00000FE2
FSR1L                             00000FE1
FSR2H                             00000FDA
FSR2L                             00000FD9
INDF0                             00000FEF
PLUSW2                            00000FDB
POSTDEC1                          00000FE5
POSTINC0                          00000FEE
POSTINC1                          00000FE6
PREINC1                           00000FE4
PRODH                             00000FF4
PRODL                             00000FF3
STATUS                            00000FD8
WREG                              00000FE8
_00113_DS_                        000000C2
_00114_DS_                        0000011E
_00115_DS_                        00000120
_00121_DS_                        00000064
_00123_DS_                        00000070
_00125_DS_                        00000172
_00135_DS_                        00000298
_00137_DS_                        000000A4
_00138_DS_                        000001EE
_00142_DS_                        00000300
_00144_DS_                        00000216
_00145_DS_                        0000028C
_00146_DS_                        00000302
_00182_DS_                        0000005E
_00183_DS_                        00000060
_00187_DS_                        00000098
_00191_DS_                        000001F6
_00193_DS_                        00000240
_00194_DS_                        00000274
_00195_DS_                        00000276
_00198_DS_                        000002E0
_00199_DS_                        000002E2
_00205_DS_                        00000082
_00206_DS_                        000000EE
_00211_DS_                        0000007C
_00212_DS_                        0000007E
_00218_DS_                        000000C8
_00219_DS_                        00000138
_00220_DS_                        0000013C
_00222_DS_                        000000D8
_00226_DS_                        00000162
_00227_DS_                        00000192
_00243_DS_                        000000C2
_00244_DS_                        000000C4
_00245_DS_                        00000128
_00246_DS_                        00000136
_00259_DS_                        0000002C
gpasm-1.4.0 #1107 (May  9 2015) build/sdcc/pr   12-2-2016  22:31:29         PAGE 85


SYMBOL TABLE
  LABEL                             VALUE 

_00260_DS_                        00000038
_00265_DS_                        00000060
_00266_DS_                        00000064
_00271_DS_                        0000002A
_00273_DS_                        000000E4
_00275_DS_                        000000EC
_00276_DS_                        000000EE
_00297_DS_                        00000048
_00305_DS_                        000000F2
_00307_DS_                        000000F8
_00309_DS_                        00000110
_00311_DS_                        0000011C
_00314_DS_                        000001A8
_00318_DS_                        000001F4
_00319_DS_                        000001FA
_00321_DS_                        0000006E
_00322_DS_                        000000E6
_00323_DS_                        00000280
_00325_DS_                        00000272
_00326_DS_                        0000027A
_00363_DS_                        000000C2
_00364_DS_                        00000108
_00365_DS_                        0000010A
_00368_DS_                        000001EC
_00376_DS_                        00000068
_00377_DS_                        00000078
_00382_DS_                        00000122
_00385_DS_                        000001B0
_00387_DS_                        000001FC
_00391_DS_                        0000010E
_00392_DS_                        00000262
_00394_DS_                        0000008E
_00395_DS_                        00000102
_00396_DS_                        00000266
_00431_DS_                        00000058
_00432_DS_                        0000005A
_00434_DS_                        000000E6
_00435_DS_                        000000E8
_00436_DS_                        0000011A
_00437_DS_                        0000011C
_00440_DS_                        000001F4
_00446_DS_                        00000032
_00448_DS_                        000000C0
_00449_DS_                        000000C2
_00457_DS_                        0000002C
_00458_DS_                        0000002E
_00464_DS_                        00000074
_00466_DS_                        0000011A
_00467_DS_                        000000C8
_00469_DS_                        000001A6
_00470_DS_                        000001C0
_00485_DS_                        00000112
_00491_DS_                        00000150
gpasm-1.4.0 #1107 (May  9 2015) build/sdcc/pr   12-2-2016  22:31:29         PAGE 86


SYMBOL TABLE
  LABEL                             VALUE 

_00499_DS_                        000000DC
_00500_DS_                        0000019E
_00503_DS_                        0000025C
_00505_DS_                        000002AA
_00506_DS_                        000002BE
_00508_DS_                        000002C8
_00509_DS_                        0000037A
_00510_DS_                        0000037E
_00513_DS_                        00000430
_00514_DS_                        000003C6
_00516_DS_                        00000442
_00518_DS_                        000001A0
_00520_DS_                        00000444
_00536_DS_                        00000192
_00567_DS_                        00000188
_00570_DS_                        00000294
_00594_DS_                        000000BE
_00598_DS_                        0000007A
_00599_DS_                        000000AE
_00600_DS_                        000001B0
_00617_DS_                        00000104
_00619_DS_                        00000126
_00635_DS_                        00000068
_00636_DS_                        0000006A
_00638_DS_                        000000B8
_00639_DS_                        000000DE
_00641_DS_                        000000FA
_00643_DS_                        00000104
_00644_DS_                        00000108
_00647_DS_                        000001DC
_00650_DS_                        000001CA
_00651_DS_                        000001F2
_00656_DS_                        000002C6
_00657_DS_                        00000326
_00660_DS_                        0000035A
_00662_DS_                        000003B0
_00665_DS_                        000003CE
_00668_DS_                        0000015A
_00669_DS_                        000001E2
_00671_DS_                        0000010C
_00672_DS_                        000003D2
_00729_DS_                        000000CC
_00730_DS_                        00000132
_00731_DS_                        0000012A
_00734_DS_                        000001B2
_00735_DS_                        000001B4
_00738_DS_                        000001DA
_00741_DS_                        00000224
_00744_DS_                        000003AC
_ADCON0                           00000000
_ADCON0bits                       00000000
_ADCON1                           00000000
_ADCON1bits                       00000000
gpasm-1.4.0 #1107 (May  9 2015) build/sdcc/pr   12-2-2016  22:31:29         PAGE 87


SYMBOL TABLE
  LABEL                             VALUE 

_ADCON2                           00000000
_ADCON2bits                       00000000
_ADRES                            00000000
_ADRESH                           00000000
_ADRESL                           00000000
_BAUDCON                          00000000
_BAUDCONbits                      00000000
_BAUDCTL                          00000000
_BAUDCTLbits                      00000000
_BSR                              00000000
_CCP1CON                          00000000
_CCP1CONbits                      00000000
_CCP2CON                          00000000
_CCP2CONbits                      00000000
_CCPR1                            00000000
_CCPR1H                           00000000
_CCPR1L                           00000000
_CCPR2                            00000000
_CCPR2H                           00000000
_CCPR2L                           00000000
_CMCON                            00000000
_CMCONbits                        00000000
_CVRCON                           00000000
_CVRCONbits                       00000000
_DDRA                             00000000
_DDRAbits                         00000000
_DDRB                             00000000
_DDRBbits                         00000000
_DDRC                             00000000
_DDRCbits                         00000000
_DDRD                             00000000
_DDRDbits                         00000000
_DDRE                             00000000
_DDREbits                         00000000
_ECCP1AS                          00000000
_ECCP1ASbits                      00000000
_EEADR                            00000000
_EEADRH                           00000000
_EECON1                           00000000
_EECON1bits                       00000000
_EECON2                           00000000
_EEDATA                           00000000
_FSR0H                            00000000
_FSR0L                            00000000
_FSR1H                            00000000
_FSR1L                            00000000
_FSR2H                            00000000
_FSR2L                            00000000
_HLVDCON                          00000000
_HLVDCONbits                      00000000
_INDF0                            00000000
_INDF1                            00000000
_INDF2                            00000000
gpasm-1.4.0 #1107 (May  9 2015) build/sdcc/pr   12-2-2016  22:31:29         PAGE 88


SYMBOL TABLE
  LABEL                             VALUE 

_INTCON                           00000000
_INTCON2                          00000000
_INTCON2bits                      00000000
_INTCON3                          00000000
_INTCON3bits                      00000000
_INTCONbits                       00000000
_IPR1                             00000000
_IPR1bits                         00000000
_IPR2                             00000000
_IPR2bits                         00000000
_LATA                             00000000
_LATAbits                         00000000
_LATB                             00000000
_LATBbits                         00000000
_LATC                             00000000
_LATCbits                         00000000
_LATD                             00000000
_LATDbits                         00000000
_LATE                             00000000
_LATEbits                         00000000
_LVDCON                           00000000
_LVDCONbits                       00000000
_OSCCON                           00000000
_OSCCONbits                       00000000
_OSCTUNE                          00000000
_OSCTUNEbits                      00000000
_PC                               00000000
_PCL                              00000000
_PCLATH                           00000000
_PCLATU                           00000000
_PIE1                             00000000
_PIE1bits                         00000000
_PIE2                             00000000
_PIE2bits                         00000000
_PIR1                             00000000
_PIR1bits                         00000000
_PIR2                             00000000
_PIR2bits                         00000000
_PLUSW0                           00000000
_PLUSW1                           00000000
_PLUSW2                           00000000
_PORTA                            00000000
_PORTAbits                        00000000
_PORTB                            00000000
_PORTBbits                        00000000
_PORTC                            00000000
_PORTCbits                        00000000
_PORTD                            00000000
_PORTDbits                        00000000
_PORTE                            00000000
_PORTEbits                        00000000
_POSTDEC0                         00000000
_POSTDEC1                         00000000
gpasm-1.4.0 #1107 (May  9 2015) build/sdcc/pr   12-2-2016  22:31:29         PAGE 89


SYMBOL TABLE
  LABEL                             VALUE 

_POSTDEC2                         00000000
_POSTINC0                         00000000
_POSTINC1                         00000000
_POSTINC2                         00000000
_PR2                              00000000
_PREINC0                          00000000
_PREINC1                          00000000
_PREINC2                          00000000
_PROD                             00000000
_PRODH                            00000000
_PRODL                            00000000
_PWM1CON                          00000000
_PWM1CONbits                      00000000
_RCON                             00000000
_RCONbits                         00000000
_RCREG                            00000000
_RCSTA                            00000000
_RCSTAbits                        00000000
_RF24M_DHCP                       00000000
_RF24M_DHCP_header_1_292          00000000
_RF24M_DHCP_newAddress_1_292      00000000
_RF24M_begin                      00000000
_RF24M_checkConnection            00000000
_RF24M_checkConnection_header_2_228  00000000
_RF24M_getAddress                 00000000
_RF24M_getAddress_address_1_233   00000000
_RF24M_getAddress_header_1_233    00000000
_RF24M_getAddress_nodeID_1_232    00000000
_RF24M_getNodeID                  00000000
_RF24M_getNodeID_ID_3_252         00000000
_RF24M_getNodeID_address_1_243    00000000
_RF24M_getNodeID_header_2_250     00000000
_RF24M_init                       00000000
_RF24M_loadDHCP                   00000000
_RF24M_releaseAddress             00000000
_RF24M_releaseAddress_header_1_256  00000000
_RF24M_renewAddress               00000000
_RF24M_requestAddress             00000000
_RF24M_requestAddress_contactNode_1_265  00000000
_RF24M_requestAddress_header_1_265  00000000
_RF24M_requestAddress_newAddress_1_265  00000000
_RF24M_saveDHCP                   00000000
_RF24M_setAddress                 00000000
_RF24M_setChannel                 00000000
_RF24M_setChild                   00000000
_RF24M_setNodeID                  00000000
_RF24M_setStaticAddress           00000000
_RF24M_update                     00000000
_RF24M_update_returnAddr_4_206    00000000
_RF24M_update_returnAddr_4_207    00000000
_RF24M_write                      00000000
_RF24M_write_n                    00000000
_RF24M_write_n_header_1_214       00000000
gpasm-1.4.0 #1107 (May  9 2015) build/sdcc/pr   12-2-2016  22:31:29         PAGE 90


SYMBOL TABLE
  LABEL                             VALUE 

_RF24NH_init                      00000000
_RF24N_begin                      00000000
_RF24N_getFrame_buffer            00000000
_RF24N_getNetworkFlags            00000000
_RF24N_getRouteTimeout            00000000
_RF24N_multicast                  00000000
_RF24N_setNetworkFlags            00000000
_RF24N_setReturnSysMsgs           00000000
_RF24N_update                     00000000
_RF24N_write_                     00000000
_RF24N_write_m                    00000000
_RF24_available                   00000000
_RF24_begin                       00000000
_RF24_rxFifoFull                  00000000
_RF24_setChannel                  00000000
_RF24_setDataRate                 00000000
_RF24_startListening              00000000
_RF24_stopListening               00000000
_SPBRG                            00000000
_SPBRGH                           00000000
_SSPADD                           00000000
_SSPBUF                           00000000
_SSPCON1                          00000000
_SSPCON1bits                      00000000
_SSPCON2                          00000000
_SSPCON2bits                      00000000
_SSPSTAT                          00000000
_SSPSTATbits                      00000000
_STATUS                           00000000
_STATUSbits                       00000000
_STKPTR                           00000000
_STKPTRbits                       00000000
_T0CON                            00000000
_T0CONbits                        00000000
_T1CON                            00000000
_T1CONbits                        00000000
_T2CON                            00000000
_T2CONbits                        00000000
_T3CON                            00000000
_T3CONbits                        00000000
_TABLAT                           00000000
_TBLPTR                           00000000
_TBLPTRH                          00000000
_TBLPTRL                          00000000
_TBLPTRU                          00000000
_TMR0                             00000000
_TMR0H                            00000000
_TMR0L                            00000000
_TMR1                             00000000
_TMR1H                            00000000
_TMR1L                            00000000
_TMR2                             00000000
_TMR3                             00000000
gpasm-1.4.0 #1107 (May  9 2015) build/sdcc/pr   12-2-2016  22:31:29         PAGE 91


SYMBOL TABLE
  LABEL                             VALUE 

_TMR3H                            00000000
_TMR3L                            00000000
_TOS                              00000000
_TOSH                             00000000
_TOSL                             00000000
_TOSU                             00000000
_TRISA                            00000000
_TRISAbits                        00000000
_TRISB                            00000000
_TRISBbits                        00000000
_TRISC                            00000000
_TRISCbits                        00000000
_TRISD                            00000000
_TRISDbits                        00000000
_TRISE                            00000000
_TRISEbits                        00000000
_TXREG                            00000000
_TXSTA                            00000000
_TXSTAbits                        00000000
_WDTCON                           00000000
_WDTCONbits                       00000000
_WREG                             00000000
__18F4620                         00000001
__ACC_RAM_LOW_END                 0000007F
__CODE_END                        0000FFFF
__CODE_START                      00000000
__EEPROM_END                      00F003FF
__EEPROM_START                    00F00000
__VECTOR_INT_HIGH                 00000008
__VECTOR_INT_LOW                  00000018
__VECTOR_RESET                    00000000
__gptrget1                        00000000
__gptrget2                        00000000
__gptrput1                        00000000
__gptrput2                        00000000
__moduchar                        00000000
__mulint                          00000000
_delay                            00000000
_malloc                           00000000
_memcpy                           00000000
_mesh                             00000000
_millis                           00000000
_mtime                            00000000
_realloc                          00000000
_stdin                            00000000
_stdout                           00000000
r0x00                             00000000
r0x01                             00000001
r0x02                             00000002
r0x03                             00000003
r0x04                             00000004
r0x05                             00000005
r0x06                             00000006
gpasm-1.4.0 #1107 (May  9 2015) build/sdcc/pr   12-2-2016  22:31:29         PAGE 92


SYMBOL TABLE
  LABEL                             VALUE 

r0x07                             00000007
r0x08                             00000008
r0x09                             00000009
r0x0a                             0000000A
r0x0b                             0000000B
r0x0c                             0000000C
r0x0d                             0000000D
r0x0e                             0000000E
r0x0f                             0000000F
r0x10                             00000010
r0x11                             00000011
r0x12                             00000012
r0x13                             00000013
r0x14                             00000014

Errors   :     0
Warnings :     0 reported,     0 suppressed
Messages :   602 reported,     0 suppressed

