;--------------------------------------------------------
; File Created by SDCC : free open source ANSI-C Compiler
; Version 3.6.0 #9615 (Linux)
;--------------------------------------------------------
; PIC16 port for the Microchip 16-bit core micros
;--------------------------------------------------------
	list	p=18f4620
	radix	dec
	CONFIG	OSC=HSPLL
	CONFIG	FCMEN=OFF
	CONFIG	IESO=OFF
	CONFIG	PWRT=ON
	CONFIG	BOREN=OFF
	CONFIG	BORV=3
	CONFIG	WDT=OFF
	CONFIG	WDTPS=32768
	CONFIG	CCP2MX=PORTC
	CONFIG	PBADEN=OFF
	CONFIG	LPT1OSC=OFF
	CONFIG	MCLRE=ON
	CONFIG	STVREN=OFF
	CONFIG	LVP=OFF
	CONFIG	XINST=OFF
	CONFIG	CP0=OFF
	CONFIG	CP1=OFF
	CONFIG	CP2=OFF
	CONFIG	CP3=OFF
	CONFIG	CPB=OFF
	CONFIG	CPD=OFF
	CONFIG	WRT0=OFF
	CONFIG	WRT1=OFF
	CONFIG	WRT2=OFF
	CONFIG	WRT3=OFF
	CONFIG	WRTC=OFF
	CONFIG	WRTB=OFF
	CONFIG	WRTD=OFF
	CONFIG	EBTR0=OFF
	CONFIG	EBTR1=OFF
	CONFIG	EBTR2=OFF
	CONFIG	EBTR3=OFF
	CONFIG	EBTRB=OFF


;--------------------------------------------------------
; public variables in this module
;--------------------------------------------------------
	global	_isr
	global	_main

;--------------------------------------------------------
; extern variables in this module
;--------------------------------------------------------
	extern	_PORTAbits
	extern	_PORTBbits
	extern	_PORTCbits
	extern	_PORTDbits
	extern	_PORTEbits
	extern	_LATAbits
	extern	_LATBbits
	extern	_LATCbits
	extern	_LATDbits
	extern	_LATEbits
	extern	_DDRAbits
	extern	_TRISAbits
	extern	_DDRBbits
	extern	_TRISBbits
	extern	_DDRCbits
	extern	_TRISCbits
	extern	_DDRDbits
	extern	_TRISDbits
	extern	_DDREbits
	extern	_TRISEbits
	extern	_OSCTUNEbits
	extern	_PIE1bits
	extern	_PIR1bits
	extern	_IPR1bits
	extern	_PIE2bits
	extern	_PIR2bits
	extern	_IPR2bits
	extern	_EECON1bits
	extern	_RCSTAbits
	extern	_TXSTAbits
	extern	_T3CONbits
	extern	_CMCONbits
	extern	_CVRCONbits
	extern	_ECCP1ASbits
	extern	_PWM1CONbits
	extern	_BAUDCONbits
	extern	_BAUDCTLbits
	extern	_CCP2CONbits
	extern	_CCP1CONbits
	extern	_ADCON2bits
	extern	_ADCON1bits
	extern	_ADCON0bits
	extern	_SSPCON2bits
	extern	_SSPCON1bits
	extern	_SSPSTATbits
	extern	_T2CONbits
	extern	_T1CONbits
	extern	_RCONbits
	extern	_WDTCONbits
	extern	_HLVDCONbits
	extern	_LVDCONbits
	extern	_OSCCONbits
	extern	_T0CONbits
	extern	_STATUSbits
	extern	_INTCON3bits
	extern	_INTCON2bits
	extern	_INTCONbits
	extern	_STKPTRbits
	extern	_stdin
	extern	_stdout
	extern	_mtime
	extern	_PORTA
	extern	_PORTB
	extern	_PORTC
	extern	_PORTD
	extern	_PORTE
	extern	_LATA
	extern	_LATB
	extern	_LATC
	extern	_LATD
	extern	_LATE
	extern	_DDRA
	extern	_TRISA
	extern	_DDRB
	extern	_TRISB
	extern	_DDRC
	extern	_TRISC
	extern	_DDRD
	extern	_TRISD
	extern	_DDRE
	extern	_TRISE
	extern	_OSCTUNE
	extern	_PIE1
	extern	_PIR1
	extern	_IPR1
	extern	_PIE2
	extern	_PIR2
	extern	_IPR2
	extern	_EECON1
	extern	_EECON2
	extern	_EEDATA
	extern	_EEADR
	extern	_EEADRH
	extern	_RCSTA
	extern	_TXSTA
	extern	_TXREG
	extern	_RCREG
	extern	_SPBRG
	extern	_SPBRGH
	extern	_T3CON
	extern	_TMR3
	extern	_TMR3L
	extern	_TMR3H
	extern	_CMCON
	extern	_CVRCON
	extern	_ECCP1AS
	extern	_PWM1CON
	extern	_BAUDCON
	extern	_BAUDCTL
	extern	_CCP2CON
	extern	_CCPR2
	extern	_CCPR2L
	extern	_CCPR2H
	extern	_CCP1CON
	extern	_CCPR1
	extern	_CCPR1L
	extern	_CCPR1H
	extern	_ADCON2
	extern	_ADCON1
	extern	_ADCON0
	extern	_ADRES
	extern	_ADRESL
	extern	_ADRESH
	extern	_SSPCON2
	extern	_SSPCON1
	extern	_SSPSTAT
	extern	_SSPADD
	extern	_SSPBUF
	extern	_T2CON
	extern	_PR2
	extern	_TMR2
	extern	_T1CON
	extern	_TMR1
	extern	_TMR1L
	extern	_TMR1H
	extern	_RCON
	extern	_WDTCON
	extern	_HLVDCON
	extern	_LVDCON
	extern	_OSCCON
	extern	_T0CON
	extern	_TMR0
	extern	_TMR0L
	extern	_TMR0H
	extern	_STATUS
	extern	_FSR2L
	extern	_FSR2H
	extern	_PLUSW2
	extern	_PREINC2
	extern	_POSTDEC2
	extern	_POSTINC2
	extern	_INDF2
	extern	_BSR
	extern	_FSR1L
	extern	_FSR1H
	extern	_PLUSW1
	extern	_PREINC1
	extern	_POSTDEC1
	extern	_POSTINC1
	extern	_INDF1
	extern	_WREG
	extern	_FSR0L
	extern	_FSR0H
	extern	_PLUSW0
	extern	_PREINC0
	extern	_POSTDEC0
	extern	_POSTINC0
	extern	_INDF0
	extern	_INTCON3
	extern	_INTCON2
	extern	_INTCON
	extern	_PROD
	extern	_PRODL
	extern	_PRODH
	extern	_TABLAT
	extern	_TBLPTR
	extern	_TBLPTRL
	extern	_TBLPTRH
	extern	_TBLPTRU
	extern	_PC
	extern	_PCL
	extern	_PCLATH
	extern	_PCLATU
	extern	_STKPTR
	extern	_TOS
	extern	_TOSL
	extern	_TOSH
	extern	_TOSU
	extern	_setup
	extern	_loop

;--------------------------------------------------------
;	Equates to used internal registers
;--------------------------------------------------------
PCLATH	equ	0xffa
PCLATU	equ	0xffb
FSR0L	equ	0xfe9
FSR0H	equ	0xfea
FSR1L	equ	0xfe1
FSR1H	equ	0xfe2
FSR2L	equ	0xfd9
FSR2H	equ	0xfda
POSTDEC1	equ	0xfe5
PREINC1	equ	0xfe4
PRODL	equ	0xff3
PRODH	equ	0xff4

;--------------------------------------------------------
; interrupt vector
;--------------------------------------------------------

;--------------------------------------------------------
; global & static initialisations
;--------------------------------------------------------
; ; Starting pCode block for absolute section
; ;-----------------------------------------
S_pic_main_ivec_0x1_isr	code	0X000008
ivec_0x1_isr:
	GOTO	_isr

; I code from now on!
; ; Starting pCode block
S_pic_main__main	code
_main:
	BANKSEL	_mtime
;	.line	32; pic_main.c	mtime=0;
	CLRF	_mtime, B
	BANKSEL	(_mtime + 1)
	CLRF	(_mtime + 1), B
	BANKSEL	(_mtime + 2)
	CLRF	(_mtime + 2), B
	BANKSEL	(_mtime + 3)
	CLRF	(_mtime + 3), B
;	.line	34; pic_main.c	T0CONbits.T08BIT=0;
	BCF	_T0CONbits, 6
;	.line	35; pic_main.c	T0CONbits.T0CS=0;
	BCF	_T0CONbits, 5
;	.line	36; pic_main.c	T0CONbits.PSA=1;
	BSF	_T0CONbits, 3
;	.line	40; pic_main.c	TMR0H=_T0H; 
	MOVLW	0xe0
	MOVWF	_TMR0H
;	.line	41; pic_main.c	TMR0L=_T0L; 
	MOVLW	0xc0
	MOVWF	_TMR0L
;	.line	42; pic_main.c	INTCONbits.TMR0IF=0;
	BCF	_INTCONbits, 2
;	.line	43; pic_main.c	INTCONbits.GIE = 1;
	BSF	_INTCONbits, 7
;	.line	44; pic_main.c	INTCONbits.TMR0IE = 1;
	BSF	_INTCONbits, 5
;	.line	45; pic_main.c	T0CONbits.TMR0ON=1;
	BSF	_T0CONbits, 7
;	.line	47; pic_main.c	setup();
	CALL	_setup
_00118_DS_:
;	.line	52; pic_main.c	loop();
	CALL	_loop
	BRA	_00118_DS_
	RETURN	

; ; Starting pCode block
S_pic_main__isr	code
_isr:
;	.line	15; pic_main.c	void isr(void) __shadowregs __interrupt 1
	MOVFF	PRODL, POSTDEC1
	MOVFF	PRODH, POSTDEC1
	MOVFF	FSR0L, POSTDEC1
	MOVFF	FSR0H, POSTDEC1
	MOVFF	PCLATH, POSTDEC1
	MOVFF	PCLATU, POSTDEC1
	MOVFF	FSR2H, POSTDEC1
	MOVFF	FSR2L, POSTDEC1
	MOVFF	FSR1H, FSR2H
	MOVFF	FSR1L, FSR2L
;	.line	18; pic_main.c	if(INTCONbits.TMR0IF)
	BTFSS	_INTCONbits, 2
	BRA	_00107_DS_
;	.line	20; pic_main.c	TMR0H=_T0H; 
	MOVLW	0xe0
	MOVWF	_TMR0H
;	.line	21; pic_main.c	TMR0L=_T0L; //1000ms=1us*1*(65536-3036)
	MOVLW	0xc0
	MOVWF	_TMR0L
	BANKSEL	_mtime
;	.line	22; pic_main.c	mtime++;
	INCF	_mtime, F, B
	BNC	_00112_DS_
	BANKSEL	(_mtime + 1)
	INCF	(_mtime + 1), F, B
	BNC	_00112_DS_
	BANKSEL	(_mtime + 2)
	INCFSZ	(_mtime + 2), F, B
	BRA	_10117_DS_
	BANKSEL	(_mtime + 3)
	INCF	(_mtime + 3), F, B
_10117_DS_:
_00112_DS_:
;	.line	23; pic_main.c	INTCONbits.TMR0IF=0;
	BCF	_INTCONbits, 2
_00107_DS_:
	MOVFF	PREINC1, FSR2L
	MOVFF	PREINC1, FSR2H
	MOVFF	PREINC1, PCLATU
	MOVFF	PREINC1, PCLATH
	MOVFF	PREINC1, FSR0H
	MOVFF	PREINC1, FSR0L
	MOVFF	PREINC1, PRODH
	MOVFF	PREINC1, PRODL
	RETFIE	0x01



; Statistics:
; code size:	  162 (0x00a2) bytes ( 0.12%)
;           	   81 (0x0051) words
; udata size:	    0 (0x0000) bytes ( 0.00%)
; access size:	    0 (0x0000) bytes


	end
